; Listing generated by Microsoft (R) Optimizing Compiler Version 19.29.30133.0 

include listing.inc

INCLUDELIB OLDNAMES

EXTRN	??_L@YAXPEAX_K1P6AX0@Z2@Z:PROC			; `eh vector constructor iterator'
EXTRN	??_U@YAPEAX_K@Z:PROC				; operator new[]
EXTRN	??_M@YAXPEAX_K1P6AX0@Z@Z:PROC			; `eh vector destructor iterator'
EXTRN	??2@YAPEAX_K@Z:PROC				; operator new
EXTRN	??_V@YAXPEAX_K@Z:PROC				; operator delete[]
PUBLIC	?processAudio@Freeverb@@QEAAXPEAM0@Z		; Freeverb::processAudio
PUBLIC	?updateReverbParameters@Freeverb@@QEAAXXZ	; Freeverb::updateReverbParameters
PUBLIC	?setAllPassFiltersDelay@Freeverb@@QEAAXXZ	; Freeverb::setAllPassFiltersDelay
PUBLIC	?setCombFiltersDelay@Freeverb@@QEAAXXZ		; Freeverb::setCombFiltersDelay
PUBLIC	?mapValueIntoRange@Freeverb@@QEAAMMMM@Z		; Freeverb::mapValueIntoRange
PUBLIC	?setReverbSpread@Freeverb@@QEAAXM@Z		; Freeverb::setReverbSpread
PUBLIC	?setReverbPreDelayInMilliseconds@Freeverb@@QEAAXM@Z ; Freeverb::setReverbPreDelayInMilliseconds
PUBLIC	?setReverbDampingFrequency@Freeverb@@QEAAXM@Z	; Freeverb::setReverbDampingFrequency
PUBLIC	?setReverbDecayInSeconds@Freeverb@@QEAAXM@Z	; Freeverb::setReverbDecayInSeconds
PUBLIC	?setReverbSmearing@Freeverb@@QEAAXM@Z		; Freeverb::setReverbSmearing
PUBLIC	?setReverbWet@Freeverb@@QEAAXM@Z		; Freeverb::setReverbWet
PUBLIC	?setSampleRate@Freeverb@@QEAAXH@Z		; Freeverb::setSampleRate
PUBLIC	?init@Freeverb@@QEAAXHMMMMMM@Z			; Freeverb::init
PUBLIC	??_GAllPassFilter@@QEAAPEAXI@Z			; AllPassFilter::`scalar deleting destructor'
PUBLIC	??_GLPCombFilter@@QEAAPEAXI@Z			; LPCombFilter::`scalar deleting destructor'
PUBLIC	??_GCombFilter@@QEAAPEAXI@Z			; CombFilter::`scalar deleting destructor'
PUBLIC	??1Freeverb@@QEAA@XZ				; Freeverb::~Freeverb
PUBLIC	??0Freeverb@@QEAA@XZ				; Freeverb::Freeverb
;	COMDAT pdata
pdata	SEGMENT
$pdata$?processAudio@Freeverb@@QEAAXPEAM0@Z DD imagerel $LN25
	DD	imagerel $LN25+493
	DD	imagerel $unwind$?processAudio@Freeverb@@QEAAXPEAM0@Z
pdata	ENDS
;	COMDAT pdata
pdata	SEGMENT
$pdata$?setAllPassFiltersDelay@Freeverb@@QEAAXXZ DD imagerel $LN34
	DD	imagerel $LN34+305
	DD	imagerel $unwind$?setAllPassFiltersDelay@Freeverb@@QEAAXXZ
pdata	ENDS
;	COMDAT pdata
pdata	SEGMENT
$pdata$?setCombFiltersDelay@Freeverb@@QEAAXXZ DD imagerel $LN19
	DD	imagerel $LN19+161
	DD	imagerel $unwind$?setCombFiltersDelay@Freeverb@@QEAAXXZ
pdata	ENDS
;	COMDAT pdata
pdata	SEGMENT
$pdata$?setReverbDampingFrequency@Freeverb@@QEAAXM@Z DD imagerel $LN19
	DD	imagerel $LN19+104
	DD	imagerel $unwind$?setReverbDampingFrequency@Freeverb@@QEAAXM@Z
pdata	ENDS
;	COMDAT pdata
pdata	SEGMENT
$pdata$?setReverbDecayInSeconds@Freeverb@@QEAAXM@Z DD imagerel $LN11
	DD	imagerel $LN11+88
	DD	imagerel $unwind$?setReverbDecayInSeconds@Freeverb@@QEAAXM@Z
pdata	ENDS
;	COMDAT pdata
pdata	SEGMENT
$pdata$?setSampleRate@Freeverb@@QEAAXH@Z DD imagerel $LN25
	DD	imagerel $LN25+266
	DD	imagerel $unwind$?setSampleRate@Freeverb@@QEAAXH@Z
pdata	ENDS
;	COMDAT pdata
pdata	SEGMENT
$pdata$?init@Freeverb@@QEAAXHMMMMMM@Z DD imagerel $LN98
	DD	imagerel $LN98+1028
	DD	imagerel $unwind$?init@Freeverb@@QEAAXHMMMMMM@Z
pdata	ENDS
;	COMDAT pdata
pdata	SEGMENT
$pdata$??_GAllPassFilter@@QEAAPEAXI@Z DD imagerel $LN9
	DD	imagerel $LN9+33
	DD	imagerel $unwind$??_GAllPassFilter@@QEAAPEAXI@Z
pdata	ENDS
;	COMDAT pdata
pdata	SEGMENT
$pdata$??_GLPCombFilter@@QEAAPEAXI@Z DD imagerel $LN15
	DD	imagerel $LN15+50
	DD	imagerel $unwind$??_GLPCombFilter@@QEAAPEAXI@Z
pdata	ENDS
;	COMDAT pdata
pdata	SEGMENT
$pdata$??_GCombFilter@@QEAAPEAXI@Z DD imagerel $LN9
	DD	imagerel $LN9+33
	DD	imagerel $unwind$??_GCombFilter@@QEAAPEAXI@Z
pdata	ENDS
;	COMDAT pdata
pdata	SEGMENT
$pdata$??1Freeverb@@QEAA@XZ DD imagerel $LN80
	DD	imagerel $LN80+248
	DD	imagerel $unwind$??1Freeverb@@QEAA@XZ
pdata	ENDS
;	COMDAT pdata
pdata	SEGMENT
$pdata$??0Freeverb@@QEAA@XZ DD imagerel $LN30
	DD	imagerel $LN30+588
	DD	imagerel $unwind$??0Freeverb@@QEAA@XZ
pdata	ENDS
;	COMDAT pdata
pdata	SEGMENT
$pdata$?dtor$1@?0???0Freeverb@@QEAA@XZ@4HA DD imagerel ?dtor$1@?0???0Freeverb@@QEAA@XZ@4HA
	DD	imagerel ?dtor$1@?0???0Freeverb@@QEAA@XZ@4HA+29
	DD	imagerel $unwind$?dtor$1@?0???0Freeverb@@QEAA@XZ@4HA
pdata	ENDS
;	COMDAT pdata
pdata	SEGMENT
$pdata$?dtor$2@?0???0Freeverb@@QEAA@XZ@4HA DD imagerel ?dtor$2@?0???0Freeverb@@QEAA@XZ@4HA
	DD	imagerel ?dtor$2@?0???0Freeverb@@QEAA@XZ@4HA+29
	DD	imagerel $unwind$?dtor$2@?0???0Freeverb@@QEAA@XZ@4HA
pdata	ENDS
;	COMDAT pdata
pdata	SEGMENT
$pdata$?dtor$3@?0???0Freeverb@@QEAA@XZ@4HA DD imagerel ?dtor$3@?0???0Freeverb@@QEAA@XZ@4HA
	DD	imagerel ?dtor$3@?0???0Freeverb@@QEAA@XZ@4HA+29
	DD	imagerel $unwind$?dtor$3@?0???0Freeverb@@QEAA@XZ@4HA
pdata	ENDS
;	COMDAT pdata
pdata	SEGMENT
$pdata$?dtor$4@?0???0Freeverb@@QEAA@XZ@4HA DD imagerel ?dtor$4@?0???0Freeverb@@QEAA@XZ@4HA
	DD	imagerel ?dtor$4@?0???0Freeverb@@QEAA@XZ@4HA+29
	DD	imagerel $unwind$?dtor$4@?0???0Freeverb@@QEAA@XZ@4HA
pdata	ENDS
;	COMDAT pdata
pdata	SEGMENT
$pdata$?dtor$5@?0???0Freeverb@@QEAA@XZ@4HA DD imagerel ?dtor$5@?0???0Freeverb@@QEAA@XZ@4HA
	DD	imagerel ?dtor$5@?0???0Freeverb@@QEAA@XZ@4HA+29
	DD	imagerel $unwind$?dtor$5@?0???0Freeverb@@QEAA@XZ@4HA
pdata	ENDS
;	COMDAT pdata
pdata	SEGMENT
$pdata$?dtor$6@?0???0Freeverb@@QEAA@XZ@4HA DD imagerel ?dtor$6@?0???0Freeverb@@QEAA@XZ@4HA
	DD	imagerel ?dtor$6@?0???0Freeverb@@QEAA@XZ@4HA+29
	DD	imagerel $unwind$?dtor$6@?0???0Freeverb@@QEAA@XZ@4HA
;	COMDAT xdata
xdata	SEGMENT
$unwind$?dtor$6@?0???0Freeverb@@QEAA@XZ@4HA DD 020601H
	DD	050023206H
xdata	ENDS
;	COMDAT xdata
xdata	SEGMENT
$unwind$?dtor$5@?0???0Freeverb@@QEAA@XZ@4HA DD 020601H
	DD	050023206H
xdata	ENDS
;	COMDAT xdata
xdata	SEGMENT
$unwind$?dtor$4@?0???0Freeverb@@QEAA@XZ@4HA DD 020601H
	DD	050023206H
xdata	ENDS
;	COMDAT xdata
xdata	SEGMENT
$unwind$?dtor$3@?0???0Freeverb@@QEAA@XZ@4HA DD 020601H
	DD	050023206H
xdata	ENDS
;	COMDAT xdata
xdata	SEGMENT
$unwind$?dtor$2@?0???0Freeverb@@QEAA@XZ@4HA DD 020601H
	DD	050023206H
xdata	ENDS
;	COMDAT xdata
xdata	SEGMENT
$unwind$?dtor$1@?0???0Freeverb@@QEAA@XZ@4HA DD 020601H
	DD	050023206H
xdata	ENDS
;	COMDAT xdata
xdata	SEGMENT
$ip2state$??0Freeverb@@QEAA@XZ DB 01aH
	DB	'R'
	DB	00H
	DB	0a0H
	DB	02H
	DB	'`'
	DB	00H
	DB	'"'
	DB	04H
	DB	'B'
	DB	00H
	DB	'*'
	DB	06H
	DB	'h'
	DB	00H
	DB	'('
	DB	08H
	DB	':'
	DB	00H
	DB	'('
	DB	0aH
	DB	':'
	DB	00H
	DB	'('
	DB	0cH
	DB	':'
	DB	00H
xdata	ENDS
;	COMDAT xdata
xdata	SEGMENT
$stateUnwindMap$??0Freeverb@@QEAA@XZ DB 0cH
	DB	0eH
	DD	imagerel ?dtor$1@?0???0Freeverb@@QEAA@XZ@4HA
	DB	036H
	DD	imagerel ?dtor$2@?0???0Freeverb@@QEAA@XZ@4HA
	DB	05eH
	DD	imagerel ?dtor$3@?0???0Freeverb@@QEAA@XZ@4HA
	DB	086H
	DD	imagerel ?dtor$4@?0???0Freeverb@@QEAA@XZ@4HA
	DB	0aeH
	DD	imagerel ?dtor$5@?0???0Freeverb@@QEAA@XZ@4HA
	DB	0d6H
	DD	imagerel ?dtor$6@?0???0Freeverb@@QEAA@XZ@4HA
xdata	ENDS
;	COMDAT xdata
xdata	SEGMENT
$cppxdata$??0Freeverb@@QEAA@XZ DB 028H
	DD	imagerel $stateUnwindMap$??0Freeverb@@QEAA@XZ
	DD	imagerel $ip2state$??0Freeverb@@QEAA@XZ
xdata	ENDS
;	COMDAT xdata
xdata	SEGMENT
$unwind$??0Freeverb@@QEAA@XZ DD 0a1611H
	DD	0e5416H
	DD	0d3416H
	DD	0f0125216H
	DD	0c00ee010H
	DD	0600b700cH
	DD	imagerel __CxxFrameHandler4
	DD	imagerel $cppxdata$??0Freeverb@@QEAA@XZ
xdata	ENDS
;	COMDAT xdata
xdata	SEGMENT
$unwind$??1Freeverb@@QEAA@XZ DD 0a1901H
	DD	097419H
	DD	086419H
	DD	075419H
	DD	063419H
	DD	0e0153219H
xdata	ENDS
;	COMDAT xdata
xdata	SEGMENT
$unwind$??_GCombFilter@@QEAAPEAXI@Z DD 020601H
	DD	030023206H
xdata	ENDS
;	COMDAT xdata
xdata	SEGMENT
$unwind$??_GLPCombFilter@@QEAAPEAXI@Z DD 020601H
	DD	030023206H
xdata	ENDS
;	COMDAT xdata
xdata	SEGMENT
$unwind$??_GAllPassFilter@@QEAAPEAXI@Z DD 020601H
	DD	030023206H
xdata	ENDS
;	COMDAT xdata
xdata	SEGMENT
$unwind$?init@Freeverb@@QEAAXHMMMMMM@Z DD 0144801H
	DD	029848H
	DD	03883fH
	DD	04783aH
	DD	056833H
	DD	013741dH
	DD	012641dH
	DD	011541dH
	DD	010341dH
	DD	0f019b21dH
	DD	0c015e017H
xdata	ENDS
;	COMDAT xdata
xdata	SEGMENT
$unwind$?setSampleRate@Freeverb@@QEAAXH@Z DD 0c1d01H
	DD	0b741dH
	DD	0a641dH
	DD	09541dH
	DD	08341dH
	DD	0f019321dH
	DD	0c015e017H
xdata	ENDS
;	COMDAT xdata
xdata	SEGMENT
$unwind$?setReverbDecayInSeconds@Freeverb@@QEAAXM@Z DD 060f01H
	DD	07640fH
	DD	06340fH
	DD	0700b320fH
xdata	ENDS
;	COMDAT xdata
xdata	SEGMENT
$unwind$?setReverbDampingFrequency@Freeverb@@QEAAXM@Z DD 040a01H
	DD	06340aH
	DD	07006320aH
xdata	ENDS
;	COMDAT xdata
xdata	SEGMENT
$unwind$?setCombFiltersDelay@Freeverb@@QEAAXXZ DD 081401H
	DD	086414H
	DD	075414H
	DD	063414H
	DD	070103214H
xdata	ENDS
;	COMDAT xdata
xdata	SEGMENT
$unwind$?setAllPassFiltersDelay@Freeverb@@QEAAXXZ DD 0a1801H
	DD	0a6418H
	DD	095418H
	DD	083418H
	DD	0f0143218H
	DD	07010e012H
xdata	ENDS
;	COMDAT xdata
xdata	SEGMENT
$unwind$?processAudio@Freeverb@@QEAAXPEAM0@Z DD 0185201H
	DD	02b852H
	DD	03a848H
	DD	049843H
	DD	05883aH
	DD	067832H
	DD	076824H
	DD	0177420H
	DD	0166420H
	DD	0155420H
	DD	0143420H
	DD	0f019f220H
	DD	0c015e017H
; Function compile flags: /Ogspy
; File E:\FoxSuite\fox-suite-blocks\src\Freeverb.cpp
; File E:\FoxSuite\fox-suite-blocks\src\Delay.cpp
; File E:\FoxSuite\fox-suite-blocks\src\CombFilter.cpp
; File E:\FoxSuite\fox-suite-blocks\src\Freeverb.cpp
;	COMDAT ??0Freeverb@@QEAA@XZ
_TEXT	SEGMENT
$T13 = 96
$T11 = 96
$T9 = 96
$T7 = 96
$T5 = 96
$T3 = 96
$T1 = 96
this$ = 96
??0Freeverb@@QEAA@XZ PROC				; Freeverb::Freeverb, COMDAT

; 20   : Freeverb::Freeverb() {

$LN30:
	mov	QWORD PTR [rsp+16], rbx
	mov	QWORD PTR [rsp+24], rbp
	push	rsi
	push	rdi
	push	r12
	push	r14
	push	r15
	sub	rsp, 48					; 00000030H
	mov	rdi, rcx

; 21   :     freeverb_wet      = 0.0;

	xor	ebx, ebx
	mov	QWORD PTR [rcx], rbx

; 22   :     freeverb_smearing = 0.0;
; 23   :     freeverb_decaySeconds    = 0.0;

	mov	QWORD PTR [rcx+8], rbx

; 24   :     freeverb_dampingFrequency  = 0.0;
; 25   :     freeverb_preDelayMilliSeconds = 0.0;

	mov	QWORD PTR [rcx+16], rbx

; 30   :     preDelayModule = new CombFilter();

	lea	ecx, QWORD PTR [rbx+72]
	call	??2@YAPEAX_K@Z				; operator new
	mov	QWORD PTR $T1[rsp], rax
; File E:\FoxSuite\fox-suite-blocks\src\Delay.cpp

; 8    : 	dly_buffer				= NULL;

	mov	QWORD PTR [rax+40], rbx

; 9    : 	dly_makeUpGaindB		= 0.0;

	mov	DWORD PTR [rax+48], ebx

; 10   : 	dly_makeUpGain			= 1.0;

	mov	QWORD PTR [rax+52], 1065353216		; 3f800000H

; 11   : 	dly_delayInmsec			= 0.0;
; 12   : 	dly_delayInSamples		= 0.0;

	mov	QWORD PTR [rax+20], rbx

; 13   : 	dly_readIndex			= 0;

	mov	QWORD PTR [rax+28], rbx

; 14   : 	dly_writeIndex			= 0;
; 15   : 	dly_lineLengthInSamples = 0;

	mov	QWORD PTR [rax+12], rbx
; File E:\FoxSuite\fox-suite-blocks\src\CombFilter.cpp

; 8    : {

	lea	rcx, OFFSET FLAT:??_7CombFilter@@6B@
	mov	QWORD PTR [rax], rcx

; 9    : 	cf_feedbackGain     = 0.0;
; 10   : 	cf_decayInSeconds   = 0.0;

	mov	DWORD PTR [rax+60], ebx

; 11   : 	cf_feedbackGainSign = 1;

	mov	DWORD PTR [rax+64], 1
; File E:\FoxSuite\fox-suite-blocks\src\Freeverb.cpp

; 30   :     preDelayModule = new CombFilter();

	mov	QWORD PTR [rdi+40], rax

; 31   : 
; 32   :     /*.......................................*/
; 33   :     // allocate comb filters
; 34   :     combFiltersL = new LPCombFilter[NUM_COMB_FILTERS];

	mov	r14d, 712				; 000002c8H
	mov	ecx, r14d
	call	??_U@YAPEAX_K@Z				; operator new[]
	mov	QWORD PTR $T3[rsp], rax
	lea	r15d, QWORD PTR [rbx+8]
	mov	QWORD PTR [rax], r15
	lea	rbx, QWORD PTR [rax+8]
	lea	rbp, OFFSET FLAT:??1LPCombFilter@@QEAA@XZ ; LPCombFilter::~LPCombFilter
	mov	QWORD PTR [rsp+32], rbp
	lea	r9, OFFSET FLAT:??0LPCombFilter@@QEAA@XZ ; LPCombFilter::LPCombFilter
	mov	r8d, r15d
	lea	esi, QWORD PTR [r15+80]
	mov	edx, esi
	mov	rcx, rbx
	call	??_L@YAXPEAX_K1P6AX0@Z2@Z
	npad	1
	mov	QWORD PTR [rdi+48], rbx

; 35   :     combFiltersR = new LPCombFilter[NUM_COMB_FILTERS];

	mov	ecx, r14d
	call	??_U@YAPEAX_K@Z				; operator new[]
	mov	QWORD PTR $T5[rsp], rax
	mov	QWORD PTR [rax], r15
	lea	rbx, QWORD PTR [rax+8]
	mov	QWORD PTR [rsp+32], rbp
	lea	r9, OFFSET FLAT:??0LPCombFilter@@QEAA@XZ ; LPCombFilter::LPCombFilter
	mov	r8d, r15d
	mov	edx, esi
	mov	rcx, rbx
	call	??_L@YAXPEAX_K1P6AX0@Z2@Z
	npad	1
	mov	QWORD PTR [rdi+56], rbx

; 36   : 
; 37   :     /*.......................................*/
; 38   :     // allocate all pass lines
; 39   :     apFiltersL_input  = new AllPassFilter[NUM_ALLPASS_FILTERS_IN];

	lea	r15d, QWORD PTR [rsi+112]
	mov	ecx, r15d
	call	??_U@YAPEAX_K@Z				; operator new[]
	mov	QWORD PTR $T7[rsp], rax
	lea	r12d, QWORD PTR [rsi-85]
	mov	QWORD PTR [rax], r12
	lea	rbx, QWORD PTR [rax+8]
	lea	r14, OFFSET FLAT:??1AllPassFilter@@QEAA@XZ ; AllPassFilter::~AllPassFilter
	mov	QWORD PTR [rsp+32], r14
	lea	rbp, OFFSET FLAT:??0AllPassFilter@@QEAA@XZ ; AllPassFilter::AllPassFilter
	mov	r9, rbp
	mov	r8d, r12d
	lea	esi, QWORD PTR [r12+61]
	mov	edx, esi
	mov	rcx, rbx
	call	??_L@YAXPEAX_K1P6AX0@Z2@Z
	npad	1
	mov	QWORD PTR [rdi+128], rbx

; 40   :     apFiltersR_input  = new AllPassFilter[NUM_ALLPASS_FILTERS_IN];

	mov	ecx, r15d
	call	??_U@YAPEAX_K@Z				; operator new[]
	mov	QWORD PTR $T9[rsp], rax
	mov	QWORD PTR [rax], r12
	lea	rbx, QWORD PTR [rax+8]
	mov	QWORD PTR [rsp+32], r14
	mov	r9, rbp
	mov	r8d, r12d
	mov	edx, esi
	mov	rcx, rbx
	call	??_L@YAXPEAX_K1P6AX0@Z2@Z
	npad	1
	mov	QWORD PTR [rdi+136], rbx

; 41   :     apFiltersL_output = new AllPassFilter[NUM_ALLPASS_FILTERS_OUT];

	mov	ecx, r15d
	call	??_U@YAPEAX_K@Z				; operator new[]
	mov	QWORD PTR $T11[rsp], rax
	mov	QWORD PTR [rax], r12
	lea	rbx, QWORD PTR [rax+8]
	mov	QWORD PTR [rsp+32], r14
	mov	r9, rbp
	mov	r8d, r12d
	mov	edx, esi
	mov	rcx, rbx
	call	??_L@YAXPEAX_K1P6AX0@Z2@Z
	npad	1
	mov	QWORD PTR [rdi+144], rbx

; 42   :     apFiltersR_output = new AllPassFilter[NUM_ALLPASS_FILTERS_OUT];

	mov	ecx, r15d
	call	??_U@YAPEAX_K@Z				; operator new[]
	mov	QWORD PTR $T13[rsp], rax
	mov	QWORD PTR [rax], r12
	lea	rbx, QWORD PTR [rax+8]
	mov	QWORD PTR [rsp+32], r14
	mov	r9, rbp
	mov	r8d, r12d
	mov	edx, esi
	mov	rcx, rbx
	call	??_L@YAXPEAX_K1P6AX0@Z2@Z
	npad	1
	mov	QWORD PTR [rdi+152], rbx

; 43   : 
; 44   :     /*.......................................*/
; 45   :     // init CombFilters delay values
; 46   :     combFilterDlymsLeft[0] = 25.31; // 29.7;

	mov	DWORD PTR [rdi+96], 1103788769		; 41ca7ae1H

; 47   :     combFilterDlymsLeft[1] = 26.94; // 37.1;

	mov	DWORD PTR [rdi+100], 1104643359		; 41d7851fH

; 48   :     combFilterDlymsLeft[2] = 28.96; // 41.1;

	mov	DWORD PTR [rdi+104], 1105702420		; 41e7ae14H

; 49   :     combFilterDlymsLeft[3] = 30.75; // 43.7;

	mov	DWORD PTR [rdi+108], 1106640896		; 41f60000H

; 50   :     combFilterDlymsLeft[4] = 32.24; // 31.3;

	mov	DWORD PTR [rdi+112], 1107359171		; 4200f5c3H

; 51   :     combFilterDlymsLeft[5] = 33.81; // 31.7;

	mov	DWORD PTR [rdi+116], 1107770737		; 42073d71H

; 52   :     combFilterDlymsLeft[6] = 35.31; // 37.7;

	mov	DWORD PTR [rdi+120], 1108163953		; 420d3d71H

; 53   :     combFilterDlymsLeft[7] = 36.70; // 41.7;

	mov	DWORD PTR [rdi+124], 1108528333		; 4212cccdH

; 54   : 
; 55   :     /*.......................................*/
; 56   :     // init AllPass delay values
; 57   :     allPassDlymsLeft_input[0] = 1.1;

	mov	DWORD PTR [rdi+172], 1066192077		; 3f8ccccdH

; 58   :     allPassDlymsLeft_input[1] = 2.3;

	mov	DWORD PTR [rdi+176], 1075000115		; 40133333H

; 59   :     allPassDlymsLeft_input[2] = 4.7;

	mov	DWORD PTR [rdi+180], 1083598438		; 40966666H

; 60   :     allPassDlymsLeft_output[0] = 7.73; // 1.1;

	mov	DWORD PTR [rdi+196], 1089952809		; 40f75c29H

; 61   :     allPassDlymsLeft_output[1] = 10.00; // 2.3;

	mov	DWORD PTR [rdi+200], 1092616192		; 41200000H

; 62   :     allPassDlymsLeft_output[2] = 12.61; // 4.7;

	mov	DWORD PTR [rdi+204], 1095352975		; 4149c28fH

; 63   : }

	mov	rax, rdi
	mov	rbx, QWORD PTR [rsp+104]
	mov	rbp, QWORD PTR [rsp+112]
	add	rsp, 48					; 00000030H
	pop	r15
	pop	r14
	pop	r12
	pop	rdi
	pop	rsi
	ret	0
??0Freeverb@@QEAA@XZ ENDP				; Freeverb::Freeverb
_TEXT	ENDS
;	COMDAT text$x
text$x	SEGMENT
$T13 = 96
$T11 = 96
$T9 = 96
$T7 = 96
$T5 = 96
$T3 = 96
$T1 = 96
this$ = 96
?dtor$1@?0???0Freeverb@@QEAA@XZ@4HA PROC		; `Freeverb::Freeverb'::`1'::dtor$1
	push	rbp
	sub	rsp, 32					; 00000020H
	mov	rbp, rdx
	mov	edx, 712				; 000002c8H
	mov	rcx, QWORD PTR $T3[rbp]
	call	??_V@YAXPEAX_K@Z			; operator delete[]
	add	rsp, 32					; 00000020H
	pop	rbp
	ret	0
?dtor$1@?0???0Freeverb@@QEAA@XZ@4HA ENDP		; `Freeverb::Freeverb'::`1'::dtor$1
$T13 = 96
$T11 = 96
$T9 = 96
$T7 = 96
$T5 = 96
$T3 = 96
$T1 = 96
this$ = 96
?dtor$2@?0???0Freeverb@@QEAA@XZ@4HA PROC		; `Freeverb::Freeverb'::`1'::dtor$2
	push	rbp
	sub	rsp, 32					; 00000020H
	mov	rbp, rdx
	mov	edx, 712				; 000002c8H
	mov	rcx, QWORD PTR $T5[rbp]
	call	??_V@YAXPEAX_K@Z			; operator delete[]
	add	rsp, 32					; 00000020H
	pop	rbp
	ret	0
?dtor$2@?0???0Freeverb@@QEAA@XZ@4HA ENDP		; `Freeverb::Freeverb'::`1'::dtor$2
$T13 = 96
$T11 = 96
$T9 = 96
$T7 = 96
$T5 = 96
$T3 = 96
$T1 = 96
this$ = 96
?dtor$3@?0???0Freeverb@@QEAA@XZ@4HA PROC		; `Freeverb::Freeverb'::`1'::dtor$3
	push	rbp
	sub	rsp, 32					; 00000020H
	mov	rbp, rdx
	mov	edx, 200				; 000000c8H
	mov	rcx, QWORD PTR $T7[rbp]
	call	??_V@YAXPEAX_K@Z			; operator delete[]
	add	rsp, 32					; 00000020H
	pop	rbp
	ret	0
?dtor$3@?0???0Freeverb@@QEAA@XZ@4HA ENDP		; `Freeverb::Freeverb'::`1'::dtor$3
$T13 = 96
$T11 = 96
$T9 = 96
$T7 = 96
$T5 = 96
$T3 = 96
$T1 = 96
this$ = 96
?dtor$4@?0???0Freeverb@@QEAA@XZ@4HA PROC		; `Freeverb::Freeverb'::`1'::dtor$4
	push	rbp
	sub	rsp, 32					; 00000020H
	mov	rbp, rdx
	mov	edx, 200				; 000000c8H
	mov	rcx, QWORD PTR $T9[rbp]
	call	??_V@YAXPEAX_K@Z			; operator delete[]
	add	rsp, 32					; 00000020H
	pop	rbp
	ret	0
?dtor$4@?0???0Freeverb@@QEAA@XZ@4HA ENDP		; `Freeverb::Freeverb'::`1'::dtor$4
$T13 = 96
$T11 = 96
$T9 = 96
$T7 = 96
$T5 = 96
$T3 = 96
$T1 = 96
this$ = 96
?dtor$5@?0???0Freeverb@@QEAA@XZ@4HA PROC		; `Freeverb::Freeverb'::`1'::dtor$5
	push	rbp
	sub	rsp, 32					; 00000020H
	mov	rbp, rdx
	mov	edx, 200				; 000000c8H
	mov	rcx, QWORD PTR $T11[rbp]
	call	??_V@YAXPEAX_K@Z			; operator delete[]
	add	rsp, 32					; 00000020H
	pop	rbp
	ret	0
?dtor$5@?0???0Freeverb@@QEAA@XZ@4HA ENDP		; `Freeverb::Freeverb'::`1'::dtor$5
$T13 = 96
$T11 = 96
$T9 = 96
$T7 = 96
$T5 = 96
$T3 = 96
$T1 = 96
this$ = 96
?dtor$6@?0???0Freeverb@@QEAA@XZ@4HA PROC		; `Freeverb::Freeverb'::`1'::dtor$6
	push	rbp
	sub	rsp, 32					; 00000020H
	mov	rbp, rdx
	mov	edx, 200				; 000000c8H
	mov	rcx, QWORD PTR $T13[rbp]
	call	??_V@YAXPEAX_K@Z			; operator delete[]
	add	rsp, 32					; 00000020H
	pop	rbp
	ret	0
?dtor$6@?0???0Freeverb@@QEAA@XZ@4HA ENDP		; `Freeverb::Freeverb'::`1'::dtor$6
text$x	ENDS
; Function compile flags: /Ogspy
;	COMDAT text$x
text$x	SEGMENT
$T13 = 96
$T11 = 96
$T9 = 96
$T7 = 96
$T5 = 96
$T3 = 96
$T1 = 96
this$ = 96
?dtor$1@?0???0Freeverb@@QEAA@XZ@4HA PROC		; `Freeverb::Freeverb'::`1'::dtor$1
	push	rbp
	sub	rsp, 32					; 00000020H
	mov	rbp, rdx
	mov	edx, 712				; 000002c8H
	mov	rcx, QWORD PTR $T3[rbp]
	call	??_V@YAXPEAX_K@Z			; operator delete[]
	add	rsp, 32					; 00000020H
	pop	rbp
	ret	0
?dtor$1@?0???0Freeverb@@QEAA@XZ@4HA ENDP		; `Freeverb::Freeverb'::`1'::dtor$1
text$x	ENDS
; Function compile flags: /Ogspy
;	COMDAT text$x
text$x	SEGMENT
$T13 = 96
$T11 = 96
$T9 = 96
$T7 = 96
$T5 = 96
$T3 = 96
$T1 = 96
this$ = 96
?dtor$2@?0???0Freeverb@@QEAA@XZ@4HA PROC		; `Freeverb::Freeverb'::`1'::dtor$2
	push	rbp
	sub	rsp, 32					; 00000020H
	mov	rbp, rdx
	mov	edx, 712				; 000002c8H
	mov	rcx, QWORD PTR $T5[rbp]
	call	??_V@YAXPEAX_K@Z			; operator delete[]
	add	rsp, 32					; 00000020H
	pop	rbp
	ret	0
?dtor$2@?0???0Freeverb@@QEAA@XZ@4HA ENDP		; `Freeverb::Freeverb'::`1'::dtor$2
text$x	ENDS
; Function compile flags: /Ogspy
;	COMDAT text$x
text$x	SEGMENT
$T13 = 96
$T11 = 96
$T9 = 96
$T7 = 96
$T5 = 96
$T3 = 96
$T1 = 96
this$ = 96
?dtor$3@?0???0Freeverb@@QEAA@XZ@4HA PROC		; `Freeverb::Freeverb'::`1'::dtor$3
	push	rbp
	sub	rsp, 32					; 00000020H
	mov	rbp, rdx
	mov	edx, 200				; 000000c8H
	mov	rcx, QWORD PTR $T7[rbp]
	call	??_V@YAXPEAX_K@Z			; operator delete[]
	add	rsp, 32					; 00000020H
	pop	rbp
	ret	0
?dtor$3@?0???0Freeverb@@QEAA@XZ@4HA ENDP		; `Freeverb::Freeverb'::`1'::dtor$3
text$x	ENDS
; Function compile flags: /Ogspy
;	COMDAT text$x
text$x	SEGMENT
$T13 = 96
$T11 = 96
$T9 = 96
$T7 = 96
$T5 = 96
$T3 = 96
$T1 = 96
this$ = 96
?dtor$4@?0???0Freeverb@@QEAA@XZ@4HA PROC		; `Freeverb::Freeverb'::`1'::dtor$4
	push	rbp
	sub	rsp, 32					; 00000020H
	mov	rbp, rdx
	mov	edx, 200				; 000000c8H
	mov	rcx, QWORD PTR $T9[rbp]
	call	??_V@YAXPEAX_K@Z			; operator delete[]
	add	rsp, 32					; 00000020H
	pop	rbp
	ret	0
?dtor$4@?0???0Freeverb@@QEAA@XZ@4HA ENDP		; `Freeverb::Freeverb'::`1'::dtor$4
text$x	ENDS
; Function compile flags: /Ogspy
;	COMDAT text$x
text$x	SEGMENT
$T13 = 96
$T11 = 96
$T9 = 96
$T7 = 96
$T5 = 96
$T3 = 96
$T1 = 96
this$ = 96
?dtor$5@?0???0Freeverb@@QEAA@XZ@4HA PROC		; `Freeverb::Freeverb'::`1'::dtor$5
	push	rbp
	sub	rsp, 32					; 00000020H
	mov	rbp, rdx
	mov	edx, 200				; 000000c8H
	mov	rcx, QWORD PTR $T11[rbp]
	call	??_V@YAXPEAX_K@Z			; operator delete[]
	add	rsp, 32					; 00000020H
	pop	rbp
	ret	0
?dtor$5@?0???0Freeverb@@QEAA@XZ@4HA ENDP		; `Freeverb::Freeverb'::`1'::dtor$5
text$x	ENDS
; Function compile flags: /Ogspy
;	COMDAT text$x
text$x	SEGMENT
$T13 = 96
$T11 = 96
$T9 = 96
$T7 = 96
$T5 = 96
$T3 = 96
$T1 = 96
this$ = 96
?dtor$6@?0???0Freeverb@@QEAA@XZ@4HA PROC		; `Freeverb::Freeverb'::`1'::dtor$6
	push	rbp
	sub	rsp, 32					; 00000020H
	mov	rbp, rdx
	mov	edx, 200				; 000000c8H
	mov	rcx, QWORD PTR $T13[rbp]
	call	??_V@YAXPEAX_K@Z			; operator delete[]
	add	rsp, 32					; 00000020H
	pop	rbp
	ret	0
?dtor$6@?0???0Freeverb@@QEAA@XZ@4HA ENDP		; `Freeverb::Freeverb'::`1'::dtor$6
text$x	ENDS
; Function compile flags: /Ogspy
; File E:\FoxSuite\fox-suite-blocks\src\Freeverb.cpp
; File E:\FoxSuite\fox-suite-blocks\src\CombFilter.cpp
; File E:\FoxSuite\fox-suite-blocks\src\Freeverb.cpp
; File E:\FoxSuite\fox-suite-blocks\src\CombFilter.cpp
; File E:\FoxSuite\fox-suite-blocks\src\Freeverb.cpp
; File E:\FoxSuite\fox-suite-blocks\src\LPCombFilter.cpp
; File E:\FoxSuite\fox-suite-blocks\src\CombFilter.cpp
; File E:\FoxSuite\fox-suite-blocks\src\Freeverb.cpp
; File E:\FoxSuite\fox-suite-blocks\src\LPCombFilter.cpp
; File E:\FoxSuite\fox-suite-blocks\src\CombFilter.cpp
; File E:\FoxSuite\fox-suite-blocks\src\Freeverb.cpp
; File E:\FoxSuite\fox-suite-blocks\src\AllPassFilter.cpp
; File E:\FoxSuite\fox-suite-blocks\src\Freeverb.cpp
; File E:\FoxSuite\fox-suite-blocks\src\AllPassFilter.cpp
; File E:\FoxSuite\fox-suite-blocks\src\Freeverb.cpp
; File E:\FoxSuite\fox-suite-blocks\src\AllPassFilter.cpp
; File E:\FoxSuite\fox-suite-blocks\src\Freeverb.cpp
; File E:\FoxSuite\fox-suite-blocks\src\AllPassFilter.cpp
; File E:\FoxSuite\fox-suite-blocks\src\Freeverb.cpp
;	COMDAT ??1Freeverb@@QEAA@XZ
_TEXT	SEGMENT
this$ = 48
??1Freeverb@@QEAA@XZ PROC				; Freeverb::~Freeverb, COMDAT

; 68   : Freeverb::~Freeverb() {

$LN80:
	mov	rax, rsp
	mov	QWORD PTR [rax+8], rbx
	mov	QWORD PTR [rax+16], rbp
	mov	QWORD PTR [rax+24], rsi
	mov	QWORD PTR [rax+32], rdi
	push	r14
	sub	rsp, 32					; 00000020H
	mov	rdi, rcx
; File E:\FoxSuite\fox-suite-blocks\src\CombFilter.cpp

; 15   : CombFilter::~CombFilter() {}

	lea	rbp, OFFSET FLAT:??_7CombFilter@@6B@
; File E:\FoxSuite\fox-suite-blocks\src\Freeverb.cpp

; 70   :     preDelayModule->~CombFilter();

	mov	rcx, QWORD PTR [rcx+40]
; File E:\FoxSuite\fox-suite-blocks\src\CombFilter.cpp

; 15   : CombFilter::~CombFilter() {}

	mov	QWORD PTR [rcx], rbp
	call	??1Delay@@QEAA@XZ			; Delay::~Delay
; File E:\FoxSuite\fox-suite-blocks\src\Freeverb.cpp

; 70   :     preDelayModule->~CombFilter();

	xor	ebx, ebx
	lea	r14, OFFSET FLAT:??_7LPFButterworth@@6B@
	mov	esi, ebx
$LL4@Freeverb:

; 74   :         combFiltersL[i].~LPCombFilter();

	mov	rcx, QWORD PTR [rdi+48]
	add	rcx, rsi
; File E:\FoxSuite\fox-suite-blocks\src\LPCombFilter.cpp

; 15   : 	lpcf_feedbackLPF->~LPFButterworth();

	mov	rax, QWORD PTR [rcx+72]
	mov	QWORD PTR [rax], r14
; File E:\FoxSuite\fox-suite-blocks\src\CombFilter.cpp

; 15   : CombFilter::~CombFilter() {}

	mov	QWORD PTR [rcx], rbp
	call	??1Delay@@QEAA@XZ			; Delay::~Delay
; File E:\FoxSuite\fox-suite-blocks\src\Freeverb.cpp

; 75   :         combFiltersR[i].~LPCombFilter();

	mov	rcx, QWORD PTR [rdi+56]
	add	rcx, rsi
; File E:\FoxSuite\fox-suite-blocks\src\LPCombFilter.cpp

; 15   : 	lpcf_feedbackLPF->~LPFButterworth();

	mov	rax, QWORD PTR [rcx+72]
	mov	QWORD PTR [rax], r14
; File E:\FoxSuite\fox-suite-blocks\src\CombFilter.cpp

; 15   : CombFilter::~CombFilter() {}

	mov	QWORD PTR [rcx], rbp
	call	??1Delay@@QEAA@XZ			; Delay::~Delay
; File E:\FoxSuite\fox-suite-blocks\src\Freeverb.cpp

; 73   :     for (int i = 0; i < NUM_COMB_FILTERS; i++) {

	add	rsi, 88					; 00000058H
	cmp	rsi, 704				; 000002c0H
	jl	SHORT $LL4@Freeverb
	mov	rsi, rbx
	lea	rbp, OFFSET FLAT:??_7AllPassFilter@@6B@
	mov	r14d, 192				; 000000c0H
$LL7@Freeverb:

; 80   :         apFiltersL_input[i].~AllPassFilter();

	mov	rcx, QWORD PTR [rdi+128]
	add	rcx, rsi
; File E:\FoxSuite\fox-suite-blocks\src\AllPassFilter.cpp

; 10   : AllPassFilter::~AllPassFilter() {}

	mov	QWORD PTR [rcx], rbp
	call	??1Delay@@QEAA@XZ			; Delay::~Delay
; File E:\FoxSuite\fox-suite-blocks\src\Freeverb.cpp

; 81   :         apFiltersR_input[i].~AllPassFilter();

	mov	rcx, QWORD PTR [rdi+136]
	add	rcx, rsi
; File E:\FoxSuite\fox-suite-blocks\src\AllPassFilter.cpp

; 10   : AllPassFilter::~AllPassFilter() {}

	mov	QWORD PTR [rcx], rbp
	call	??1Delay@@QEAA@XZ			; Delay::~Delay
; File E:\FoxSuite\fox-suite-blocks\src\Freeverb.cpp

; 79   :     for (int i = 0; i < NUM_ALLPASS_FILTERS_IN; i++) {

	add	rsi, 64					; 00000040H
	cmp	rsi, r14
	jl	SHORT $LL7@Freeverb
$LL10@Freeverb:

; 85   :         apFiltersL_output[i].~AllPassFilter();

	mov	rcx, QWORD PTR [rdi+144]
	add	rcx, rbx
; File E:\FoxSuite\fox-suite-blocks\src\AllPassFilter.cpp

; 10   : AllPassFilter::~AllPassFilter() {}

	mov	QWORD PTR [rcx], rbp
	call	??1Delay@@QEAA@XZ			; Delay::~Delay
; File E:\FoxSuite\fox-suite-blocks\src\Freeverb.cpp

; 86   :         apFiltersR_output[i].~AllPassFilter();

	mov	rcx, QWORD PTR [rdi+152]
	add	rcx, rbx
; File E:\FoxSuite\fox-suite-blocks\src\AllPassFilter.cpp

; 10   : AllPassFilter::~AllPassFilter() {}

	mov	QWORD PTR [rcx], rbp
	call	??1Delay@@QEAA@XZ			; Delay::~Delay
; File E:\FoxSuite\fox-suite-blocks\src\Freeverb.cpp

; 84   :     for (int i = 0; i < NUM_ALLPASS_FILTERS_OUT; i++) {

	add	rbx, 64					; 00000040H
	cmp	rbx, r14
	jl	SHORT $LL10@Freeverb

; 87   :     }    
; 88   : }

	mov	rbx, QWORD PTR [rsp+48]
	mov	rbp, QWORD PTR [rsp+56]
	mov	rsi, QWORD PTR [rsp+64]
	mov	rdi, QWORD PTR [rsp+72]
	add	rsp, 32					; 00000020H
	pop	r14
	ret	0
??1Freeverb@@QEAA@XZ ENDP				; Freeverb::~Freeverb
_TEXT	ENDS
; Function compile flags: /Ogspy
; File E:\FoxSuite\fox-suite-blocks\src\CombFilter.cpp
;	COMDAT ??_GCombFilter@@QEAAPEAXI@Z
_TEXT	SEGMENT
this$ = 48
__flags$dead$ = 56
??_GCombFilter@@QEAAPEAXI@Z PROC			; CombFilter::`scalar deleting destructor', COMDAT
$LN9:
	push	rbx
	sub	rsp, 32					; 00000020H

; 15   : CombFilter::~CombFilter() {}

	lea	rax, OFFSET FLAT:??_7CombFilter@@6B@
	mov	rbx, rcx
	mov	QWORD PTR [rcx], rax
	call	??1Delay@@QEAA@XZ			; Delay::~Delay
	mov	rax, rbx
	add	rsp, 32					; 00000020H
	pop	rbx
	ret	0
??_GCombFilter@@QEAAPEAXI@Z ENDP			; CombFilter::`scalar deleting destructor'
_TEXT	ENDS
; Function compile flags: /Ogspy
; File E:\FoxSuite\fox-suite-blocks\src\LPCombFilter.cpp
; File E:\FoxSuite\fox-suite-blocks\src\CombFilter.cpp
;	COMDAT ??_GLPCombFilter@@QEAAPEAXI@Z
_TEXT	SEGMENT
this$ = 48
__flags$dead$ = 56
??_GLPCombFilter@@QEAAPEAXI@Z PROC			; LPCombFilter::`scalar deleting destructor', COMDAT
$LN15:
	push	rbx
	sub	rsp, 32					; 00000020H
; File E:\FoxSuite\fox-suite-blocks\src\LPCombFilter.cpp

; 15   : 	lpcf_feedbackLPF->~LPFButterworth();

	mov	rax, QWORD PTR [rcx+72]
	mov	rbx, rcx
	lea	rcx, OFFSET FLAT:??_7LPFButterworth@@6B@
	mov	QWORD PTR [rax], rcx
; File E:\FoxSuite\fox-suite-blocks\src\CombFilter.cpp

; 15   : CombFilter::~CombFilter() {}

	lea	rax, OFFSET FLAT:??_7CombFilter@@6B@
	mov	rcx, rbx
	mov	QWORD PTR [rbx], rax
	call	??1Delay@@QEAA@XZ			; Delay::~Delay
	mov	rax, rbx
	add	rsp, 32					; 00000020H
	pop	rbx
	ret	0
??_GLPCombFilter@@QEAAPEAXI@Z ENDP			; LPCombFilter::`scalar deleting destructor'
_TEXT	ENDS
; Function compile flags: /Ogspy
; File E:\FoxSuite\fox-suite-blocks\src\AllPassFilter.cpp
;	COMDAT ??_GAllPassFilter@@QEAAPEAXI@Z
_TEXT	SEGMENT
this$ = 48
__flags$dead$ = 56
??_GAllPassFilter@@QEAAPEAXI@Z PROC			; AllPassFilter::`scalar deleting destructor', COMDAT
$LN9:
	push	rbx
	sub	rsp, 32					; 00000020H

; 10   : AllPassFilter::~AllPassFilter() {}

	lea	rax, OFFSET FLAT:??_7AllPassFilter@@6B@
	mov	rbx, rcx
	mov	QWORD PTR [rcx], rax
	call	??1Delay@@QEAA@XZ			; Delay::~Delay
	mov	rax, rbx
	add	rsp, 32					; 00000020H
	pop	rbx
	ret	0
??_GAllPassFilter@@QEAAPEAXI@Z ENDP			; AllPassFilter::`scalar deleting destructor'
_TEXT	ENDS
; Function compile flags: /Ogspy
; File E:\FoxSuite\fox-suite-blocks\src\Freeverb.cpp
; File E:\FoxSuite\fox-suite-blocks\src\CombFilter.cpp
; File E:\FoxSuite\fox-suite-blocks\src\Freeverb.cpp
; File E:\FoxSuite\fox-suite-blocks\src\CombFilter.cpp
; File E:\FoxSuite\fox-suite-blocks\src\Freeverb.cpp
; File E:\FoxSuite\fox-suite-blocks\src\Delay.cpp
; File E:\FoxSuite\fox-suite-blocks\src\Freeverb.cpp
; File E:\FoxSuite\fox-suite-blocks\src\Delay.cpp
; File E:\FoxSuite\fox-suite-blocks\src\Freeverb.cpp
; File E:\FoxSuite\fox-suite-blocks\src\Delay.cpp
; File E:\FoxSuite\fox-suite-blocks\src\Freeverb.cpp
; File E:\FoxSuite\fox-suite-blocks\src\Delay.cpp
; File E:\FoxSuite\fox-suite-blocks\src\Freeverb.cpp
; File E:\FoxSuite\fox-suite-blocks\src\Delay.cpp
; File E:\FoxSuite\fox-suite-blocks\src\Freeverb.cpp
; File E:\FoxSuite\fox-suite-blocks\src\Delay.cpp
; File E:\FoxSuite\fox-suite-blocks\src\Freeverb.cpp
; File E:\FoxSuite\fox-suite-blocks\src\Delay.cpp
; File E:\FoxSuite\fox-suite-blocks\src\Freeverb.cpp
; File E:\FoxSuite\fox-suite-blocks\src\Delay.cpp
; File E:\FoxSuite\fox-suite-blocks\src\Freeverb.cpp
; File E:\FoxSuite\fox-suite-blocks\src\Delay.cpp
; File E:\FoxSuite\fox-suite-blocks\src\Freeverb.cpp
; File E:\FoxSuite\fox-suite-blocks\src\Delay.cpp
; File E:\FoxSuite\fox-suite-blocks\src\Freeverb.cpp
; File E:\FoxSuite\fox-suite-blocks\src\Delay.cpp
; File E:\FoxSuite\fox-suite-blocks\src\Freeverb.cpp
; File E:\FoxSuite\fox-suite-blocks\src\Delay.cpp
; File E:\FoxSuite\fox-suite-blocks\src\Freeverb.cpp
; File E:\FoxSuite\fox-suite-blocks\src\Delay.cpp
; File E:\FoxSuite\fox-suite-blocks\src\Freeverb.cpp
; File E:\FoxSuite\fox-suite-blocks\src\Delay.cpp
; File E:\FoxSuite\fox-suite-blocks\src\Freeverb.cpp
; File E:\FoxSuite\fox-suite-blocks\src\Delay.cpp
; File E:\FoxSuite\fox-suite-blocks\src\Freeverb.cpp
; File E:\FoxSuite\fox-suite-blocks\src\Delay.cpp
; File E:\FoxSuite\fox-suite-blocks\src\Freeverb.cpp
; File E:\FoxSuite\fox-suite-blocks\src\Delay.cpp
; File E:\FoxSuite\fox-suite-blocks\src\Freeverb.cpp
;	COMDAT ?init@Freeverb@@QEAAXHMMMMMM@Z
_TEXT	SEGMENT
this$ = 128
sampleRate$ = 136
rwet$ = 144
rdecay$ = 152
rdamping$ = 160
rsmearing$ = 168
rspread$ = 176
rpredelay$ = 184
?init@Freeverb@@QEAAXHMMMMMM@Z PROC			; Freeverb::init, COMDAT

; 94   : {    

$LN98:
	mov	rax, rsp
	mov	QWORD PTR [rax+8], rbx
	mov	QWORD PTR [rax+16], rbp
	mov	QWORD PTR [rax+24], rsi
	mov	QWORD PTR [rax+32], rdi
	push	r12
	push	r14
	push	r15
	sub	rsp, 96					; 00000060H

; 97   :     preDelayModule->init(MAX_PREDELAY_VALUE_IN_MS, sampleRate);

	movss	xmm1, DWORD PTR __real@43960000
	mov	rbx, rcx
	mov	rcx, QWORD PTR [rcx+40]
	mov	r8d, edx
	movaps	XMMWORD PTR [rax-40], xmm6
	mov	r15d, edx
	movaps	XMMWORD PTR [rax-56], xmm7
	movaps	XMMWORD PTR [rax-72], xmm8
	movaps	xmm8, xmm2
	movaps	XMMWORD PTR [rax-88], xmm9
	movaps	xmm9, xmm3
	mov	rax, QWORD PTR [rcx]
	call	QWORD PTR [rax]
; File E:\FoxSuite\fox-suite-blocks\src\CombFilter.cpp

; 19   : 	cf_feedbackGain = g;

	mov	rax, QWORD PTR [rbx+40]
	xor	edi, edi
; File E:\FoxSuite\fox-suite-blocks\src\Freeverb.cpp

; 97   :     preDelayModule->init(MAX_PREDELAY_VALUE_IN_MS, sampleRate);

	movss	xmm6, DWORD PTR __real@42c80000
	mov	ebp, edi
	mov	esi, edi
	mov	r14d, edi
; File E:\FoxSuite\fox-suite-blocks\src\CombFilter.cpp

; 19   : 	cf_feedbackGain = g;

	mov	DWORD PTR [rax+56], edi
; File E:\FoxSuite\fox-suite-blocks\src\Freeverb.cpp

; 97   :     preDelayModule->init(MAX_PREDELAY_VALUE_IN_MS, sampleRate);

	lea	r12d, QWORD PTR [rdi+8]
$LL4@init:

; 102  :         combFiltersL[i].init(MAX_COMB_FILTER_LENGTH_IN_MS, sampleRate);

	mov	rax, QWORD PTR [rbx+48]
	mov	r8d, r15d
	movaps	xmm1, xmm6
	mov	rdx, QWORD PTR [rax+rsi]
	lea	rcx, QWORD PTR [rax+r14]
	call	QWORD PTR [rdx]

; 103  :         combFiltersL[i].setMakeUpGaindB(-12.0);

	mov	rcx, QWORD PTR [rbx+48]
	add	rcx, rsi
; File E:\FoxSuite\fox-suite-blocks\src\Delay.cpp

; 140  : 	dly_makeUpGaindB = gaindB;

	mov	DWORD PTR [rcx+48], -1052770304		; c1400000H

; 141  : 
; 142  : 	// update parameters
; 143  : 	updateParameters();

	call	?updateParameters@Delay@@QEAAXXZ	; Delay::updateParameters
; File E:\FoxSuite\fox-suite-blocks\src\Freeverb.cpp

; 105  :         combFiltersR[i].init(MAX_COMB_FILTER_LENGTH_IN_MS, sampleRate);

	mov	rax, QWORD PTR [rbx+56]
	mov	r8d, r15d
	movaps	xmm1, xmm6
	mov	rdx, QWORD PTR [rax+rsi]
	lea	rcx, QWORD PTR [rax+r14]
	call	QWORD PTR [rdx]

; 106  :         combFiltersR[i].setMakeUpGaindB(-12.0);

	mov	rcx, QWORD PTR [rbx+56]
	add	rcx, rsi
; File E:\FoxSuite\fox-suite-blocks\src\Delay.cpp

; 140  : 	dly_makeUpGaindB = gaindB;

	mov	DWORD PTR [rcx+48], -1052770304		; c1400000H

; 141  : 
; 142  : 	// update parameters
; 143  : 	updateParameters();

	call	?updateParameters@Delay@@QEAAXXZ	; Delay::updateParameters
; File E:\FoxSuite\fox-suite-blocks\src\Freeverb.cpp

; 109  :         if (i > 0) {

	test	ebp, ebp
	je	SHORT $LN2@init

; 110  :             combFiltersL[i].setFeedbackToNegative();

	mov	rax, QWORD PTR [rbx+48]
	or	DWORD PTR [rax+rsi+64], -1

; 111  :             combFiltersR[i].setFeedbackToNegative();

	mov	rax, QWORD PTR [rbx+56]
	or	DWORD PTR [rax+rsi+64], -1
$LN2@init:

; 98   :     preDelayModule->setFeedback(0.0);
; 99   : 
; 100  :     // init comb filters
; 101  :     for (int i = 0; i < NUM_COMB_FILTERS; i++) {

	inc	ebp
	add	r14, 88					; 00000058H
	add	rsi, 88					; 00000058H
	cmp	ebp, r12d
	jl	SHORT $LL4@init

; 267  :     for (int i = 0; i < NUM_COMB_FILTERS; i++) {

	movss	xmm7, DWORD PTR __real@3f800000
	lea	rsi, QWORD PTR [rbx+64]
	mov	r14, rdi
$LL22@init:

; 268  :         combFilterDlymsRight[i] = combFilterDlymsLeft[i] + STEREO_SPREAD_COEFFICIENT_IN_MS;

	movss	xmm1, DWORD PTR [rsi+32]
	movaps	xmm0, xmm1
	addss	xmm0, xmm7
	movss	DWORD PTR [rsi], xmm0

; 269  :         combFiltersL[i].setDelayInmsec(combFilterDlymsLeft[i]);

	mov	rcx, QWORD PTR [rbx+48]
	add	rcx, r14
	movd	xmm0, DWORD PTR [rcx+16]
; File E:\FoxSuite\fox-suite-blocks\src\Delay.cpp

; 130  : 	if (dly_delayInmsec > dly_lineLengthInmsec)

	cvtdq2ps xmm0, xmm0
	movss	DWORD PTR [rcx+24], xmm1
	comiss	xmm1, xmm0
	jbe	SHORT $LN85@init

; 131  : 		dly_delayInmsec = dly_lineLengthInmsec;

	movss	DWORD PTR [rcx+24], xmm0
$LN85@init:

; 134  : 	updateParameters();

	call	?updateParameters@Delay@@QEAAXXZ	; Delay::updateParameters
; File E:\FoxSuite\fox-suite-blocks\src\Freeverb.cpp

; 270  :         combFiltersR[i].setDelayInmsec(combFilterDlymsRight[i]);

	mov	rcx, QWORD PTR [rbx+56]
; File E:\FoxSuite\fox-suite-blocks\src\Delay.cpp

; 128  : 	dly_delayInmsec = delayInmsec;

	movss	xmm0, DWORD PTR [rsi]
; File E:\FoxSuite\fox-suite-blocks\src\Freeverb.cpp

; 270  :         combFiltersR[i].setDelayInmsec(combFilterDlymsRight[i]);

	add	rcx, r14
	movd	xmm1, DWORD PTR [rcx+16]
; File E:\FoxSuite\fox-suite-blocks\src\Delay.cpp

; 130  : 	if (dly_delayInmsec > dly_lineLengthInmsec)

	cvtdq2ps xmm1, xmm1
	movss	DWORD PTR [rcx+24], xmm0
	comiss	xmm0, xmm1
	jbe	SHORT $LN86@init

; 131  : 		dly_delayInmsec = dly_lineLengthInmsec;

	movss	DWORD PTR [rcx+24], xmm1
$LN86@init:

; 134  : 	updateParameters();

	call	?updateParameters@Delay@@QEAAXXZ	; Delay::updateParameters
; File E:\FoxSuite\fox-suite-blocks\src\Freeverb.cpp

; 267  :     for (int i = 0; i < NUM_COMB_FILTERS; i++) {

	add	rsi, 4
	add	r14, 88					; 00000058H
	sub	r12, 1
	jne	SHORT $LL22@init
; File E:\FoxSuite\fox-suite-blocks\src\Delay.cpp

; 131  : 		dly_delayInmsec = dly_lineLengthInmsec;

	movss	xmm6, DWORD PTR __real@42480000
	lea	ebp, QWORD PTR [r12+3]
	mov	r12d, ebp
	mov	rsi, rdi
	mov	r14, rdi
$LL7@init:
; File E:\FoxSuite\fox-suite-blocks\src\Freeverb.cpp

; 120  :         apFiltersL_input[i].init(MAX_AP_FILTER_LENGTH_IN_MS, sampleRate);

	mov	rax, QWORD PTR [rbx+128]
	mov	r8d, r15d
	movaps	xmm1, xmm6
	mov	rdx, QWORD PTR [rax+rsi]
	lea	rcx, QWORD PTR [rax+r14]
	call	QWORD PTR [rdx]

; 121  :         apFiltersR_input[i].init(MAX_AP_FILTER_LENGTH_IN_MS, sampleRate);

	mov	rax, QWORD PTR [rbx+136]
	mov	r8d, r15d
	movaps	xmm1, xmm6
	mov	rdx, QWORD PTR [rax+rsi]
	lea	rcx, QWORD PTR [rax+r14]
	call	QWORD PTR [rdx]
	lea	r14, QWORD PTR [r14+64]
	lea	rsi, QWORD PTR [rsi+64]
	sub	r12, 1
	jne	SHORT $LL7@init
; File E:\FoxSuite\fox-suite-blocks\src\Delay.cpp

; 131  : 		dly_delayInmsec = dly_lineLengthInmsec;

	mov	rsi, rdi
	mov	r14, rdi
	mov	r12, rbp
$LL10@init:
; File E:\FoxSuite\fox-suite-blocks\src\Freeverb.cpp

; 125  :         apFiltersL_output[i].init(MAX_AP_FILTER_LENGTH_IN_MS, sampleRate);

	mov	rax, QWORD PTR [rbx+144]
	mov	r8d, r15d
	movaps	xmm1, xmm6
	mov	rdx, QWORD PTR [rax+rsi]
	lea	rcx, QWORD PTR [rax+r14]
	call	QWORD PTR [rdx]

; 126  :         apFiltersR_output[i].init(MAX_AP_FILTER_LENGTH_IN_MS, sampleRate);

	mov	rax, QWORD PTR [rbx+152]
	mov	r8d, r15d
	movaps	xmm1, xmm6
	mov	rdx, QWORD PTR [rax+rsi]
	lea	rcx, QWORD PTR [rax+r14]
	call	QWORD PTR [rdx]
	lea	r14, QWORD PTR [r14+64]
	lea	rsi, QWORD PTR [rsi+64]
	sub	r12, 1
	jne	SHORT $LL10@init
; File E:\FoxSuite\fox-suite-blocks\src\Delay.cpp

; 131  : 		dly_delayInmsec = dly_lineLengthInmsec;

	mov	r14, rdi
	lea	rsi, QWORD PTR [rbx+160]
	mov	r15, rbp
$LL33@init:
; File E:\FoxSuite\fox-suite-blocks\src\Freeverb.cpp

; 281  :         allPassDlymsRight_input[i] = allPassDlymsLeft_input[i] + STEREO_SPREAD_COEFFICIENT_IN_MS;

	movss	xmm1, DWORD PTR [rsi+12]
	movaps	xmm0, xmm1
	addss	xmm0, xmm7
	movss	DWORD PTR [rsi], xmm0

; 282  :         apFiltersL_input[i].setDelayInmsec(allPassDlymsLeft_input[i]);

	mov	rcx, QWORD PTR [rbx+128]
	add	rcx, r14
	movd	xmm0, DWORD PTR [rcx+16]
; File E:\FoxSuite\fox-suite-blocks\src\Delay.cpp

; 130  : 	if (dly_delayInmsec > dly_lineLengthInmsec)

	cvtdq2ps xmm0, xmm0
	movss	DWORD PTR [rcx+24], xmm1
	comiss	xmm1, xmm0
	jbe	SHORT $LN87@init

; 131  : 		dly_delayInmsec = dly_lineLengthInmsec;

	movss	DWORD PTR [rcx+24], xmm0
$LN87@init:

; 134  : 	updateParameters();

	call	?updateParameters@Delay@@QEAAXXZ	; Delay::updateParameters
; File E:\FoxSuite\fox-suite-blocks\src\Freeverb.cpp

; 283  :         apFiltersR_input[i].setDelayInmsec(allPassDlymsRight_input[i]);

	mov	rcx, QWORD PTR [rbx+136]
; File E:\FoxSuite\fox-suite-blocks\src\Delay.cpp

; 128  : 	dly_delayInmsec = delayInmsec;

	movss	xmm0, DWORD PTR [rsi]
; File E:\FoxSuite\fox-suite-blocks\src\Freeverb.cpp

; 283  :         apFiltersR_input[i].setDelayInmsec(allPassDlymsRight_input[i]);

	add	rcx, r14
	movd	xmm1, DWORD PTR [rcx+16]
; File E:\FoxSuite\fox-suite-blocks\src\Delay.cpp

; 130  : 	if (dly_delayInmsec > dly_lineLengthInmsec)

	cvtdq2ps xmm1, xmm1
	movss	DWORD PTR [rcx+24], xmm0
	comiss	xmm0, xmm1
	jbe	SHORT $LN88@init

; 131  : 		dly_delayInmsec = dly_lineLengthInmsec;

	movss	DWORD PTR [rcx+24], xmm1
$LN88@init:

; 134  : 	updateParameters();

	call	?updateParameters@Delay@@QEAAXXZ	; Delay::updateParameters
; File E:\FoxSuite\fox-suite-blocks\src\Freeverb.cpp

; 280  :     for (int i = 0; i < NUM_ALLPASS_FILTERS_IN; i++) {

	add	rsi, 4
	add	r14, 64					; 00000040H
	sub	r15, 1
	jne	SHORT $LL33@init
; File E:\FoxSuite\fox-suite-blocks\src\Delay.cpp

; 131  : 		dly_delayInmsec = dly_lineLengthInmsec;

	lea	rsi, QWORD PTR [rbx+184]
$LL36@init:
; File E:\FoxSuite\fox-suite-blocks\src\Freeverb.cpp

; 287  :         allPassDlymsRight_output[i] = allPassDlymsLeft_output[i] + STEREO_SPREAD_COEFFICIENT_IN_MS;

	movss	xmm1, DWORD PTR [rsi+12]
	movaps	xmm0, xmm1
	addss	xmm0, xmm7
	movss	DWORD PTR [rsi], xmm0

; 288  :         apFiltersL_output[i].setDelayInmsec(allPassDlymsLeft_output[i]);

	mov	rcx, QWORD PTR [rbx+144]
	add	rcx, rdi
	movd	xmm0, DWORD PTR [rcx+16]
; File E:\FoxSuite\fox-suite-blocks\src\Delay.cpp

; 130  : 	if (dly_delayInmsec > dly_lineLengthInmsec)

	cvtdq2ps xmm0, xmm0
	movss	DWORD PTR [rcx+24], xmm1
	comiss	xmm1, xmm0
	jbe	SHORT $LN89@init

; 131  : 		dly_delayInmsec = dly_lineLengthInmsec;

	movss	DWORD PTR [rcx+24], xmm0
$LN89@init:

; 134  : 	updateParameters();

	call	?updateParameters@Delay@@QEAAXXZ	; Delay::updateParameters
; File E:\FoxSuite\fox-suite-blocks\src\Freeverb.cpp

; 289  :         apFiltersR_output[i].setDelayInmsec(allPassDlymsRight_output[i]);

	mov	rcx, QWORD PTR [rbx+152]
; File E:\FoxSuite\fox-suite-blocks\src\Delay.cpp

; 128  : 	dly_delayInmsec = delayInmsec;

	movss	xmm0, DWORD PTR [rsi]
; File E:\FoxSuite\fox-suite-blocks\src\Freeverb.cpp

; 289  :         apFiltersR_output[i].setDelayInmsec(allPassDlymsRight_output[i]);

	add	rcx, rdi
	movd	xmm1, DWORD PTR [rcx+16]
; File E:\FoxSuite\fox-suite-blocks\src\Delay.cpp

; 130  : 	if (dly_delayInmsec > dly_lineLengthInmsec)

	cvtdq2ps xmm1, xmm1
	movss	DWORD PTR [rcx+24], xmm0
	comiss	xmm0, xmm1
	jbe	SHORT $LN90@init

; 131  : 		dly_delayInmsec = dly_lineLengthInmsec;

	movss	DWORD PTR [rcx+24], xmm1
$LN90@init:

; 134  : 	updateParameters();

	call	?updateParameters@Delay@@QEAAXXZ	; Delay::updateParameters
; File E:\FoxSuite\fox-suite-blocks\src\Freeverb.cpp

; 286  :     for (int i = 0; i < NUM_ALLPASS_FILTERS_OUT; i++) {

	add	rsi, 4
	add	rdi, 64					; 00000040H
	sub	rbp, 1
	jne	SHORT $LL36@init

; 250  :     return minvalue + value * (maxValue - minvalue);

	movss	xmm1, DWORD PTR [rbx+20]

; 127  :     }
; 128  : 
; 129  :     // set all pass filters delays
; 130  :     setAllPassFiltersDelay();
; 131  : 
; 132  :     /*.......................................*/
; 133  :     // initialize reverb plug-in parameters
; 134  :     setReverbWet(rwet);
; 135  :     setReverbDecayInSeconds(rdecay);

	mov	rcx, rbx

; 298  :     wet1 = freeverb_wet * (width / 2.0 + 0.5);

	movss	xmm6, DWORD PTR __real@3f000000

; 250  :     return minvalue + value * (maxValue - minvalue);

	addss	xmm1, xmm1

; 170  :     freeverb_wet = wet;

	movss	DWORD PTR [rbx], xmm8

; 250  :     return minvalue + value * (maxValue - minvalue);

	subss	xmm1, xmm7

; 298  :     wet1 = freeverb_wet * (width / 2.0 + 0.5);

	movaps	xmm0, xmm1
	addss	xmm0, xmm7
	mulss	xmm0, xmm6
	mulss	xmm0, xmm8
	movss	DWORD PTR [rbx+24], xmm0

; 299  :     wet2 = freeverb_wet * (1 - width) / 2.0;

	movaps	xmm0, xmm7
	subss	xmm0, xmm1

; 127  :     }
; 128  : 
; 129  :     // set all pass filters delays
; 130  :     setAllPassFiltersDelay();
; 131  : 
; 132  :     /*.......................................*/
; 133  :     // initialize reverb plug-in parameters
; 134  :     setReverbWet(rwet);
; 135  :     setReverbDecayInSeconds(rdecay);

	movaps	xmm1, xmm9

; 299  :     wet2 = freeverb_wet * (1 - width) / 2.0;

	mulss	xmm0, xmm8
	mulss	xmm0, xmm6
	movss	DWORD PTR [rbx+28], xmm0

; 300  :     dry = (1.0 - freeverb_wet);

	movaps	xmm0, xmm7
	subss	xmm0, xmm8
	movss	DWORD PTR [rbx+32], xmm0

; 127  :     }
; 128  : 
; 129  :     // set all pass filters delays
; 130  :     setAllPassFiltersDelay();
; 131  : 
; 132  :     /*.......................................*/
; 133  :     // initialize reverb plug-in parameters
; 134  :     setReverbWet(rwet);
; 135  :     setReverbDecayInSeconds(rdecay);

	call	?setReverbDecayInSeconds@Freeverb@@QEAAXM@Z ; Freeverb::setReverbDecayInSeconds

; 136  :     setReverbDampingFrequency(rdamping);

	movss	xmm1, DWORD PTR rdamping$[rsp]
	mov	rcx, rbx
	call	?setReverbDampingFrequency@Freeverb@@QEAAXM@Z ; Freeverb::setReverbDampingFrequency

; 137  :     setReverbSmearing(rsmearing);

	movss	xmm1, DWORD PTR rsmearing$[rsp]
	mov	rcx, rbx
	call	?setReverbSmearing@Freeverb@@QEAAXM@Z	; Freeverb::setReverbSmearing

; 214  :     freeverb_spread = spread;

	movss	xmm2, DWORD PTR rspread$[rsp]

; 299  :     wet2 = freeverb_wet * (1 - width) / 2.0;

	movaps	xmm1, xmm7

; 209  :     preDelayModule->setDelayInmsec(freeverb_preDelayMilliSeconds);

	mov	rcx, QWORD PTR [rbx+40]

; 214  :     freeverb_spread = spread;

	movss	DWORD PTR [rbx+20], xmm2

; 250  :     return minvalue + value * (maxValue - minvalue);

	addss	xmm2, xmm2
	subss	xmm2, xmm7

; 299  :     wet2 = freeverb_wet * (1 - width) / 2.0;

	subss	xmm1, xmm2
	movaps	xmm0, xmm2
	addss	xmm0, xmm7

; 300  :     dry = (1.0 - freeverb_wet);

	subss	xmm7, DWORD PTR [rbx]
	mulss	xmm1, DWORD PTR [rbx]
	mulss	xmm0, xmm6
	mulss	xmm1, xmm6
	mulss	xmm0, DWORD PTR [rbx]
	movss	DWORD PTR [rbx+28], xmm1
	movss	DWORD PTR [rbx+32], xmm7
	movss	DWORD PTR [rbx+24], xmm0

; 208  :     freeverb_preDelayMilliSeconds = predelay;

	movss	xmm0, DWORD PTR rpredelay$[rsp]
	movss	DWORD PTR [rbx+16], xmm0
	movd	xmm1, DWORD PTR [rcx+16]
; File E:\FoxSuite\fox-suite-blocks\src\Delay.cpp

; 130  : 	if (dly_delayInmsec > dly_lineLengthInmsec)

	cvtdq2ps xmm1, xmm1
	movss	DWORD PTR [rcx+24], xmm0
	comiss	xmm0, xmm1
	jbe	SHORT $LN65@init

; 131  : 		dly_delayInmsec = dly_lineLengthInmsec;

	movss	DWORD PTR [rcx+24], xmm1
$LN65@init:
; File E:\FoxSuite\fox-suite-blocks\src\Freeverb.cpp

; 140  : }

	movaps	xmm6, XMMWORD PTR [rsp+80]
	lea	r11, QWORD PTR [rsp+96]
	mov	rbx, QWORD PTR [r11+32]
	mov	rbp, QWORD PTR [r11+40]
	mov	rsi, QWORD PTR [r11+48]
	mov	rdi, QWORD PTR [r11+56]
	movaps	xmm8, XMMWORD PTR [r11-48]
	movaps	xmm9, XMMWORD PTR [r11-64]
	movaps	xmm7, XMMWORD PTR [rsp+64]
	mov	rsp, r11
	pop	r15
	pop	r14
	pop	r12
; File E:\FoxSuite\fox-suite-blocks\src\Delay.cpp

; 134  : 	updateParameters();

	jmp	?updateParameters@Delay@@QEAAXXZ	; Delay::updateParameters
?init@Freeverb@@QEAAXHMMMMMM@Z ENDP			; Freeverb::init
_TEXT	ENDS
; Function compile flags: /Ogspy
; File E:\FoxSuite\fox-suite-blocks\src\Freeverb.cpp
;	COMDAT ?setSampleRate@Freeverb@@QEAAXH@Z
_TEXT	SEGMENT
this$ = 64
sampleRate$ = 72
?setSampleRate@Freeverb@@QEAAXH@Z PROC			; Freeverb::setSampleRate, COMDAT

; 146  : {

$LN25:
	mov	rax, rsp
	mov	QWORD PTR [rax+8], rbx
	mov	QWORD PTR [rax+16], rbp
	mov	QWORD PTR [rax+24], rsi
	mov	QWORD PTR [rax+32], rdi
	push	r12
	push	r14
	push	r15
	sub	rsp, 32					; 00000020H
	mov	rbp, rcx
	mov	esi, edx

; 147  :     // Call setSampleRate methods on all needed delay lines
; 148  :     preDelayModule->setSampleRate(sampleRate);

	mov	rcx, QWORD PTR [rcx+40]
	mov	rax, QWORD PTR [rcx]
	call	QWORD PTR [rax+8]
	xor	ebx, ebx
	mov	edi, ebx
	mov	r14d, ebx
	lea	r15d, QWORD PTR [rbx+8]
$LL4@setSampleR:

; 149  : 
; 150  :     for (int i = 0; i < NUM_COMB_FILTERS; i++) {
; 151  :         combFiltersL[i].setSampleRate(sampleRate);

	mov	rax, QWORD PTR [rbp+48]
	mov	edx, esi
	mov	r8, QWORD PTR [rdi+rax]
	lea	rcx, QWORD PTR [r14+rax]
	call	QWORD PTR [r8+8]

; 152  :         combFiltersR[i].setSampleRate(sampleRate);

	mov	rax, QWORD PTR [rbp+56]
	mov	edx, esi
	mov	r8, QWORD PTR [rdi+rax]
	lea	rcx, QWORD PTR [r14+rax]
	call	QWORD PTR [r8+8]
	lea	r14, QWORD PTR [r14+88]
	lea	rdi, QWORD PTR [rdi+88]
	sub	r15, 1
	jne	SHORT $LL4@setSampleR

; 153  :     }
; 154  : 
; 155  :     for (int i = 0; i < NUM_ALLPASS_FILTERS_IN; i++) {

	mov	r14d, 3
	mov	rdi, rbx
	mov	r12d, r14d
	mov	r15, rbx
$LL7@setSampleR:

; 156  :         apFiltersL_input[i].setSampleRate(sampleRate);

	mov	rax, QWORD PTR [rbp+128]
	mov	edx, esi
	mov	r8, QWORD PTR [rdi+rax]
	lea	rcx, QWORD PTR [r15+rax]
	call	QWORD PTR [r8+8]

; 157  :         apFiltersR_input[i].setSampleRate(sampleRate);

	mov	rax, QWORD PTR [rbp+136]
	mov	edx, esi
	mov	r8, QWORD PTR [rdi+rax]
	lea	rcx, QWORD PTR [r15+rax]
	call	QWORD PTR [r8+8]
	lea	r15, QWORD PTR [r15+64]
	lea	rdi, QWORD PTR [rdi+64]
	sub	r12, 1
	jne	SHORT $LL7@setSampleR

; 158  :     }
; 159  : 
; 160  :     for (int i = 0; i < NUM_ALLPASS_FILTERS_OUT; i++) {

	mov	rdi, rbx
$LL10@setSampleR:

; 161  :         apFiltersL_output[i].setSampleRate(sampleRate);

	mov	rax, QWORD PTR [rbp+144]
	mov	edx, esi
	mov	r8, QWORD PTR [rbx+rax]
	lea	rcx, QWORD PTR [rdi+rax]
	call	QWORD PTR [r8+8]

; 162  :         apFiltersR_output[i].setSampleRate(sampleRate);

	mov	rax, QWORD PTR [rbp+152]
	mov	edx, esi
	mov	r8, QWORD PTR [rbx+rax]
	lea	rcx, QWORD PTR [rdi+rax]
	call	QWORD PTR [r8+8]
	lea	rdi, QWORD PTR [rdi+64]
	lea	rbx, QWORD PTR [rbx+64]
	sub	r14, 1
	jne	SHORT $LL10@setSampleR

; 163  :     }
; 164  : }

	mov	rbx, QWORD PTR [rsp+64]
	mov	rbp, QWORD PTR [rsp+72]
	mov	rsi, QWORD PTR [rsp+80]
	mov	rdi, QWORD PTR [rsp+88]
	add	rsp, 32					; 00000020H
	pop	r15
	pop	r14
	pop	r12
	ret	0
?setSampleRate@Freeverb@@QEAAXH@Z ENDP			; Freeverb::setSampleRate
_TEXT	ENDS
; Function compile flags: /Ogspy
; File E:\FoxSuite\fox-suite-blocks\src\Freeverb.cpp
;	COMDAT ?setReverbWet@Freeverb@@QEAAXM@Z
_TEXT	SEGMENT
this$ = 8
wet$ = 16
?setReverbWet@Freeverb@@QEAAXM@Z PROC			; Freeverb::setReverbWet, COMDAT

; 250  :     return minvalue + value * (maxValue - minvalue);

	movss	xmm4, DWORD PTR __real@3f800000
	movss	xmm3, DWORD PTR [rcx+20]
	addss	xmm3, xmm3

; 170  :     freeverb_wet = wet;

	movss	DWORD PTR [rcx], xmm1

; 250  :     return minvalue + value * (maxValue - minvalue);

	subss	xmm3, xmm4

; 298  :     wet1 = freeverb_wet * (width / 2.0 + 0.5);

	movaps	xmm0, xmm3
	addss	xmm0, xmm4
	mulss	xmm0, DWORD PTR __real@3f000000
	mulss	xmm0, xmm1
	movss	DWORD PTR [rcx+24], xmm0

; 299  :     wet2 = freeverb_wet * (1 - width) / 2.0;

	movaps	xmm0, xmm4
	subss	xmm0, xmm3

; 300  :     dry = (1.0 - freeverb_wet);

	subss	xmm4, xmm1
	mulss	xmm0, xmm1
	movss	DWORD PTR [rcx+32], xmm4
	mulss	xmm0, DWORD PTR __real@3f000000
	movss	DWORD PTR [rcx+28], xmm0

; 171  :     updateReverbParameters();
; 172  : }

	ret	0
?setReverbWet@Freeverb@@QEAAXM@Z ENDP			; Freeverb::setReverbWet
_TEXT	ENDS
; Function compile flags: /Ogspy
; File E:\FoxSuite\fox-suite-blocks\src\Freeverb.cpp
;	COMDAT ?setReverbSmearing@Freeverb@@QEAAXM@Z
_TEXT	SEGMENT
this$ = 8
smearing$ = 16
?setReverbSmearing@Freeverb@@QEAAXM@Z PROC		; Freeverb::setReverbSmearing, COMDAT

; 176  :     freeverb_smearing = smearing * MAX_SMEARING_VALUE;

	xorps	xmm0, xmm0
	xor	r8d, r8d
	cvtss2sd xmm0, xmm1
	mov	rdx, rcx
	mov	r9d, r8d
	mov	r10d, 192				; 000000c0H
	mulsd	xmm0, QWORD PTR __real@3fef0a3d70a3d70a
	cvtpd2ps xmm0, xmm0
	movss	DWORD PTR [rcx+4], xmm0
$LL4@setReverbS:

; 177  :     for (int i = 0; i < NUM_ALLPASS_FILTERS_IN; i++) {
; 178  :         apFiltersL_input[i].setFeedback(freeverb_smearing);

	mov	rcx, QWORD PTR [rdx+128]
	mov	eax, DWORD PTR [rdx+4]
	mov	DWORD PTR [rcx+r9+56], eax

; 179  :         apFiltersR_input[i].setFeedback(freeverb_smearing);

	mov	rcx, QWORD PTR [rdx+136]
	mov	eax, DWORD PTR [rdx+4]
	mov	DWORD PTR [rcx+r9+56], eax
	add	r9, 64					; 00000040H
	cmp	r9, r10
	jl	SHORT $LL4@setReverbS
$LL7@setReverbS:

; 180  :     }
; 181  : 
; 182  :     for (int i = 0; i < NUM_ALLPASS_FILTERS_OUT; i++) {
; 183  :         apFiltersL_output[i].setFeedback(freeverb_smearing);

	mov	rcx, QWORD PTR [rdx+144]
	mov	eax, DWORD PTR [rdx+4]
	mov	DWORD PTR [rcx+r8+56], eax

; 184  :         apFiltersR_output[i].setFeedback(freeverb_smearing);

	mov	rcx, QWORD PTR [rdx+152]
	mov	eax, DWORD PTR [rdx+4]
	mov	DWORD PTR [r8+rcx+56], eax
	add	r8, 64					; 00000040H
	cmp	r8, r10
	jl	SHORT $LL7@setReverbS

; 185  :     }
; 186  : }

	ret	0
?setReverbSmearing@Freeverb@@QEAAXM@Z ENDP		; Freeverb::setReverbSmearing
_TEXT	ENDS
; Function compile flags: /Ogspy
; File E:\FoxSuite\fox-suite-blocks\src\Freeverb.cpp
;	COMDAT ?setReverbDecayInSeconds@Freeverb@@QEAAXM@Z
_TEXT	SEGMENT
this$ = 48
decay$ = 56
?setReverbDecayInSeconds@Freeverb@@QEAAXM@Z PROC	; Freeverb::setReverbDecayInSeconds, COMDAT

; 189  : {

$LN11:
	mov	QWORD PTR [rsp+8], rbx
	mov	QWORD PTR [rsp+16], rsi
	push	rdi
	sub	rsp, 32					; 00000020H

; 190  :     freeverb_decaySeconds = decay;

	xor	edi, edi
	movss	DWORD PTR [rcx+8], xmm1
	mov	rbx, rcx
	lea	esi, QWORD PTR [rdi+8]
$LL4@setReverbD:

; 191  :     for (int i = 0; i < NUM_COMB_FILTERS; i++) {
; 192  :         combFiltersL[i].setFeedbackFromDecay(freeverb_decaySeconds);

	mov	rcx, QWORD PTR [rbx+48]
	movss	xmm1, DWORD PTR [rbx+8]
	add	rcx, rdi
	call	?setFeedbackFromDecay@CombFilter@@QEAAXM@Z ; CombFilter::setFeedbackFromDecay

; 193  :         combFiltersR[i].setFeedbackFromDecay(freeverb_decaySeconds);

	mov	rcx, QWORD PTR [rbx+56]
	movss	xmm1, DWORD PTR [rbx+8]
	add	rcx, rdi
	call	?setFeedbackFromDecay@CombFilter@@QEAAXM@Z ; CombFilter::setFeedbackFromDecay
	add	rdi, 88					; 00000058H
	sub	rsi, 1
	jne	SHORT $LL4@setReverbD

; 194  :     }
; 195  : }

	mov	rbx, QWORD PTR [rsp+48]
	mov	rsi, QWORD PTR [rsp+56]
	add	rsp, 32					; 00000020H
	pop	rdi
	ret	0
?setReverbDecayInSeconds@Freeverb@@QEAAXM@Z ENDP	; Freeverb::setReverbDecayInSeconds
_TEXT	ENDS
; Function compile flags: /Ogspy
; File E:\FoxSuite\fox-suite-blocks\src\Freeverb.cpp
; File E:\FoxSuite\fox-suite-blocks\src\LPCombFilter.cpp
; File E:\FoxSuite\fox-suite-blocks\src\LPFButterworth.cpp
; File E:\FoxSuite\fox-suite-blocks\src\Freeverb.cpp
; File E:\FoxSuite\fox-suite-blocks\src\LPCombFilter.cpp
; File E:\FoxSuite\fox-suite-blocks\src\LPFButterworth.cpp
; File E:\FoxSuite\fox-suite-blocks\src\Freeverb.cpp
;	COMDAT ?setReverbDampingFrequency@Freeverb@@QEAAXM@Z
_TEXT	SEGMENT
this$ = 48
damping$ = 56
?setReverbDampingFrequency@Freeverb@@QEAAXM@Z PROC	; Freeverb::setReverbDampingFrequency, COMDAT

; 198  : {

$LN19:
	mov	QWORD PTR [rsp+8], rbx
	push	rdi
	sub	rsp, 32					; 00000020H

; 199  :     freeverb_dampingFrequency = damping;

	movss	DWORD PTR [rcx+12], xmm1
	mov	rdi, rcx
	xor	ebx, ebx
$LL4@setReverbD:

; 201  :         combFiltersL[i].setCutoffFrequency(freeverb_dampingFrequency);

	mov	rcx, QWORD PTR [rdi+48]
; File E:\FoxSuite\fox-suite-blocks\src\LPCombFilter.cpp

; 30   : 	lpcf_cutoffFreq = cutoffFreq;

	movss	xmm0, DWORD PTR [rdi+12]
	movss	DWORD PTR [rbx+rcx+80], xmm0

; 31   : 
; 32   : 	// set LPF cutoff frequency to the inserted value
; 33   : 	lpcf_feedbackLPF->setCutoffFrequency(lpcf_cutoffFreq);

	mov	rcx, QWORD PTR [rbx+rcx+72]
; File E:\FoxSuite\fox-suite-blocks\src\LPFButterworth.cpp

; 40   : 	lpf_cutoffFreq = cutoffFreq;

	movss	DWORD PTR [rcx+8], xmm0

; 41   : 
; 42   : 	// update lpf gains
; 43   : 	updateGains();

	call	?updateGains@LPFButterworth@@QEAAXXZ	; LPFButterworth::updateGains
; File E:\FoxSuite\fox-suite-blocks\src\Freeverb.cpp

; 202  :         combFiltersR[i].setCutoffFrequency(freeverb_dampingFrequency);

	mov	rcx, QWORD PTR [rdi+56]
; File E:\FoxSuite\fox-suite-blocks\src\LPCombFilter.cpp

; 30   : 	lpcf_cutoffFreq = cutoffFreq;

	movss	xmm0, DWORD PTR [rdi+12]
	movss	DWORD PTR [rbx+rcx+80], xmm0

; 31   : 
; 32   : 	// set LPF cutoff frequency to the inserted value
; 33   : 	lpcf_feedbackLPF->setCutoffFrequency(lpcf_cutoffFreq);

	mov	rcx, QWORD PTR [rbx+rcx+72]
; File E:\FoxSuite\fox-suite-blocks\src\LPFButterworth.cpp

; 40   : 	lpf_cutoffFreq = cutoffFreq;

	movss	DWORD PTR [rcx+8], xmm0

; 41   : 
; 42   : 	// update lpf gains
; 43   : 	updateGains();

	call	?updateGains@LPFButterworth@@QEAAXXZ	; LPFButterworth::updateGains
; File E:\FoxSuite\fox-suite-blocks\src\Freeverb.cpp

; 200  :     for (int i = 0; i < NUM_COMB_FILTERS; i++) {

	add	rbx, 88					; 00000058H
	cmp	rbx, 704				; 000002c0H
	jl	SHORT $LL4@setReverbD

; 203  :     }
; 204  : }

	mov	rbx, QWORD PTR [rsp+48]
	add	rsp, 32					; 00000020H
	pop	rdi
	ret	0
?setReverbDampingFrequency@Freeverb@@QEAAXM@Z ENDP	; Freeverb::setReverbDampingFrequency
_TEXT	ENDS
; Function compile flags: /Ogspy
; File E:\FoxSuite\fox-suite-blocks\src\Freeverb.cpp
; File E:\FoxSuite\fox-suite-blocks\src\Delay.cpp
; File E:\FoxSuite\fox-suite-blocks\src\Freeverb.cpp
;	COMDAT ?setReverbPreDelayInMilliseconds@Freeverb@@QEAAXM@Z
_TEXT	SEGMENT
this$ = 8
predelay$ = 16
?setReverbPreDelayInMilliseconds@Freeverb@@QEAAXM@Z PROC ; Freeverb::setReverbPreDelayInMilliseconds, COMDAT

; 208  :     freeverb_preDelayMilliSeconds = predelay;

	movss	DWORD PTR [rcx+16], xmm1

; 209  :     preDelayModule->setDelayInmsec(freeverb_preDelayMilliSeconds);

	mov	rcx, QWORD PTR [rcx+40]
	movd	xmm0, DWORD PTR [rcx+16]
; File E:\FoxSuite\fox-suite-blocks\src\Delay.cpp

; 130  : 	if (dly_delayInmsec > dly_lineLengthInmsec)

	cvtdq2ps xmm0, xmm0
	movss	DWORD PTR [rcx+24], xmm1
	comiss	xmm1, xmm0
	jbe	SHORT $LN4@setReverbP

; 131  : 		dly_delayInmsec = dly_lineLengthInmsec;

	movss	DWORD PTR [rcx+24], xmm0
$LN4@setReverbP:

; 132  : 
; 133  : 	// Update parameters based on new delay length
; 134  : 	updateParameters();

	jmp	?updateParameters@Delay@@QEAAXXZ	; Delay::updateParameters
?setReverbPreDelayInMilliseconds@Freeverb@@QEAAXM@Z ENDP ; Freeverb::setReverbPreDelayInMilliseconds
_TEXT	ENDS
; Function compile flags: /Ogspy
; File E:\FoxSuite\fox-suite-blocks\src\Freeverb.cpp
;	COMDAT ?setReverbSpread@Freeverb@@QEAAXM@Z
_TEXT	SEGMENT
this$ = 8
spread$ = 16
?setReverbSpread@Freeverb@@QEAAXM@Z PROC		; Freeverb::setReverbSpread, COMDAT

; 250  :     return minvalue + value * (maxValue - minvalue);

	movss	xmm3, DWORD PTR __real@3f800000

; 214  :     freeverb_spread = spread;

	movss	DWORD PTR [rcx+20], xmm1

; 250  :     return minvalue + value * (maxValue - minvalue);

	addss	xmm1, xmm1
	subss	xmm1, xmm3

; 298  :     wet1 = freeverb_wet * (width / 2.0 + 0.5);

	movaps	xmm0, xmm1
	addss	xmm0, xmm3
	mulss	xmm0, DWORD PTR __real@3f000000
	mulss	xmm0, DWORD PTR [rcx]
	movss	DWORD PTR [rcx+24], xmm0

; 299  :     wet2 = freeverb_wet * (1 - width) / 2.0;

	movaps	xmm0, xmm3

; 300  :     dry = (1.0 - freeverb_wet);

	subss	xmm3, DWORD PTR [rcx]
	subss	xmm0, xmm1
	movss	DWORD PTR [rcx+32], xmm3
	mulss	xmm0, DWORD PTR [rcx]
	mulss	xmm0, DWORD PTR __real@3f000000
	movss	DWORD PTR [rcx+28], xmm0

; 215  :     updateReverbParameters();
; 216  : }

	ret	0
?setReverbSpread@Freeverb@@QEAAXM@Z ENDP		; Freeverb::setReverbSpread
_TEXT	ENDS
; Function compile flags: /Ogspy
; File E:\FoxSuite\fox-suite-blocks\src\Freeverb.cpp
;	COMDAT ?mapValueIntoRange@Freeverb@@QEAAMMMM@Z
_TEXT	SEGMENT
this$dead$ = 8
value$ = 16
minvalue$dead$ = 24
maxValue$dead$ = 32
?mapValueIntoRange@Freeverb@@QEAAMMMM@Z PROC		; Freeverb::mapValueIntoRange, COMDAT

; 250  :     return minvalue + value * (maxValue - minvalue);

	addss	xmm1, xmm1
	subss	xmm1, DWORD PTR __real@3f800000
	movaps	xmm0, xmm1

; 251  : }

	ret	0
?mapValueIntoRange@Freeverb@@QEAAMMMM@Z ENDP		; Freeverb::mapValueIntoRange
_TEXT	ENDS
; Function compile flags: /Ogspy
; File E:\FoxSuite\fox-suite-blocks\src\Freeverb.cpp
; File E:\FoxSuite\fox-suite-blocks\src\Delay.cpp
; File E:\FoxSuite\fox-suite-blocks\src\Freeverb.cpp
; File E:\FoxSuite\fox-suite-blocks\src\Delay.cpp
; File E:\FoxSuite\fox-suite-blocks\src\Freeverb.cpp
; File E:\FoxSuite\fox-suite-blocks\src\Delay.cpp
; File E:\FoxSuite\fox-suite-blocks\src\Freeverb.cpp
;	COMDAT ?setCombFiltersDelay@Freeverb@@QEAAXXZ
_TEXT	SEGMENT
this$ = 48
?setCombFiltersDelay@Freeverb@@QEAAXXZ PROC		; Freeverb::setCombFiltersDelay, COMDAT

; 265  : {    

$LN19:
	mov	QWORD PTR [rsp+8], rbx
	mov	QWORD PTR [rsp+16], rbp
	mov	QWORD PTR [rsp+24], rsi
	push	rdi
	sub	rsp, 32					; 00000020H

; 267  :     for (int i = 0; i < NUM_COMB_FILTERS; i++) {

	xor	edi, edi
	lea	rbx, QWORD PTR [rcx+64]
	mov	rsi, rcx
	lea	ebp, QWORD PTR [rdi+8]
$LL4@setCombFil:

; 268  :         combFilterDlymsRight[i] = combFilterDlymsLeft[i] + STEREO_SPREAD_COEFFICIENT_IN_MS;

	movss	xmm1, DWORD PTR [rbx+32]

; 269  :         combFiltersL[i].setDelayInmsec(combFilterDlymsLeft[i]);

	mov	rcx, QWORD PTR [rsi+48]
	movaps	xmm0, xmm1
	addss	xmm0, DWORD PTR __real@3f800000
	add	rcx, rdi
	movss	DWORD PTR [rbx], xmm0
	movd	xmm0, DWORD PTR [rcx+16]
; File E:\FoxSuite\fox-suite-blocks\src\Delay.cpp

; 130  : 	if (dly_delayInmsec > dly_lineLengthInmsec)

	cvtdq2ps xmm0, xmm0
	movss	DWORD PTR [rcx+24], xmm1
	comiss	xmm1, xmm0
	jbe	SHORT $LN15@setCombFil

; 131  : 		dly_delayInmsec = dly_lineLengthInmsec;

	movss	DWORD PTR [rcx+24], xmm0
$LN15@setCombFil:

; 132  : 
; 133  : 	// Update parameters based on new delay length
; 134  : 	updateParameters();

	call	?updateParameters@Delay@@QEAAXXZ	; Delay::updateParameters
; File E:\FoxSuite\fox-suite-blocks\src\Freeverb.cpp

; 270  :         combFiltersR[i].setDelayInmsec(combFilterDlymsRight[i]);

	mov	rcx, QWORD PTR [rsi+56]
; File E:\FoxSuite\fox-suite-blocks\src\Delay.cpp

; 128  : 	dly_delayInmsec = delayInmsec;

	movss	xmm0, DWORD PTR [rbx]
; File E:\FoxSuite\fox-suite-blocks\src\Freeverb.cpp

; 270  :         combFiltersR[i].setDelayInmsec(combFilterDlymsRight[i]);

	add	rcx, rdi
	movd	xmm1, DWORD PTR [rcx+16]
; File E:\FoxSuite\fox-suite-blocks\src\Delay.cpp

; 130  : 	if (dly_delayInmsec > dly_lineLengthInmsec)

	cvtdq2ps xmm1, xmm1
	movss	DWORD PTR [rcx+24], xmm0
	comiss	xmm0, xmm1
	jbe	SHORT $LN16@setCombFil

; 131  : 		dly_delayInmsec = dly_lineLengthInmsec;

	movss	DWORD PTR [rcx+24], xmm1
$LN16@setCombFil:

; 132  : 
; 133  : 	// Update parameters based on new delay length
; 134  : 	updateParameters();

	call	?updateParameters@Delay@@QEAAXXZ	; Delay::updateParameters
; File E:\FoxSuite\fox-suite-blocks\src\Freeverb.cpp

; 267  :     for (int i = 0; i < NUM_COMB_FILTERS; i++) {

	add	rbx, 4
	add	rdi, 88					; 00000058H
	sub	rbp, 1
	jne	SHORT $LL4@setCombFil

; 271  :     }
; 272  : }

	mov	rbx, QWORD PTR [rsp+48]
	mov	rbp, QWORD PTR [rsp+56]
	mov	rsi, QWORD PTR [rsp+64]
	add	rsp, 32					; 00000020H
	pop	rdi
	ret	0
?setCombFiltersDelay@Freeverb@@QEAAXXZ ENDP		; Freeverb::setCombFiltersDelay
_TEXT	ENDS
; Function compile flags: /Ogspy
; File E:\FoxSuite\fox-suite-blocks\src\Freeverb.cpp
; File E:\FoxSuite\fox-suite-blocks\src\Delay.cpp
; File E:\FoxSuite\fox-suite-blocks\src\Freeverb.cpp
; File E:\FoxSuite\fox-suite-blocks\src\Delay.cpp
; File E:\FoxSuite\fox-suite-blocks\src\Freeverb.cpp
; File E:\FoxSuite\fox-suite-blocks\src\Delay.cpp
; File E:\FoxSuite\fox-suite-blocks\src\Freeverb.cpp
; File E:\FoxSuite\fox-suite-blocks\src\Delay.cpp
; File E:\FoxSuite\fox-suite-blocks\src\Freeverb.cpp
; File E:\FoxSuite\fox-suite-blocks\src\Delay.cpp
; File E:\FoxSuite\fox-suite-blocks\src\Freeverb.cpp
; File E:\FoxSuite\fox-suite-blocks\src\Delay.cpp
; File E:\FoxSuite\fox-suite-blocks\src\Freeverb.cpp
; File E:\FoxSuite\fox-suite-blocks\src\Delay.cpp
; File E:\FoxSuite\fox-suite-blocks\src\Freeverb.cpp
;	COMDAT ?setAllPassFiltersDelay@Freeverb@@QEAAXXZ
_TEXT	SEGMENT
this$ = 64
?setAllPassFiltersDelay@Freeverb@@QEAAXXZ PROC		; Freeverb::setAllPassFiltersDelay, COMDAT

; 278  : {

$LN34:
	mov	QWORD PTR [rsp+8], rbx
	mov	QWORD PTR [rsp+16], rbp
	mov	QWORD PTR [rsp+24], rsi
	push	rdi
	push	r14
	push	r15
	sub	rsp, 32					; 00000020H

; 280  :     for (int i = 0; i < NUM_ALLPASS_FILTERS_IN; i++) {

	xor	esi, esi
	lea	rbx, QWORD PTR [rcx+160]
	mov	rdi, rcx
	mov	r14d, esi
	lea	ebp, QWORD PTR [rsi+3]
	mov	r15d, ebp
$LL4@setAllPass:

; 281  :         allPassDlymsRight_input[i] = allPassDlymsLeft_input[i] + STEREO_SPREAD_COEFFICIENT_IN_MS;

	movss	xmm1, DWORD PTR [rbx+12]

; 282  :         apFiltersL_input[i].setDelayInmsec(allPassDlymsLeft_input[i]);

	mov	rcx, QWORD PTR [rdi+128]
	movaps	xmm0, xmm1
	addss	xmm0, DWORD PTR __real@3f800000
	add	rcx, r14
	movss	DWORD PTR [rbx], xmm0
	movd	xmm0, DWORD PTR [rcx+16]
; File E:\FoxSuite\fox-suite-blocks\src\Delay.cpp

; 130  : 	if (dly_delayInmsec > dly_lineLengthInmsec)

	cvtdq2ps xmm0, xmm0
	movss	DWORD PTR [rcx+24], xmm1
	comiss	xmm1, xmm0
	jbe	SHORT $LN27@setAllPass

; 131  : 		dly_delayInmsec = dly_lineLengthInmsec;

	movss	DWORD PTR [rcx+24], xmm0
$LN27@setAllPass:

; 132  : 
; 133  : 	// Update parameters based on new delay length
; 134  : 	updateParameters();

	call	?updateParameters@Delay@@QEAAXXZ	; Delay::updateParameters
; File E:\FoxSuite\fox-suite-blocks\src\Freeverb.cpp

; 283  :         apFiltersR_input[i].setDelayInmsec(allPassDlymsRight_input[i]);

	mov	rcx, QWORD PTR [rdi+136]
; File E:\FoxSuite\fox-suite-blocks\src\Delay.cpp

; 128  : 	dly_delayInmsec = delayInmsec;

	movss	xmm0, DWORD PTR [rbx]
; File E:\FoxSuite\fox-suite-blocks\src\Freeverb.cpp

; 283  :         apFiltersR_input[i].setDelayInmsec(allPassDlymsRight_input[i]);

	add	rcx, r14
	movd	xmm1, DWORD PTR [rcx+16]
; File E:\FoxSuite\fox-suite-blocks\src\Delay.cpp

; 130  : 	if (dly_delayInmsec > dly_lineLengthInmsec)

	cvtdq2ps xmm1, xmm1
	movss	DWORD PTR [rcx+24], xmm0
	comiss	xmm0, xmm1
	jbe	SHORT $LN28@setAllPass

; 131  : 		dly_delayInmsec = dly_lineLengthInmsec;

	movss	DWORD PTR [rcx+24], xmm1
$LN28@setAllPass:

; 132  : 
; 133  : 	// Update parameters based on new delay length
; 134  : 	updateParameters();

	call	?updateParameters@Delay@@QEAAXXZ	; Delay::updateParameters
; File E:\FoxSuite\fox-suite-blocks\src\Freeverb.cpp

; 280  :     for (int i = 0; i < NUM_ALLPASS_FILTERS_IN; i++) {

	add	rbx, 4
	add	r14, 64					; 00000040H
	sub	r15, 1
	jne	SHORT $LL4@setAllPass
; File E:\FoxSuite\fox-suite-blocks\src\Delay.cpp

; 131  : 		dly_delayInmsec = dly_lineLengthInmsec;

	lea	rbx, QWORD PTR [rdi+184]
$LL7@setAllPass:
; File E:\FoxSuite\fox-suite-blocks\src\Freeverb.cpp

; 287  :         allPassDlymsRight_output[i] = allPassDlymsLeft_output[i] + STEREO_SPREAD_COEFFICIENT_IN_MS;

	movss	xmm1, DWORD PTR [rbx+12]

; 288  :         apFiltersL_output[i].setDelayInmsec(allPassDlymsLeft_output[i]);

	mov	rcx, QWORD PTR [rdi+144]
	movaps	xmm0, xmm1
	addss	xmm0, DWORD PTR __real@3f800000
	add	rcx, rsi
	movss	DWORD PTR [rbx], xmm0
	movd	xmm0, DWORD PTR [rcx+16]
; File E:\FoxSuite\fox-suite-blocks\src\Delay.cpp

; 130  : 	if (dly_delayInmsec > dly_lineLengthInmsec)

	cvtdq2ps xmm0, xmm0
	movss	DWORD PTR [rcx+24], xmm1
	comiss	xmm1, xmm0
	jbe	SHORT $LN29@setAllPass

; 131  : 		dly_delayInmsec = dly_lineLengthInmsec;

	movss	DWORD PTR [rcx+24], xmm0
$LN29@setAllPass:

; 132  : 
; 133  : 	// Update parameters based on new delay length
; 134  : 	updateParameters();

	call	?updateParameters@Delay@@QEAAXXZ	; Delay::updateParameters
; File E:\FoxSuite\fox-suite-blocks\src\Freeverb.cpp

; 289  :         apFiltersR_output[i].setDelayInmsec(allPassDlymsRight_output[i]);

	mov	rcx, QWORD PTR [rdi+152]
; File E:\FoxSuite\fox-suite-blocks\src\Delay.cpp

; 128  : 	dly_delayInmsec = delayInmsec;

	movss	xmm0, DWORD PTR [rbx]
; File E:\FoxSuite\fox-suite-blocks\src\Freeverb.cpp

; 289  :         apFiltersR_output[i].setDelayInmsec(allPassDlymsRight_output[i]);

	add	rcx, rsi
	movd	xmm1, DWORD PTR [rcx+16]
; File E:\FoxSuite\fox-suite-blocks\src\Delay.cpp

; 130  : 	if (dly_delayInmsec > dly_lineLengthInmsec)

	cvtdq2ps xmm1, xmm1
	movss	DWORD PTR [rcx+24], xmm0
	comiss	xmm0, xmm1
	jbe	SHORT $LN30@setAllPass

; 131  : 		dly_delayInmsec = dly_lineLengthInmsec;

	movss	DWORD PTR [rcx+24], xmm1
$LN30@setAllPass:

; 132  : 
; 133  : 	// Update parameters based on new delay length
; 134  : 	updateParameters();

	call	?updateParameters@Delay@@QEAAXXZ	; Delay::updateParameters
; File E:\FoxSuite\fox-suite-blocks\src\Freeverb.cpp

; 286  :     for (int i = 0; i < NUM_ALLPASS_FILTERS_OUT; i++) {

	add	rbx, 4
	add	rsi, 64					; 00000040H
	sub	rbp, 1
	jne	SHORT $LL7@setAllPass

; 290  :     }
; 291  : }

	mov	rbx, QWORD PTR [rsp+64]
	mov	rbp, QWORD PTR [rsp+72]
	mov	rsi, QWORD PTR [rsp+80]
	add	rsp, 32					; 00000020H
	pop	r15
	pop	r14
	pop	rdi
	ret	0
?setAllPassFiltersDelay@Freeverb@@QEAAXXZ ENDP		; Freeverb::setAllPassFiltersDelay
_TEXT	ENDS
; Function compile flags: /Ogspy
; File E:\FoxSuite\fox-suite-blocks\src\Freeverb.cpp
;	COMDAT ?updateReverbParameters@Freeverb@@QEAAXXZ
_TEXT	SEGMENT
this$ = 8
?updateReverbParameters@Freeverb@@QEAAXXZ PROC		; Freeverb::updateReverbParameters, COMDAT

; 250  :     return minvalue + value * (maxValue - minvalue);

	movss	xmm3, DWORD PTR __real@3f800000
	movss	xmm2, DWORD PTR [rcx+20]
	addss	xmm2, xmm2
	subss	xmm2, xmm3

; 297  :     float width = mapValueIntoRange(freeverb_spread, -1.0, 1.0);
; 298  :     wet1 = freeverb_wet * (width / 2.0 + 0.5);

	movaps	xmm0, xmm2
	addss	xmm0, xmm3
	mulss	xmm0, DWORD PTR __real@3f000000
	mulss	xmm0, DWORD PTR [rcx]
	movss	DWORD PTR [rcx+24], xmm0

; 299  :     wet2 = freeverb_wet * (1 - width) / 2.0;

	movaps	xmm0, xmm3

; 300  :     dry = (1.0 - freeverb_wet);

	subss	xmm3, DWORD PTR [rcx]
	subss	xmm0, xmm2
	movss	DWORD PTR [rcx+32], xmm3
	mulss	xmm0, DWORD PTR [rcx]
	mulss	xmm0, DWORD PTR __real@3f000000
	movss	DWORD PTR [rcx+28], xmm0

; 301  : }

	ret	0
?updateReverbParameters@Freeverb@@QEAAXXZ ENDP		; Freeverb::updateReverbParameters
_TEXT	ENDS
; Function compile flags: /Ogspy
; File E:\FoxSuite\fox-suite-blocks\src\Freeverb.cpp
;	COMDAT ?processAudio@Freeverb@@QEAAXPEAM0@Z
_TEXT	SEGMENT
this$ = 160
in$ = 168
out$ = 176
?processAudio@Freeverb@@QEAAXPEAM0@Z PROC		; Freeverb::processAudio, COMDAT

; 308  : {

$LN25:
	mov	rax, rsp
	mov	QWORD PTR [rax+8], rbx
	mov	QWORD PTR [rax+16], rbp
	mov	QWORD PTR [rax+24], rsi
	mov	QWORD PTR [rax+32], rdi
	push	r12
	push	r14
	push	r15
	sub	rsp, 128				; 00000080H
	movaps	XMMWORD PTR [rax-40], xmm6
	mov	rbx, rcx

; 309  :     float inL = in[0];
; 310  :     float inR = in[1];
; 311  : 
; 312  :     // Init output values
; 313  :     float outputL = 0;
; 314  :     float outputR = 0;
; 315  : 
; 316  :     // Init input values
; 317  :     float inputL = 0;
; 318  :     float inputR = 0;
; 319  : 
; 320  :     // Compute mono input from Left and Right inputs
; 321  :     float input_mono = (inL + inR) / 2.0;
; 322  : 
; 323  :     // Pre-delay processing 
; 324  :     inputL = preDelayModule->processAudio(input_mono);

	mov	rcx, QWORD PTR [rcx+40]
	mov	r15, r8
	movaps	XMMWORD PTR [rax-56], xmm7
	xorps	xmm7, xmm7
	movaps	XMMWORD PTR [rax-72], xmm8
	xorps	xmm8, xmm8
	movaps	XMMWORD PTR [rax-88], xmm9
	movaps	XMMWORD PTR [rax-104], xmm10
	movss	xmm10, DWORD PTR [rdx]
	movaps	XMMWORD PTR [rax-120], xmm11
	movss	xmm11, DWORD PTR [rdx+4]
	mov	rax, QWORD PTR [rcx]
	movaps	xmm6, xmm11
	addss	xmm6, xmm10
	mulss	xmm6, DWORD PTR __real@3f000000
	movaps	xmm1, xmm6
	call	QWORD PTR [rax+16]

; 325  :     inputR = preDelayModule->processAudio(input_mono);

	mov	rcx, QWORD PTR [rbx+40]
	movaps	xmm1, xmm6
	movaps	xmm9, xmm0
	mov	rax, QWORD PTR [rcx]
	call	QWORD PTR [rax+16]
	xor	edi, edi
	movaps	xmm6, xmm0
	mov	esi, edi
	mov	r14d, edi
	lea	r12d, QWORD PTR [rdi+3]
	mov	ebp, r12d
$LL4@processAud:

; 326  : 
; 327  :     // Input AllPass Filters series processing
; 328  :     for (int j = 0; j < NUM_ALLPASS_FILTERS_IN; j++) {
; 329  :         inputL = apFiltersL_input[j].processAudio(inputL);

	mov	rax, QWORD PTR [rbx+128]
	movaps	xmm1, xmm9
	mov	rdx, QWORD PTR [rsi+rax]
	lea	rcx, QWORD PTR [r14+rax]
	call	QWORD PTR [rdx+16]

; 330  :         inputR = apFiltersR_input[j].processAudio(inputR);

	mov	rax, QWORD PTR [rbx+136]
	movaps	xmm1, xmm6
	movaps	xmm9, xmm0
	mov	rdx, QWORD PTR [rsi+rax]
	lea	rcx, QWORD PTR [r14+rax]
	call	QWORD PTR [rdx+16]
	lea	r14, QWORD PTR [r14+64]
	movaps	xmm6, xmm0
	lea	rsi, QWORD PTR [rsi+64]
	sub	rbp, 1
	jne	SHORT $LL4@processAud

; 331  :     }
; 332  : 
; 333  :     // Comb Filters parallel processing
; 334  :     for (int j = 0; j < NUM_COMB_FILTERS; j++) {

	mov	rsi, rdi
	mov	r14, rdi
	mov	ebp, 8
$LL7@processAud:

; 335  :         outputL += combFiltersL[j].processAudio(inputL);

	mov	rax, QWORD PTR [rbx+48]
	movaps	xmm1, xmm9
	mov	rdx, QWORD PTR [rsi+rax]
	lea	rcx, QWORD PTR [r14+rax]
	call	QWORD PTR [rdx+16]

; 336  :         outputR += combFiltersR[j].processAudio(inputR);

	mov	rax, QWORD PTR [rbx+56]
	movaps	xmm1, xmm6
	addss	xmm7, xmm0
	mov	rdx, QWORD PTR [rsi+rax]
	lea	rcx, QWORD PTR [r14+rax]
	call	QWORD PTR [rdx+16]
	add	r14, 88					; 00000058H
	add	rsi, 88					; 00000058H
	addss	xmm8, xmm0
	sub	rbp, 1
	jne	SHORT $LL7@processAud

; 337  :     }
; 338  : 
; 339  :     // Output AllPass Filters series processing
; 340  :     for (int j = 0; j < NUM_ALLPASS_FILTERS_OUT; j++) {

	mov	rsi, rdi
$LL10@processAud:

; 341  :         outputL = apFiltersL_output[j].processAudio(outputL);

	mov	rax, QWORD PTR [rbx+144]
	movaps	xmm1, xmm7
	mov	rdx, QWORD PTR [rdi+rax]
	lea	rcx, QWORD PTR [rsi+rax]
	call	QWORD PTR [rdx+16]

; 342  :         outputR = apFiltersR_output[j].processAudio(outputR);

	mov	rax, QWORD PTR [rbx+152]
	movaps	xmm1, xmm8
	movaps	xmm7, xmm0
	mov	rdx, QWORD PTR [rdi+rax]
	lea	rcx, QWORD PTR [rsi+rax]
	call	QWORD PTR [rdx+16]
	lea	rsi, QWORD PTR [rsi+64]
	movaps	xmm8, xmm0
	lea	rdi, QWORD PTR [rdi+64]
	sub	r12, 1
	jne	SHORT $LL10@processAud

; 343  :     }    
; 344  : 
; 345  :     // Stereo spread processing + output allocation
; 346  :     out[0] = wet1 * outputL + wet2 * outputR + dry * inL;

	movss	xmm3, DWORD PTR [rbx+28]

; 347  :     out[1] = wet1 * outputR + wet2 * outputL + dry * inR;
; 348  : }

	lea	r11, QWORD PTR [rsp+128]
	movss	xmm5, DWORD PTR [rbx+24]
	movaps	xmm0, xmm3
	movss	xmm4, DWORD PTR [rbx+32]
	movaps	xmm2, xmm5
	mov	rbx, QWORD PTR [r11+32]
	movaps	xmm1, xmm4
	mov	rbp, QWORD PTR [r11+40]
	mov	rsi, QWORD PTR [r11+48]
	mov	rdi, QWORD PTR [r11+56]
	movaps	xmm6, XMMWORD PTR [rsp+112]
	movaps	xmm9, XMMWORD PTR [r11-64]
	mulss	xmm2, xmm7
	mulss	xmm5, xmm8
	mulss	xmm0, xmm8
	movaps	xmm8, XMMWORD PTR [r11-48]
	mulss	xmm3, xmm7
	movaps	xmm7, XMMWORD PTR [rsp+96]
	addss	xmm2, xmm0
	mulss	xmm1, xmm10
	movaps	xmm10, XMMWORD PTR [r11-80]
	addss	xmm5, xmm3
	mulss	xmm4, xmm11
	movaps	xmm11, XMMWORD PTR [r11-96]
	addss	xmm2, xmm1
	addss	xmm5, xmm4
	movss	DWORD PTR [r15], xmm2
	movss	DWORD PTR [r15+4], xmm5
	mov	rsp, r11
	pop	r15
	pop	r14
	pop	r12
	ret	0
?processAudio@Freeverb@@QEAAXPEAM0@Z ENDP		; Freeverb::processAudio
_TEXT	ENDS
END
