; Listing generated by Microsoft (R) Optimizing Compiler Version 19.29.30133.0 

include listing.inc

INCLUDELIB OLDNAMES

PUBLIC	??_C@_00CNPNBAHC@@				; `string'
PUBLIC	??_C@_03CNANKMHF@?9oo@				; `string'
PUBLIC	??_C@_05PIHGGKHA@Huge?$CB@			; `string'
PUBLIC	??_C@_01JOAMLHOP@?9@				; `string'
PUBLIC	??_7AudioEffect@@6B@				; AudioEffect::`vftable'
PUBLIC	??_R1A@?0A@EA@AudioEffect@@8			; AudioEffect::`RTTI Base Class Descriptor at (0,-1,0,64)'
PUBLIC	??_R0?AVAudioEffect@@@8				; AudioEffect `RTTI Type Descriptor'
PUBLIC	??_R4AudioEffect@@6B@				; AudioEffect::`RTTI Complete Object Locator'
PUBLIC	??_R2AudioEffect@@8				; AudioEffect::`RTTI Base Class Array'
PUBLIC	??_R3AudioEffect@@8				; AudioEffect::`RTTI Class Hierarchy Descriptor'
EXTRN	__imp_strncat:PROC
EXTRN	__imp_strncpy:PROC
EXTRN	__imp_fmod:PROC
EXTRN	__imp__purecall:PROC
EXTRN	__imp_floor:PROC
EXTRN	_purecall:PROC
;	COMDAT ??_R3AudioEffect@@8
rdata$r	SEGMENT
??_R3AudioEffect@@8 DD 00H				; AudioEffect::`RTTI Class Hierarchy Descriptor'
	DD	00H
	DD	01H
	DD	imagerel ??_R2AudioEffect@@8
rdata$r	ENDS
;	COMDAT ??_R2AudioEffect@@8
rdata$r	SEGMENT
??_R2AudioEffect@@8 DD imagerel ??_R1A@?0A@EA@AudioEffect@@8 ; AudioEffect::`RTTI Base Class Array'
	ORG $+3
rdata$r	ENDS
;	COMDAT ??_R4AudioEffect@@6B@
rdata$r	SEGMENT
??_R4AudioEffect@@6B@ DD 01H				; AudioEffect::`RTTI Complete Object Locator'
	DD	00H
	DD	00H
	DD	imagerel ??_R0?AVAudioEffect@@@8
	DD	imagerel ??_R3AudioEffect@@8
	DD	imagerel ??_R4AudioEffect@@6B@
rdata$r	ENDS
;	COMDAT ??_R0?AVAudioEffect@@@8
data$rs	SEGMENT
??_R0?AVAudioEffect@@@8 DQ FLAT:??_7type_info@@6B@	; AudioEffect `RTTI Type Descriptor'
	DQ	0000000000000000H
	DB	'.?AVAudioEffect@@', 00H
data$rs	ENDS
;	COMDAT ??_R1A@?0A@EA@AudioEffect@@8
rdata$r	SEGMENT
??_R1A@?0A@EA@AudioEffect@@8 DD imagerel ??_R0?AVAudioEffect@@@8 ; AudioEffect::`RTTI Base Class Descriptor at (0,-1,0,64)'
	DD	00H
	DD	00H
	DD	0ffffffffH
	DD	00H
	DD	040H
	DD	imagerel ??_R3AudioEffect@@8
rdata$r	ENDS
;	COMDAT ??_7AudioEffect@@6B@
CONST	SEGMENT
??_7AudioEffect@@6B@ DQ FLAT:??_R4AudioEffect@@6B@	; AudioEffect::`vftable'
	DQ	FLAT:??_EAudioEffect@@UEAAPEAXI@Z
	DQ	FLAT:?dispatcher@AudioEffect@@UEAA_JHH_JPEAXM@Z
	DQ	FLAT:?open@AudioEffect@@UEAAXXZ
	DQ	FLAT:?close@AudioEffect@@UEAAXXZ
	DQ	FLAT:?suspend@AudioEffect@@UEAAXXZ
	DQ	FLAT:?resume@AudioEffect@@UEAAXXZ
	DQ	FLAT:?setSampleRate@AudioEffect@@UEAAXM@Z
	DQ	FLAT:?setBlockSize@AudioEffect@@UEAAXH@Z
	DQ	FLAT:_purecall
	DQ	FLAT:?processDoubleReplacing@AudioEffect@@UEAAXPEAPEAN0H@Z
	DQ	FLAT:?setParameter@AudioEffect@@UEAAXHM@Z
	DQ	FLAT:?getParameter@AudioEffect@@UEAAMH@Z
	DQ	FLAT:?setParameterAutomated@AudioEffect@@UEAAXHM@Z
	DQ	FLAT:?getProgram@AudioEffect@@UEAAHXZ
	DQ	FLAT:?setProgram@AudioEffect@@UEAAXH@Z
	DQ	FLAT:?setProgramName@AudioEffect@@UEAAXPEAD@Z
	DQ	FLAT:?getProgramName@AudioEffect@@UEAAXPEAD@Z
	DQ	FLAT:?getParameterLabel@AudioEffect@@UEAAXHPEAD@Z
	DQ	FLAT:?getParameterDisplay@AudioEffect@@UEAAXHPEAD@Z
	DQ	FLAT:?getParameterName@AudioEffect@@UEAAXHPEAD@Z
	DQ	FLAT:?getChunk@AudioEffect@@UEAAHPEAPEAX_N@Z
	DQ	FLAT:?setChunk@AudioEffect@@UEAAHPEAXH_N@Z
	DQ	FLAT:?setUniqueID@AudioEffect@@UEAAXH@Z
	DQ	FLAT:?setNumInputs@AudioEffect@@UEAAXH@Z
	DQ	FLAT:?setNumOutputs@AudioEffect@@UEAAXH@Z
	DQ	FLAT:?canProcessReplacing@AudioEffect@@UEAAX_N@Z
	DQ	FLAT:?canDoubleReplacing@AudioEffect@@UEAAX_N@Z
	DQ	FLAT:?programsAreChunks@AudioEffect@@UEAAX_N@Z
	DQ	FLAT:?setInitialDelay@AudioEffect@@UEAAXH@Z
	DQ	FLAT:?getEditor@AudioEffect@@UEAAPEAVAEffEditor@@XZ
	DQ	FLAT:?getAeffect@AudioEffect@@UEAAPEAUAEffect@@XZ
	DQ	FLAT:?getSampleRate@AudioEffect@@UEAAMXZ
	DQ	FLAT:?getBlockSize@AudioEffect@@UEAAHXZ
	DQ	FLAT:?getMasterVersion@AudioEffect@@UEAAHXZ
	DQ	FLAT:?getCurrentUniqueId@AudioEffect@@UEAAHXZ
	DQ	FLAT:?masterIdle@AudioEffect@@UEAAXXZ
	DQ	FLAT:?dB2string@AudioEffect@@UEAAXMPEADH@Z
	DQ	FLAT:?Hz2string@AudioEffect@@UEAAXMPEADH@Z
	DQ	FLAT:?ms2string@AudioEffect@@UEAAXMPEADH@Z
	DQ	FLAT:?float2string@AudioEffect@@UEAAXMPEADH@Z
	DQ	FLAT:?int2string@AudioEffect@@UEAAXHPEADH@Z
	DQ	FLAT:?__processDeprecated@AudioEffect@@UEAAXPEAPEAM0H@Z
	DQ	FLAT:?__getVuDeprecated@AudioEffect@@UEAAMXZ
	DQ	FLAT:?__hasVuDeprecated@AudioEffect@@UEAAX_N@Z
	DQ	FLAT:?__hasClipDeprecated@AudioEffect@@UEAAX_N@Z
	DQ	FLAT:?__canMonoDeprecated@AudioEffect@@UEAAX_N@Z
	DQ	FLAT:?__setRealtimeQualitiesDeprecated@AudioEffect@@UEAAXH@Z
	DQ	FLAT:?__setOfflineQualitiesDeprecated@AudioEffect@@UEAAXH@Z
	DQ	FLAT:?__isInputConnectedDeprecated@AudioEffect@@UEAA_NH@Z
	DQ	FLAT:?__isOutputConnectedDeprecated@AudioEffect@@UEAA_NH@Z
CONST	ENDS
;	COMDAT ??_C@_01JOAMLHOP@?9@
CONST	SEGMENT
??_C@_01JOAMLHOP@?9@ DB '-', 00H			; `string'
CONST	ENDS
;	COMDAT ??_C@_05PIHGGKHA@Huge?$CB@
CONST	SEGMENT
??_C@_05PIHGGKHA@Huge?$CB@ DB 'Huge!', 00H		; `string'
CONST	ENDS
;	COMDAT ??_C@_03CNANKMHF@?9oo@
CONST	SEGMENT
??_C@_03CNANKMHF@?9oo@ DB '-oo', 00H			; `string'
CONST	ENDS
;	COMDAT ??_C@_00CNPNBAHC@@
CONST	SEGMENT
??_C@_00CNPNBAHC@@ DB 00H				; `string'
PUBLIC	?int2string@AudioEffect@@UEAAXHPEADH@Z		; AudioEffect::int2string
PUBLIC	?float2string@AudioEffect@@UEAAXMPEADH@Z	; AudioEffect::float2string
PUBLIC	?ms2string@AudioEffect@@UEAAXMPEADH@Z		; AudioEffect::ms2string
PUBLIC	?Hz2string@AudioEffect@@UEAAXMPEADH@Z		; AudioEffect::Hz2string
PUBLIC	?dB2string@AudioEffect@@UEAAXMPEADH@Z		; AudioEffect::dB2string
PUBLIC	?setInitialDelay@AudioEffect@@UEAAXH@Z		; AudioEffect::setInitialDelay
PUBLIC	?__setOfflineQualitiesDeprecated@AudioEffect@@UEAAXH@Z ; AudioEffect::__setOfflineQualitiesDeprecated
PUBLIC	?__setRealtimeQualitiesDeprecated@AudioEffect@@UEAAXH@Z ; AudioEffect::__setRealtimeQualitiesDeprecated
PUBLIC	?programsAreChunks@AudioEffect@@UEAAX_N@Z	; AudioEffect::programsAreChunks
PUBLIC	?canDoubleReplacing@AudioEffect@@UEAAX_N@Z	; AudioEffect::canDoubleReplacing
PUBLIC	?canProcessReplacing@AudioEffect@@UEAAX_N@Z	; AudioEffect::canProcessReplacing
PUBLIC	?__canMonoDeprecated@AudioEffect@@UEAAX_N@Z	; AudioEffect::__canMonoDeprecated
PUBLIC	?__hasClipDeprecated@AudioEffect@@UEAAX_N@Z	; AudioEffect::__hasClipDeprecated
PUBLIC	?__hasVuDeprecated@AudioEffect@@UEAAX_N@Z	; AudioEffect::__hasVuDeprecated
PUBLIC	?setParameterAutomated@AudioEffect@@UEAAXHM@Z	; AudioEffect::setParameterAutomated
PUBLIC	?__isOutputConnectedDeprecated@AudioEffect@@UEAA_NH@Z ; AudioEffect::__isOutputConnectedDeprecated
PUBLIC	?__isInputConnectedDeprecated@AudioEffect@@UEAA_NH@Z ; AudioEffect::__isInputConnectedDeprecated
PUBLIC	?masterIdle@AudioEffect@@UEAAXXZ		; AudioEffect::masterIdle
PUBLIC	?getCurrentUniqueId@AudioEffect@@UEAAHXZ	; AudioEffect::getCurrentUniqueId
PUBLIC	?getMasterVersion@AudioEffect@@UEAAHXZ		; AudioEffect::getMasterVersion
PUBLIC	?dispatcher@AudioEffect@@UEAA_JHH_JPEAXM@Z	; AudioEffect::dispatcher
PUBLIC	??1AudioEffect@@UEAA@XZ				; AudioEffect::~AudioEffect
PUBLIC	??_GAudioEffect@@UEAAPEAXI@Z			; AudioEffect::`scalar deleting destructor'
PUBLIC	??0AudioEffect@@QEAA@P6A_JPEAUAEffect@@HH_JPEAXM@ZHH@Z ; AudioEffect::AudioEffect
PUBLIC	?processClassDoubleReplacing@AudioEffect@@KAXPEAUAEffect@@PEAPEAN1H@Z ; AudioEffect::processClassDoubleReplacing
PUBLIC	?processClassReplacing@AudioEffect@@KAXPEAUAEffect@@PEAPEAM1H@Z ; AudioEffect::processClassReplacing
PUBLIC	?__processClassDeprecated@AudioEffect@@KAXPEAUAEffect@@PEAPEAM1H@Z ; AudioEffect::__processClassDeprecated
PUBLIC	?setParameterClass@AudioEffect@@KAXPEAUAEffect@@HM@Z ; AudioEffect::setParameterClass
PUBLIC	?getParameterClass@AudioEffect@@KAMPEAUAEffect@@H@Z ; AudioEffect::getParameterClass
PUBLIC	?dispatchEffectClass@AudioEffect@@KA_JPEAUAEffect@@HH_JPEAXM@Z ; AudioEffect::dispatchEffectClass
PUBLIC	?__getVuDeprecated@AudioEffect@@UEAAMXZ		; AudioEffect::__getVuDeprecated
PUBLIC	?__processDeprecated@AudioEffect@@UEAAXPEAPEAM0H@Z ; AudioEffect::__processDeprecated
PUBLIC	?getBlockSize@AudioEffect@@UEAAHXZ		; AudioEffect::getBlockSize
PUBLIC	?getSampleRate@AudioEffect@@UEAAMXZ		; AudioEffect::getSampleRate
PUBLIC	?getAeffect@AudioEffect@@UEAAPEAUAEffect@@XZ	; AudioEffect::getAeffect
PUBLIC	?getEditor@AudioEffect@@UEAAPEAVAEffEditor@@XZ	; AudioEffect::getEditor
PUBLIC	?setNumOutputs@AudioEffect@@UEAAXH@Z		; AudioEffect::setNumOutputs
PUBLIC	?setNumInputs@AudioEffect@@UEAAXH@Z		; AudioEffect::setNumInputs
PUBLIC	?setUniqueID@AudioEffect@@UEAAXH@Z		; AudioEffect::setUniqueID
PUBLIC	?setChunk@AudioEffect@@UEAAHPEAXH_N@Z		; AudioEffect::setChunk
PUBLIC	?getChunk@AudioEffect@@UEAAHPEAPEAX_N@Z		; AudioEffect::getChunk
PUBLIC	?getParameterName@AudioEffect@@UEAAXHPEAD@Z	; AudioEffect::getParameterName
PUBLIC	?getParameterDisplay@AudioEffect@@UEAAXHPEAD@Z	; AudioEffect::getParameterDisplay
PUBLIC	?getParameterLabel@AudioEffect@@UEAAXHPEAD@Z	; AudioEffect::getParameterLabel
PUBLIC	?getProgramName@AudioEffect@@UEAAXPEAD@Z	; AudioEffect::getProgramName
PUBLIC	?setProgramName@AudioEffect@@UEAAXPEAD@Z	; AudioEffect::setProgramName
PUBLIC	?setProgram@AudioEffect@@UEAAXH@Z		; AudioEffect::setProgram
PUBLIC	?getProgram@AudioEffect@@UEAAHXZ		; AudioEffect::getProgram
PUBLIC	?getParameter@AudioEffect@@UEAAMH@Z		; AudioEffect::getParameter
PUBLIC	?setParameter@AudioEffect@@UEAAXHM@Z		; AudioEffect::setParameter
PUBLIC	?processDoubleReplacing@AudioEffect@@UEAAXPEAPEAN0H@Z ; AudioEffect::processDoubleReplacing
PUBLIC	?setBlockSize@AudioEffect@@UEAAXH@Z		; AudioEffect::setBlockSize
PUBLIC	?setSampleRate@AudioEffect@@UEAAXM@Z		; AudioEffect::setSampleRate
PUBLIC	?resume@AudioEffect@@UEAAXXZ			; AudioEffect::resume
PUBLIC	?suspend@AudioEffect@@UEAAXXZ			; AudioEffect::suspend
PUBLIC	?close@AudioEffect@@UEAAXXZ			; AudioEffect::close
PUBLIC	?open@AudioEffect@@UEAAXXZ			; AudioEffect::open
PUBLIC	?vst_strncat@@YAPEADPEADPEBD_K@Z		; vst_strncat
PUBLIC	?vst_strncpy@@YAPEADPEADPEBD_K@Z		; vst_strncpy
EXTRN	??_EAudioEffect@@UEAAPEAXI@Z:PROC		; AudioEffect::`vector deleting destructor'
;	COMDAT pdata
pdata	SEGMENT
$pdata$?int2string@AudioEffect@@UEAAXHPEADH@Z DD imagerel $LN24@int2string
	DD	imagerel $LN24@int2string+197
	DD	imagerel $unwind$?int2string@AudioEffect@@UEAAXHPEADH@Z
pdata	ENDS
;	COMDAT pdata
pdata	SEGMENT
$pdata$?float2string@AudioEffect@@UEAAXMPEADH@Z DD imagerel $LN37@float2stri
	DD	imagerel $LN37@float2stri+478
	DD	imagerel $unwind$?float2string@AudioEffect@@UEAAXMPEADH@Z
pdata	ENDS
;	COMDAT pdata
pdata	SEGMENT
$pdata$?ms2string@AudioEffect@@UEAAXMPEADH@Z DD imagerel $LN4@ms2string
	DD	imagerel $LN4@ms2string+106
	DD	imagerel $unwind$?ms2string@AudioEffect@@UEAAXMPEADH@Z
pdata	ENDS
;	COMDAT pdata
pdata	SEGMENT
$pdata$?Hz2string@AudioEffect@@UEAAXMPEADH@Z DD imagerel $LN7@Hz2string
	DD	imagerel $LN7@Hz2string+101
	DD	imagerel $unwind$?Hz2string@AudioEffect@@UEAAXMPEADH@Z
pdata	ENDS
;	COMDAT pdata
pdata	SEGMENT
$pdata$?dB2string@AudioEffect@@UEAAXMPEADH@Z DD imagerel $LN8@dB2string
	DD	imagerel $LN8@dB2string+132
	DD	imagerel $unwind$?dB2string@AudioEffect@@UEAAXMPEADH@Z
pdata	ENDS
;	COMDAT pdata
pdata	SEGMENT
$pdata$?setParameterAutomated@AudioEffect@@UEAAXHM@Z DD imagerel $LN5@setParamet
	DD	imagerel $LN5@setParamet+80
	DD	imagerel $unwind$?setParameterAutomated@AudioEffect@@UEAAXHM@Z
pdata	ENDS
;	COMDAT pdata
pdata	SEGMENT
$pdata$?__isOutputConnectedDeprecated@AudioEffect@@UEAA_NH@Z DD imagerel $LN5@isOutputCo
	DD	imagerel $LN5@isOutputCo+56
	DD	imagerel $unwind$?__isOutputConnectedDeprecated@AudioEffect@@UEAA_NH@Z
pdata	ENDS
;	COMDAT pdata
pdata	SEGMENT
$pdata$?__isInputConnectedDeprecated@AudioEffect@@UEAA_NH@Z DD imagerel $LN5@isInputCon
	DD	imagerel $LN5@isInputCon+55
	DD	imagerel $unwind$?__isInputConnectedDeprecated@AudioEffect@@UEAA_NH@Z
pdata	ENDS
;	COMDAT pdata
pdata	SEGMENT
$pdata$?masterIdle@AudioEffect@@UEAAXXZ DD imagerel $LN5@masterIdle
	DD	imagerel $LN5@masterIdle+49
	DD	imagerel $unwind$?masterIdle@AudioEffect@@UEAAXXZ
pdata	ENDS
;	COMDAT pdata
pdata	SEGMENT
$pdata$?getCurrentUniqueId@AudioEffect@@UEAAHXZ DD imagerel $LN5@getCurrent
	DD	imagerel $LN5@getCurrent+50
	DD	imagerel $unwind$?getCurrentUniqueId@AudioEffect@@UEAAHXZ
pdata	ENDS
;	COMDAT pdata
pdata	SEGMENT
$pdata$?getMasterVersion@AudioEffect@@UEAAHXZ DD imagerel $LN6@getMasterV
	DD	imagerel $LN6@getMasterV+64
	DD	imagerel $unwind$?getMasterVersion@AudioEffect@@UEAAHXZ
pdata	ENDS
;	COMDAT pdata
pdata	SEGMENT
$pdata$?dispatcher@AudioEffect@@UEAA_JHH_JPEAXM@Z DD imagerel $LN36@dispatcher
	DD	imagerel $LN36@dispatcher+512
	DD	imagerel $unwind$?dispatcher@AudioEffect@@UEAA_JHH_JPEAXM@Z
pdata	ENDS
;	COMDAT pdata
pdata	SEGMENT
$pdata$??1AudioEffect@@UEAA@XZ DD imagerel $LN8@AudioEffec
	DD	imagerel $LN8@AudioEffec+38
	DD	imagerel $unwind$??1AudioEffect@@UEAA@XZ
pdata	ENDS
;	COMDAT pdata
pdata	SEGMENT
$pdata$??_GAudioEffect@@UEAAPEAXI@Z DD imagerel $LN6@scalar
	DD	imagerel $LN6@scalar+52
	DD	imagerel $unwind$??_GAudioEffect@@UEAAPEAXI@Z
pdata	ENDS
;	COMDAT pdata
pdata	SEGMENT
$pdata$??0AudioEffect@@QEAA@P6A_JPEAUAEffect@@HH_JPEAXM@ZHH@Z DD imagerel $LN8@AudioEffec
	DD	imagerel $LN8@AudioEffec+241
	DD	imagerel $unwind$??0AudioEffect@@QEAA@P6A_JPEAUAEffect@@HH_JPEAXM@ZHH@Z
pdata	ENDS
;	COMDAT pdata
pdata	SEGMENT
$pdata$?dispatchEffectClass@AudioEffect@@KA_JPEAUAEffect@@HH_JPEAXM@Z DD imagerel $LN7@dispatchEf
	DD	imagerel $LN7@dispatchEf+93
	DD	imagerel $unwind$?dispatchEffectClass@AudioEffect@@KA_JPEAUAEffect@@HH_JPEAXM@Z
pdata	ENDS
;	COMDAT pdata
pdata	SEGMENT
$pdata$?vst_strncat@@YAPEADPEADPEBD_K@Z DD imagerel $LN4@vst_strnca
	DD	imagerel $LN4@vst_strnca+37
	DD	imagerel $unwind$?vst_strncat@@YAPEADPEADPEBD_K@Z
pdata	ENDS
;	COMDAT pdata
pdata	SEGMENT
$pdata$?vst_strncpy@@YAPEADPEADPEBD_K@Z DD imagerel $LN4@vst_strncp
	DD	imagerel $LN4@vst_strncp+37
	DD	imagerel $unwind$?vst_strncpy@@YAPEADPEADPEBD_K@Z
;	COMDAT xdata
xdata	SEGMENT
$unwind$?vst_strncpy@@YAPEADPEADPEBD_K@Z DQ 00006340a00040a01r ; 8.62672e-309
	DD	07006320aH
xdata	ENDS
;	COMDAT xdata
xdata	SEGMENT
$unwind$?vst_strncat@@YAPEADPEADPEBD_K@Z DQ 00006340a00040a01r ; 8.62672e-309
	DD	07006320aH
xdata	ENDS
;	COMDAT xdata
xdata	SEGMENT
$unwind$?dispatchEffectClass@AudioEffect@@KA_JPEAUAEffect@@HH_JPEAXM@Z DQ 03002520600020601r ; 1.97773e-77
xdata	ENDS
;	COMDAT xdata
xdata	SEGMENT
$unwind$??0AudioEffect@@QEAA@P6A_JPEAUAEffect@@HH_JPEAXM@ZHH@Z DQ 00006340a00040a01r ; 8.62672e-309
	DD	07006320aH
xdata	ENDS
;	COMDAT xdata
xdata	SEGMENT
$unwind$??_GAudioEffect@@UEAAPEAXI@Z DQ 00006340a00040a01r ; 8.62672e-309
	DD	07006320aH
xdata	ENDS
;	COMDAT xdata
xdata	SEGMENT
$unwind$??1AudioEffect@@UEAA@XZ DQ 00000420400010401r ; 3.58617e-310
xdata	ENDS
;	COMDAT xdata
xdata	SEGMENT
$unwind$?dispatcher@AudioEffect@@UEAA_JHH_JPEAXM@Z DQ 03002320600020601r ; 1.96423e-77
xdata	ENDS
;	COMDAT xdata
xdata	SEGMENT
$unwind$?getMasterVersion@AudioEffect@@UEAAHXZ DQ 03002520600020601r ; 1.97773e-77
xdata	ENDS
;	COMDAT xdata
xdata	SEGMENT
$unwind$?getCurrentUniqueId@AudioEffect@@UEAAHXZ DQ 00000620400010401r ; 5.32451e-310
xdata	ENDS
;	COMDAT xdata
xdata	SEGMENT
$unwind$?masterIdle@AudioEffect@@UEAAXXZ DQ 00000620400010401r ; 5.32451e-310
xdata	ENDS
;	COMDAT xdata
xdata	SEGMENT
$unwind$?__isInputConnectedDeprecated@AudioEffect@@UEAA_NH@Z DQ 00000620400010401r ; 5.32451e-310
xdata	ENDS
;	COMDAT xdata
xdata	SEGMENT
$unwind$?__isOutputConnectedDeprecated@AudioEffect@@UEAA_NH@Z DQ 00000620400010401r ; 5.32451e-310
xdata	ENDS
;	COMDAT xdata
xdata	SEGMENT
$unwind$?setParameterAutomated@AudioEffect@@UEAAXHM@Z DQ 00003681400061401r ; 4.7374e-309
	DQ	07006720a000a340ar		; 4.35587e+231
xdata	ENDS
;	COMDAT xdata
xdata	SEGMENT
$unwind$?dB2string@AudioEffect@@UEAAXMPEADH@Z DQ 00008741500081501r ; 1.1756e-308
	DQ	00006341500076415r		; 8.62695e-309
	DD	0e0113215H
xdata	ENDS
;	COMDAT xdata
xdata	SEGMENT
$unwind$?Hz2string@AudioEffect@@UEAAXMPEADH@Z DQ 00002681a00081a01r ; 3.34685e-309
	DQ	00008340f0009640fr		; 1.14082e-308
	DD	0700b520fH
xdata	ENDS
;	COMDAT xdata
xdata	SEGMENT
$unwind$?ms2string@AudioEffect@@UEAAXMPEADH@Z DQ 00002681f000a1f01r ; 3.34696e-309
	DQ	000096415000a7415r		; 1.30597e-308
	DQ	0e011521500083415r		; -5.80579e+154
xdata	ENDS
;	COMDAT xdata
xdata	SEGMENT
$unwind$?float2string@AudioEffect@@UEAAXMPEADH@Z DQ 00004b84a00154a01r ; 6.5638e-309
	DQ	00006882d00059840r		; 9.08378e-309
	DQ	00008681f00077825r		; 1.1691e-308
	DQ	00017541b0018641br		; 3.24423e-308
	DQ	00012011b0016341br		; 2.50381e-308
	DQ	000007010e012f014r		; 6.08777e-310
xdata	ENDS
;	COMDAT xdata
xdata	SEGMENT
$unwind$?int2string@AudioEffect@@UEAAXHPEADH@Z DQ 00009641400081401r ; 1.30597e-308
	DQ	00006341400085414r		; 8.62693e-309
	DD	070103214H
END
