; Listing generated by Microsoft (R) Optimizing Compiler Version 19.29.30133.0 

include listing.inc

INCLUDELIB OLDNAMES

PUBLIC	??_C@_01LKDEMHDF@s@				; `string'
PUBLIC	??_C@_03INCOKCMB@Wet@				; `string'
PUBLIC	??_C@_07CNCNAGDO@Shimmer@			; `string'
PUBLIC	??_C@_05BFFNNFFO@Decay@				; `string'
PUBLIC	??_C@_04HIAEEHII@Damp@				; `string'
PUBLIC	??_C@_06LMOCGFEA@Spread@			; `string'
PUBLIC	??_C@_07MCAEODGB@Default@			; `string'
PUBLIC	??_C@_06PIIHCPLG@Dreamy@			; `string'
PUBLIC	??_C@_05BCAGPPBA@Short@				; `string'
PUBLIC	??_C@_08FBELJDCF@Metallic@			; `string'
PUBLIC	??_C@_06LAKOKBGJ@Wobbly@			; `string'
PUBLIC	??_C@_09KHHOPKD@Fox?5Suite@			; `string'
PUBLIC	??_R0?AVPSMVocoder@@@8				; PSMVocoder `RTTI Type Descriptor'
PUBLIC	??_7Shimmer@@6B@				; Shimmer::`vftable'
PUBLIC	??_R3PSMVocoder@@8				; PSMVocoder::`RTTI Class Hierarchy Descriptor'
PUBLIC	??_R4IAudioSignalProcessor@@6B@			; IAudioSignalProcessor::`RTTI Complete Object Locator'
PUBLIC	??_R3IAudioSignalProcessor@@8			; IAudioSignalProcessor::`RTTI Class Hierarchy Descriptor'
PUBLIC	??_R1A@?0A@EA@Shimmer@@8			; Shimmer::`RTTI Base Class Descriptor at (0,-1,0,64)'
PUBLIC	??_7IAudioSignalProcessor@@6B@			; IAudioSignalProcessor::`vftable'
PUBLIC	??_R3Shimmer@@8					; Shimmer::`RTTI Class Hierarchy Descriptor'
PUBLIC	??_R1A@?0A@EA@IAudioSignalProcessor@@8		; IAudioSignalProcessor::`RTTI Base Class Descriptor at (0,-1,0,64)'
PUBLIC	??_R4PSMVocoder@@6B@				; PSMVocoder::`RTTI Complete Object Locator'
PUBLIC	??_R1A@?0A@EA@PSMVocoder@@8			; PSMVocoder::`RTTI Base Class Descriptor at (0,-1,0,64)'
PUBLIC	??_R4Shimmer@@6B@				; Shimmer::`RTTI Complete Object Locator'
PUBLIC	??_R2Shimmer@@8					; Shimmer::`RTTI Base Class Array'
PUBLIC	??_R0?AVShimmer@@@8				; Shimmer `RTTI Type Descriptor'
PUBLIC	??_R0?AVIAudioSignalProcessor@@@8		; IAudioSignalProcessor `RTTI Type Descriptor'
PUBLIC	??_R2PSMVocoder@@8				; PSMVocoder::`RTTI Base Class Array'
PUBLIC	??_7PSMVocoder@@6B@				; PSMVocoder::`vftable'
PUBLIC	??_R2IAudioSignalProcessor@@8			; IAudioSignalProcessor::`RTTI Base Class Array'
EXTRN	__imp_round:PROC
EXTRN	__imp_atan2:PROC
EXTRN	__imp_log:PROC
EXTRN	__imp_strcpy:PROC
EXTRN	__imp_abs:PROC
;	COMDAT ??_R2IAudioSignalProcessor@@8
rdata$r	SEGMENT
??_R2IAudioSignalProcessor@@8 DD imagerel ??_R1A@?0A@EA@IAudioSignalProcessor@@8 ; IAudioSignalProcessor::`RTTI Base Class Array'
	ORG $+3
rdata$r	ENDS
;	COMDAT ??_7PSMVocoder@@6B@
CONST	SEGMENT
??_7PSMVocoder@@6B@ DQ FLAT:??_R4PSMVocoder@@6B@	; PSMVocoder::`vftable'
	DQ	FLAT:?reset@PSMVocoder@@UEAA_NN@Z
	DQ	FLAT:?processAudioSample@PSMVocoder@@UEAANN@Z
	DQ	FLAT:?canProcessAudioFrame@PSMVocoder@@UEAA_NXZ
	DQ	FLAT:?setSampleRate@IAudioSignalProcessor@@UEAAXN@Z
	DQ	FLAT:?enableAuxInput@IAudioSignalProcessor@@UEAAX_N@Z
	DQ	FLAT:?processAuxInputAudioSample@IAudioSignalProcessor@@UEAANN@Z
	DQ	FLAT:?processAudioFrame@IAudioSignalProcessor@@UEAA_NPEBMPEAMII@Z
CONST	ENDS
;	COMDAT ??_R2PSMVocoder@@8
rdata$r	SEGMENT
??_R2PSMVocoder@@8 DD imagerel ??_R1A@?0A@EA@PSMVocoder@@8 ; PSMVocoder::`RTTI Base Class Array'
	DD	imagerel ??_R1A@?0A@EA@IAudioSignalProcessor@@8
	ORG $+3
rdata$r	ENDS
;	COMDAT ??_R0?AVIAudioSignalProcessor@@@8
data$rs	SEGMENT
??_R0?AVIAudioSignalProcessor@@@8 DQ FLAT:??_7type_info@@6B@ ; IAudioSignalProcessor `RTTI Type Descriptor'
	DQ	0000000000000000H
	DB	'.?AVIAudioSignalProcessor@@', 00H
data$rs	ENDS
;	COMDAT ??_R0?AVShimmer@@@8
data$rs	SEGMENT
??_R0?AVShimmer@@@8 DQ FLAT:??_7type_info@@6B@		; Shimmer `RTTI Type Descriptor'
	DQ	0000000000000000H
	DB	'.?AVShimmer@@', 00H
data$rs	ENDS
;	COMDAT ??_R2Shimmer@@8
rdata$r	SEGMENT
??_R2Shimmer@@8 DD imagerel ??_R1A@?0A@EA@Shimmer@@8	; Shimmer::`RTTI Base Class Array'
	DD	imagerel ??_R1A@?0A@EA@AudioEffectX@@8
	DD	imagerel ??_R1A@?0A@EA@AudioEffect@@8
	ORG $+3
rdata$r	ENDS
;	COMDAT ??_R4Shimmer@@6B@
rdata$r	SEGMENT
??_R4Shimmer@@6B@ DD 01H				; Shimmer::`RTTI Complete Object Locator'
	DD	00H
	DD	00H
	DD	imagerel ??_R0?AVShimmer@@@8
	DD	imagerel ??_R3Shimmer@@8
	DD	imagerel ??_R4Shimmer@@6B@
rdata$r	ENDS
;	COMDAT ??_R1A@?0A@EA@PSMVocoder@@8
rdata$r	SEGMENT
??_R1A@?0A@EA@PSMVocoder@@8 DD imagerel ??_R0?AVPSMVocoder@@@8 ; PSMVocoder::`RTTI Base Class Descriptor at (0,-1,0,64)'
	DD	01H
	DD	00H
	DD	0ffffffffH
	DD	00H
	DD	040H
	DD	imagerel ??_R3PSMVocoder@@8
rdata$r	ENDS
;	COMDAT ??_R4PSMVocoder@@6B@
rdata$r	SEGMENT
??_R4PSMVocoder@@6B@ DD 01H				; PSMVocoder::`RTTI Complete Object Locator'
	DD	00H
	DD	00H
	DD	imagerel ??_R0?AVPSMVocoder@@@8
	DD	imagerel ??_R3PSMVocoder@@8
	DD	imagerel ??_R4PSMVocoder@@6B@
rdata$r	ENDS
;	COMDAT ??_R1A@?0A@EA@IAudioSignalProcessor@@8
rdata$r	SEGMENT
??_R1A@?0A@EA@IAudioSignalProcessor@@8 DD imagerel ??_R0?AVIAudioSignalProcessor@@@8 ; IAudioSignalProcessor::`RTTI Base Class Descriptor at (0,-1,0,64)'
	DD	00H
	DD	00H
	DD	0ffffffffH
	DD	00H
	DD	040H
	DD	imagerel ??_R3IAudioSignalProcessor@@8
rdata$r	ENDS
;	COMDAT ??_R3Shimmer@@8
rdata$r	SEGMENT
??_R3Shimmer@@8 DD 00H					; Shimmer::`RTTI Class Hierarchy Descriptor'
	DD	00H
	DD	03H
	DD	imagerel ??_R2Shimmer@@8
rdata$r	ENDS
;	COMDAT ??_7IAudioSignalProcessor@@6B@
CONST	SEGMENT
??_7IAudioSignalProcessor@@6B@ DQ FLAT:??_R4IAudioSignalProcessor@@6B@ ; IAudioSignalProcessor::`vftable'
	DQ	FLAT:_purecall
	DQ	FLAT:_purecall
	DQ	FLAT:_purecall
	DQ	FLAT:?setSampleRate@IAudioSignalProcessor@@UEAAXN@Z
	DQ	FLAT:?enableAuxInput@IAudioSignalProcessor@@UEAAX_N@Z
	DQ	FLAT:?processAuxInputAudioSample@IAudioSignalProcessor@@UEAANN@Z
	DQ	FLAT:?processAudioFrame@IAudioSignalProcessor@@UEAA_NPEBMPEAMII@Z
CONST	ENDS
;	COMDAT ??_R1A@?0A@EA@Shimmer@@8
rdata$r	SEGMENT
??_R1A@?0A@EA@Shimmer@@8 DD imagerel ??_R0?AVShimmer@@@8 ; Shimmer::`RTTI Base Class Descriptor at (0,-1,0,64)'
	DD	02H
	DD	00H
	DD	0ffffffffH
	DD	00H
	DD	040H
	DD	imagerel ??_R3Shimmer@@8
rdata$r	ENDS
;	COMDAT ??_R3IAudioSignalProcessor@@8
rdata$r	SEGMENT
??_R3IAudioSignalProcessor@@8 DD 00H			; IAudioSignalProcessor::`RTTI Class Hierarchy Descriptor'
	DD	00H
	DD	01H
	DD	imagerel ??_R2IAudioSignalProcessor@@8
rdata$r	ENDS
;	COMDAT ??_R4IAudioSignalProcessor@@6B@
rdata$r	SEGMENT
??_R4IAudioSignalProcessor@@6B@ DD 01H			; IAudioSignalProcessor::`RTTI Complete Object Locator'
	DD	00H
	DD	00H
	DD	imagerel ??_R0?AVIAudioSignalProcessor@@@8
	DD	imagerel ??_R3IAudioSignalProcessor@@8
	DD	imagerel ??_R4IAudioSignalProcessor@@6B@
rdata$r	ENDS
;	COMDAT ??_R3PSMVocoder@@8
rdata$r	SEGMENT
??_R3PSMVocoder@@8 DD 00H				; PSMVocoder::`RTTI Class Hierarchy Descriptor'
	DD	00H
	DD	02H
	DD	imagerel ??_R2PSMVocoder@@8
rdata$r	ENDS
;	COMDAT ??_7Shimmer@@6B@
CONST	SEGMENT
??_7Shimmer@@6B@ DQ FLAT:??_R4Shimmer@@6B@		; Shimmer::`vftable'
	DQ	FLAT:??_EShimmer@@UEAAPEAXI@Z
	DQ	FLAT:?dispatcher@AudioEffectX@@UEAA_JHH_JPEAXM@Z
	DQ	FLAT:?open@AudioEffect@@UEAAXXZ
	DQ	FLAT:?close@AudioEffect@@UEAAXXZ
	DQ	FLAT:?suspend@AudioEffect@@UEAAXXZ
	DQ	FLAT:?resume@AudioEffectX@@UEAAXXZ
	DQ	FLAT:?setSampleRate@Shimmer@@UEAAXM@Z
	DQ	FLAT:?setBlockSize@AudioEffect@@UEAAXH@Z
	DQ	FLAT:?processReplacing@Shimmer@@UEAAXPEAPEAM0H@Z
	DQ	FLAT:?processDoubleReplacing@AudioEffect@@UEAAXPEAPEAN0H@Z
	DQ	FLAT:?setParameter@Shimmer@@UEAAXHM@Z
	DQ	FLAT:?getParameter@Shimmer@@UEAAMH@Z
	DQ	FLAT:?setParameterAutomated@AudioEffect@@UEAAXHM@Z
	DQ	FLAT:?getProgram@AudioEffect@@UEAAHXZ
	DQ	FLAT:?setProgram@Shimmer@@UEAAXH@Z
	DQ	FLAT:?setProgramName@AudioEffect@@UEAAXPEAD@Z
	DQ	FLAT:?getProgramName@Shimmer@@UEAAXPEAD@Z
	DQ	FLAT:?getParameterLabel@Shimmer@@UEAAXHPEAD@Z
	DQ	FLAT:?getParameterDisplay@Shimmer@@UEAAXHPEAD@Z
	DQ	FLAT:?getParameterName@Shimmer@@UEAAXHPEAD@Z
	DQ	FLAT:?getChunk@AudioEffect@@UEAAHPEAPEAX_N@Z
	DQ	FLAT:?setChunk@AudioEffect@@UEAAHPEAXH_N@Z
	DQ	FLAT:?setUniqueID@AudioEffect@@UEAAXH@Z
	DQ	FLAT:?setNumInputs@AudioEffect@@UEAAXH@Z
	DQ	FLAT:?setNumOutputs@AudioEffect@@UEAAXH@Z
	DQ	FLAT:?canProcessReplacing@AudioEffect@@UEAAX_N@Z
	DQ	FLAT:?canDoubleReplacing@AudioEffect@@UEAAX_N@Z
	DQ	FLAT:?programsAreChunks@AudioEffect@@UEAAX_N@Z
	DQ	FLAT:?setInitialDelay@AudioEffect@@UEAAXH@Z
	DQ	FLAT:?getEditor@AudioEffect@@UEAAPEAVAEffEditor@@XZ
	DQ	FLAT:?getAeffect@AudioEffect@@UEAAPEAUAEffect@@XZ
	DQ	FLAT:?getSampleRate@AudioEffect@@UEAAMXZ
	DQ	FLAT:?getBlockSize@AudioEffect@@UEAAHXZ
	DQ	FLAT:?getMasterVersion@AudioEffect@@UEAAHXZ
	DQ	FLAT:?getCurrentUniqueId@AudioEffect@@UEAAHXZ
	DQ	FLAT:?masterIdle@AudioEffect@@UEAAXXZ
	DQ	FLAT:?dB2string@AudioEffect@@UEAAXMPEADH@Z
	DQ	FLAT:?Hz2string@AudioEffect@@UEAAXMPEADH@Z
	DQ	FLAT:?ms2string@AudioEffect@@UEAAXMPEADH@Z
	DQ	FLAT:?float2string@AudioEffect@@UEAAXMPEADH@Z
	DQ	FLAT:?int2string@AudioEffect@@UEAAXHPEADH@Z
	DQ	FLAT:?__processDeprecated@AudioEffect@@UEAAXPEAPEAM0H@Z
	DQ	FLAT:?__getVuDeprecated@AudioEffect@@UEAAMXZ
	DQ	FLAT:?__hasVuDeprecated@AudioEffect@@UEAAX_N@Z
	DQ	FLAT:?__hasClipDeprecated@AudioEffect@@UEAAX_N@Z
	DQ	FLAT:?__canMonoDeprecated@AudioEffect@@UEAAX_N@Z
	DQ	FLAT:?__setRealtimeQualitiesDeprecated@AudioEffect@@UEAAXH@Z
	DQ	FLAT:?__setOfflineQualitiesDeprecated@AudioEffect@@UEAAXH@Z
	DQ	FLAT:?__isInputConnectedDeprecated@AudioEffect@@UEAA_NH@Z
	DQ	FLAT:?__isOutputConnectedDeprecated@AudioEffect@@UEAA_NH@Z
	DQ	FLAT:?canParameterBeAutomated@AudioEffectX@@UEAA_NH@Z
	DQ	FLAT:?string2parameter@AudioEffectX@@UEAA_NHPEAD@Z
	DQ	FLAT:?getParameterProperties@AudioEffectX@@UEAA_NHPEAUVstParameterProperties@@@Z
	DQ	FLAT:?beginEdit@AudioEffectX@@UEAA_NH@Z
	DQ	FLAT:?endEdit@AudioEffectX@@UEAA_NH@Z
	DQ	FLAT:?getProgramNameIndexed@Shimmer@@UEAA_NHHPEAD@Z
	DQ	FLAT:?beginSetProgram@AudioEffectX@@UEAA_NXZ
	DQ	FLAT:?endSetProgram@AudioEffectX@@UEAA_NXZ
	DQ	FLAT:?beginLoadBank@AudioEffectX@@UEAAHPEAUVstPatchChunkInfo@@@Z
	DQ	FLAT:?beginLoadProgram@AudioEffectX@@UEAAHPEAUVstPatchChunkInfo@@@Z
	DQ	FLAT:?ioChanged@AudioEffectX@@UEAA_NXZ
	DQ	FLAT:?updateSampleRate@AudioEffectX@@UEAANXZ
	DQ	FLAT:?updateBlockSize@AudioEffectX@@UEAAHXZ
	DQ	FLAT:?getInputLatency@AudioEffectX@@UEAAHXZ
	DQ	FLAT:?getOutputLatency@AudioEffectX@@UEAAHXZ
	DQ	FLAT:?getInputProperties@AudioEffectX@@UEAA_NHPEAUVstPinProperties@@@Z
	DQ	FLAT:?getOutputProperties@AudioEffectX@@UEAA_NHPEAUVstPinProperties@@@Z
	DQ	FLAT:?setSpeakerArrangement@AudioEffectX@@UEAA_NPEAUVstSpeakerArrangement@@0@Z
	DQ	FLAT:?getSpeakerArrangement@AudioEffectX@@UEAA_NPEAPEAUVstSpeakerArrangement@@0@Z
	DQ	FLAT:?setBypass@AudioEffectX@@UEAA_N_N@Z
	DQ	FLAT:?setPanLaw@AudioEffectX@@UEAA_NHM@Z
	DQ	FLAT:?setProcessPrecision@AudioEffectX@@UEAA_NH@Z
	DQ	FLAT:?getNumMidiInputChannels@AudioEffectX@@UEAAHXZ
	DQ	FLAT:?getNumMidiOutputChannels@AudioEffectX@@UEAAHXZ
	DQ	FLAT:?getTimeInfo@AudioEffectX@@UEAAPEAUVstTimeInfo@@H@Z
	DQ	FLAT:?getCurrentProcessLevel@AudioEffectX@@UEAAHXZ
	DQ	FLAT:?getAutomationState@AudioEffectX@@UEAAHXZ
	DQ	FLAT:?processEvents@AudioEffectX@@UEAAHPEAUVstEvents@@@Z
	DQ	FLAT:?startProcess@AudioEffectX@@UEAAHXZ
	DQ	FLAT:?stopProcess@AudioEffectX@@UEAAHXZ
	DQ	FLAT:?processVariableIo@AudioEffectX@@UEAA_NPEAUVstVariableIo@@@Z
	DQ	FLAT:?setTotalSampleToProcess@AudioEffectX@@UEAAHH@Z
	DQ	FLAT:?getHostVendorString@AudioEffectX@@UEAA_NPEAD@Z
	DQ	FLAT:?getHostProductString@AudioEffectX@@UEAA_NPEAD@Z
	DQ	FLAT:?getHostVendorVersion@AudioEffectX@@UEAAHXZ
	DQ	FLAT:?hostVendorSpecific@AudioEffectX@@UEAA_JH_JPEAXM@Z
	DQ	FLAT:?canHostDo@AudioEffectX@@UEAAHPEAD@Z
	DQ	FLAT:?getHostLanguage@AudioEffectX@@UEAAHXZ
	DQ	FLAT:?isSynth@AudioEffectX@@UEAAX_N@Z
	DQ	FLAT:?noTail@AudioEffectX@@UEAAX_N@Z
	DQ	FLAT:?getGetTailSize@AudioEffectX@@UEAAHXZ
	DQ	FLAT:?getDirectory@AudioEffectX@@UEAAPEAXXZ
	DQ	FLAT:?getEffectName@Shimmer@@UEAA_NPEAD@Z
	DQ	FLAT:?getVendorString@Shimmer@@UEAA_NPEAD@Z
	DQ	FLAT:?getProductString@AudioEffectX@@UEAA_NPEAD@Z
	DQ	FLAT:?getVendorVersion@AudioEffectX@@UEAAHXZ
	DQ	FLAT:?vendorSpecific@AudioEffectX@@UEAA_JH_JPEAXM@Z
	DQ	FLAT:?canDo@AudioEffectX@@UEAAHPEAD@Z
	DQ	FLAT:?getVstVersion@AudioEffectX@@UEAAHXZ
	DQ	FLAT:?getPlugCategory@AudioEffectX@@UEAA?AW4VstPlugCategory@@XZ
	DQ	FLAT:?getMidiProgramName@AudioEffectX@@UEAAHHPEAUMidiProgramName@@@Z
	DQ	FLAT:?getCurrentMidiProgram@AudioEffectX@@UEAAHHPEAUMidiProgramName@@@Z
	DQ	FLAT:?getMidiProgramCategory@AudioEffectX@@UEAAHHPEAUMidiProgramCategory@@@Z
	DQ	FLAT:?hasMidiProgramsChanged@AudioEffectX@@UEAA_NH@Z
	DQ	FLAT:?getMidiKeyName@AudioEffectX@@UEAA_NHPEAUMidiKeyName@@@Z
	DQ	FLAT:?updateDisplay@AudioEffectX@@UEAA_NXZ
	DQ	FLAT:?sizeWindow@AudioEffectX@@UEAA_NHH@Z
	DQ	FLAT:?openFileSelector@AudioEffectX@@UEAA_NPEAUVstFileSelect@@@Z
	DQ	FLAT:?closeFileSelector@AudioEffectX@@UEAA_NPEAUVstFileSelect@@@Z
	DQ	FLAT:?getNextShellPlugin@AudioEffectX@@UEAAHPEAD@Z
	DQ	FLAT:?allocateArrangement@AudioEffectX@@UEAA_NPEAPEAUVstSpeakerArrangement@@H@Z
	DQ	FLAT:?deallocateArrangement@AudioEffectX@@UEAA_NPEAPEAUVstSpeakerArrangement@@@Z
	DQ	FLAT:?copySpeaker@AudioEffectX@@UEAA_NPEAUVstSpeakerProperties@@0@Z
	DQ	FLAT:?matchArrangement@AudioEffectX@@UEAA_NPEAPEAUVstSpeakerArrangement@@PEAU2@@Z
	DQ	FLAT:?offlineRead@AudioEffectX@@UEAA_NPEAUVstOfflineTask@@W4VstOfflineOption@@_N@Z
	DQ	FLAT:?offlineWrite@AudioEffectX@@UEAA_NPEAUVstOfflineTask@@W4VstOfflineOption@@@Z
	DQ	FLAT:?offlineStart@AudioEffectX@@UEAA_NPEAUVstAudioFile@@HH@Z
	DQ	FLAT:?offlineGetCurrentPass@AudioEffectX@@UEAAHXZ
	DQ	FLAT:?offlineGetCurrentMetaPass@AudioEffectX@@UEAAHXZ
	DQ	FLAT:?offlineNotify@AudioEffectX@@UEAA_NPEAUVstAudioFile@@H_N@Z
	DQ	FLAT:?offlinePrepare@AudioEffectX@@UEAA_NPEAUVstOfflineTask@@H@Z
	DQ	FLAT:?offlineRun@AudioEffectX@@UEAA_NPEAUVstOfflineTask@@H@Z
	DQ	FLAT:?offlineGetNumPasses@AudioEffectX@@UEAAHXZ
	DQ	FLAT:?offlineGetNumMetaPasses@AudioEffectX@@UEAAHXZ
	DQ	FLAT:?__wantEventsDeprecated@AudioEffectX@@UEAAXH@Z
	DQ	FLAT:?__tempoAtDeprecated@AudioEffectX@@UEAAHH@Z
	DQ	FLAT:?__getNumAutomatableParametersDeprecated@AudioEffectX@@UEAAHXZ
	DQ	FLAT:?__getParameterQuantizationDeprecated@AudioEffectX@@UEAAHXZ
	DQ	FLAT:?__getNumCategoriesDeprecated@AudioEffectX@@UEAAHXZ
	DQ	FLAT:?__copyProgramDeprecated@AudioEffectX@@UEAA_NH@Z
	DQ	FLAT:?__needIdleDeprecated@AudioEffectX@@UEAA_NXZ
	DQ	FLAT:?__getPreviousPlugDeprecated@AudioEffectX@@UEAAPEAUAEffect@@H@Z
	DQ	FLAT:?__getNextPlugDeprecated@AudioEffectX@@UEAAPEAUAEffect@@H@Z
	DQ	FLAT:?__inputConnectedDeprecated@AudioEffectX@@UEAAXH_N@Z
	DQ	FLAT:?__outputConnectedDeprecated@AudioEffectX@@UEAAXH_N@Z
	DQ	FLAT:?__willProcessReplacingDeprecated@AudioEffectX@@UEAAHXZ
	DQ	FLAT:?__wantAsyncOperationDeprecated@AudioEffectX@@UEAAX_N@Z
	DQ	FLAT:?__hasExternalBufferDeprecated@AudioEffectX@@UEAAX_N@Z
	DQ	FLAT:?__reportCurrentPositionDeprecated@AudioEffectX@@UEAAHXZ
	DQ	FLAT:?__reportDestinationBufferDeprecated@AudioEffectX@@UEAAPEAMXZ
	DQ	FLAT:?__setOutputSamplerateDeprecated@AudioEffectX@@UEAAXM@Z
	DQ	FLAT:?__getInputSpeakerArrangementDeprecated@AudioEffectX@@UEAAPEAUVstSpeakerArrangement@@XZ
	DQ	FLAT:?__getOutputSpeakerArrangementDeprecated@AudioEffectX@@UEAAPEAUVstSpeakerArrangement@@XZ
	DQ	FLAT:?__openWindowDeprecated@AudioEffectX@@UEAAPEAXPEAU__VstWindowDeprecated@@@Z
	DQ	FLAT:?__closeWindowDeprecated@AudioEffectX@@UEAA_NPEAU__VstWindowDeprecated@@@Z
	DQ	FLAT:?__setBlockSizeAndSampleRateDeprecated@AudioEffectX@@UEAAXHM@Z
	DQ	FLAT:?__getErrorTextDeprecated@AudioEffectX@@UEAA_NPEAD@Z
	DQ	FLAT:?__getIconDeprecated@AudioEffectX@@UEAAPEAXXZ
	DQ	FLAT:?__setViewPositionDeprecated@AudioEffectX@@UEAA_NHH@Z
	DQ	FLAT:?__fxIdleDeprecated@AudioEffectX@@UEAAHXZ
	DQ	FLAT:?__keysRequiredDeprecated@AudioEffectX@@UEAA_NXZ
	DQ	FLAT:?__getChunkFileDeprecated@AudioEffectX@@UEAA_NPEAX@Z
CONST	ENDS
;	COMDAT ??_R0?AVPSMVocoder@@@8
data$rs	SEGMENT
??_R0?AVPSMVocoder@@@8 DQ FLAT:??_7type_info@@6B@	; PSMVocoder `RTTI Type Descriptor'
	DQ	0000000000000000H
	DB	'.?AVPSMVocoder@@', 00H
data$rs	ENDS
;	COMDAT ??_C@_09KHHOPKD@Fox?5Suite@
CONST	SEGMENT
??_C@_09KHHOPKD@Fox?5Suite@ DB 'Fox Suite', 00H		; `string'
CONST	ENDS
;	COMDAT ??_C@_06LAKOKBGJ@Wobbly@
CONST	SEGMENT
??_C@_06LAKOKBGJ@Wobbly@ DB 'Wobbly', 00H		; `string'
CONST	ENDS
;	COMDAT ??_C@_08FBELJDCF@Metallic@
CONST	SEGMENT
??_C@_08FBELJDCF@Metallic@ DB 'Metallic', 00H		; `string'
CONST	ENDS
;	COMDAT ??_C@_05BCAGPPBA@Short@
CONST	SEGMENT
??_C@_05BCAGPPBA@Short@ DB 'Short', 00H			; `string'
CONST	ENDS
;	COMDAT ??_C@_06PIIHCPLG@Dreamy@
CONST	SEGMENT
??_C@_06PIIHCPLG@Dreamy@ DB 'Dreamy', 00H		; `string'
CONST	ENDS
;	COMDAT ??_C@_07MCAEODGB@Default@
CONST	SEGMENT
??_C@_07MCAEODGB@Default@ DB 'Default', 00H		; `string'
CONST	ENDS
;	COMDAT ??_C@_06LMOCGFEA@Spread@
CONST	SEGMENT
??_C@_06LMOCGFEA@Spread@ DB 'Spread', 00H		; `string'
CONST	ENDS
;	COMDAT ??_C@_04HIAEEHII@Damp@
CONST	SEGMENT
??_C@_04HIAEEHII@Damp@ DB 'Damp', 00H			; `string'
CONST	ENDS
;	COMDAT ??_C@_05BFFNNFFO@Decay@
CONST	SEGMENT
??_C@_05BFFNNFFO@Decay@ DB 'Decay', 00H			; `string'
CONST	ENDS
;	COMDAT ??_C@_07CNCNAGDO@Shimmer@
CONST	SEGMENT
??_C@_07CNCNAGDO@Shimmer@ DB 'Shimmer', 00H		; `string'
CONST	ENDS
;	COMDAT ??_C@_03INCOKCMB@Wet@
CONST	SEGMENT
??_C@_03INCOKCMB@Wet@ DB 'Wet', 00H			; `string'
CONST	ENDS
;	COMDAT ??_C@_01LKDEMHDF@s@
CONST	SEGMENT
??_C@_01LKDEMHDF@s@ DB 's', 00H				; `string'
?_Fake_alloc@std@@3U_Fake_allocator@1@B	ORG $+1		; std::_Fake_alloc
PUBLIC	??_GPSMVocoder@@QEAAPEAXI@Z			; PSMVocoder::`scalar deleting destructor'
PUBLIC	??_GDelay@@QEAAPEAXI@Z				; Delay::`scalar deleting destructor'
PUBLIC	??_GFreeverb@@QEAAPEAXI@Z			; Freeverb::`scalar deleting destructor'
PUBLIC	??1Shimmer@@UEAA@XZ				; Shimmer::~Shimmer
PUBLIC	?getVendorString@Shimmer@@UEAA_NPEAD@Z		; Shimmer::getVendorString
PUBLIC	?getEffectName@Shimmer@@UEAA_NPEAD@Z		; Shimmer::getEffectName
PUBLIC	?getProgramNameIndexed@Shimmer@@UEAA_NHHPEAD@Z	; Shimmer::getProgramNameIndexed
PUBLIC	?getProgramName@Shimmer@@UEAAXPEAD@Z		; Shimmer::getProgramName
PUBLIC	?setProgram@Shimmer@@UEAAXH@Z			; Shimmer::setProgram
PUBLIC	?InitPresets@Shimmer@@AEAAXXZ			; Shimmer::InitPresets
PUBLIC	?getParameterName@Shimmer@@UEAAXHPEAD@Z		; Shimmer::getParameterName
PUBLIC	?getParameterDisplay@Shimmer@@UEAAXHPEAD@Z	; Shimmer::getParameterDisplay
PUBLIC	?getParameterLabel@Shimmer@@UEAAXHPEAD@Z	; Shimmer::getParameterLabel
PUBLIC	?getParameter@Shimmer@@UEAAMH@Z			; Shimmer::getParameter
PUBLIC	?setParameter@Shimmer@@UEAAXHM@Z		; Shimmer::setParameter
PUBLIC	?processReplacing@Shimmer@@UEAAXPEAPEAM0H@Z	; Shimmer::processReplacing
PUBLIC	?setSampleRate@Shimmer@@UEAAXM@Z		; Shimmer::setSampleRate
PUBLIC	?InitPlugin@Shimmer@@AEAAXXZ			; Shimmer::InitPlugin
PUBLIC	??_GShimmer@@UEAAPEAXI@Z			; Shimmer::`scalar deleting destructor'
PUBLIC	??0Shimmer@@QEAA@P6A_JPEAUAEffect@@HH_JPEAXM@Z@Z ; Shimmer::Shimmer
PUBLIC	??0IAudioSignalProcessor@@QEAA@XZ		; IAudioSignalProcessor::IAudioSignalProcessor
PUBLIC	?setParameters@PSMVocoder@@QEAAXAEBUPSMVocoderParameters@@@Z ; PSMVocoder::setParameters
PUBLIC	?getParameters@PSMVocoder@@QEAA?AUPSMVocoderParameters@@XZ ; PSMVocoder::getParameters
PUBLIC	?processAudioSample@PSMVocoder@@UEAANN@Z	; PSMVocoder::processAudioSample
PUBLIC	?findPeaksAndRegionsOfInfluence@PSMVocoder@@QEAAXXZ ; PSMVocoder::findPeaksAndRegionsOfInfluence
PUBLIC	?findPreviousNearestPeak@PSMVocoder@@QEAAHH@Z	; PSMVocoder::findPreviousNearestPeak
PUBLIC	?setPitchShift@PSMVocoder@@QEAAXN@Z		; PSMVocoder::setPitchShift
PUBLIC	?canProcessAudioFrame@PSMVocoder@@UEAA_NXZ	; PSMVocoder::canProcessAudioFrame
PUBLIC	?reset@PSMVocoder@@UEAA_NN@Z			; PSMVocoder::reset
PUBLIC	??1PSMVocoder@@QEAA@XZ				; PSMVocoder::~PSMVocoder
PUBLIC	??0PSMVocoder@@QEAA@XZ				; PSMVocoder::PSMVocoder
PUBLIC	?getIFFTData@PhaseVocoder@@QEAAPEAY01NXZ	; PhaseVocoder::getIFFTData
PUBLIC	?getFFTData@PhaseVocoder@@QEAAPEAY01NXZ		; PhaseVocoder::getFFTData
PUBLIC	??1PhaseVocoder@@QEAA@XZ			; PhaseVocoder::~PhaseVocoder
PUBLIC	??0PhaseVocoder@@QEAA@XZ			; PhaseVocoder::PhaseVocoder
PUBLIC	?reset@BinData@@QEAAXXZ				; BinData::reset
PUBLIC	??4BinData@@QEAAAEAU0@AEBU0@@Z			; BinData::operator=
PUBLIC	??0BinData@@QEAA@XZ				; BinData::BinData
PUBLIC	??4PSMVocoderParameters@@QEAAAEAU0@AEBU0@@Z	; PSMVocoderParameters::operator=
PUBLIC	??0PSMVocoderParameters@@QEAA@XZ		; PSMVocoderParameters::PSMVocoderParameters
PUBLIC	?processAudioFrame@IAudioSignalProcessor@@UEAA_NPEBMPEAMII@Z ; IAudioSignalProcessor::processAudioFrame
PUBLIC	?processAuxInputAudioSample@IAudioSignalProcessor@@UEAANN@Z ; IAudioSignalProcessor::processAuxInputAudioSample
PUBLIC	?enableAuxInput@IAudioSignalProcessor@@UEAAX_N@Z ; IAudioSignalProcessor::enableAuxInput
PUBLIC	?setSampleRate@IAudioSignalProcessor@@UEAAXN@Z	; IAudioSignalProcessor::setSampleRate
PUBLIC	?resample@@YA_NPEAN0IIW4interpolation@@N0@Z	; resample
PUBLIC	?doLagrangeInterpolation@@YANPEAN0HN@Z		; doLagrangeInterpolation
PUBLIC	?doLinearInterpolation@@YANNNN@Z		; doLinearInterpolation
PUBLIC	?principalArg@@YANN@Z				; principalArg
PUBLIC	?getPhase@@YANNN@Z				; getPhase
PUBLIC	?getMagnitude@@YANNN@Z				; getMagnitude
PUBLIC	?createEffectInstance@@YAPEAVAudioEffect@@P6A_JPEAUAEffect@@HH_JPEAXM@Z@Z ; createEffectInstance
EXTRN	??_EShimmer@@UEAAPEAXI@Z:PROC			; Shimmer::`vector deleting destructor'
?kCTCorrFactorAntiLog@@3NB DQ 01H DUP (?)		; kCTCorrFactorAntiLog
?kCTCorrFactorZero@@3NB DQ 01H DUP (?)			; kCTCorrFactorZero
_BSS	ENDS
;	COMDAT pdata
pdata	SEGMENT
$pdata$??_GPSMVocoder@@QEAAPEAXI@Z DD imagerel $LN6@scalar
	DD	imagerel $LN6@scalar+23
	DD	imagerel $unwind$??_GPSMVocoder@@QEAAPEAXI@Z
pdata	ENDS
;	COMDAT pdata
pdata	SEGMENT
$pdata$??_GDelay@@QEAAPEAXI@Z DD imagerel $LN6@scalar
	DD	imagerel $LN6@scalar+23
	DD	imagerel $unwind$??_GDelay@@QEAAPEAXI@Z
pdata	ENDS
;	COMDAT pdata
pdata	SEGMENT
$pdata$??_GFreeverb@@QEAAPEAXI@Z DD imagerel $LN6@scalar
	DD	imagerel $LN6@scalar+23
	DD	imagerel $unwind$??_GFreeverb@@QEAAPEAXI@Z
pdata	ENDS
;	COMDAT pdata
pdata	SEGMENT
$pdata$??1Shimmer@@UEAA@XZ DD imagerel $LN29@Shimmer
	DD	imagerel $LN29@Shimmer+116
	DD	imagerel $unwind$??1Shimmer@@UEAA@XZ
pdata	ENDS
;	COMDAT pdata
pdata	SEGMENT
$pdata$?getVendorString@Shimmer@@UEAA_NPEAD@Z DD imagerel $LN6@getVendorS
	DD	imagerel $LN6@getVendorS+43
	DD	imagerel $unwind$?getVendorString@Shimmer@@UEAA_NPEAD@Z
pdata	ENDS
;	COMDAT pdata
pdata	SEGMENT
$pdata$?getEffectName@Shimmer@@UEAA_NPEAD@Z DD imagerel $LN6@getEffectN
	DD	imagerel $LN6@getEffectN+43
	DD	imagerel $unwind$?getEffectName@Shimmer@@UEAA_NPEAD@Z
pdata	ENDS
;	COMDAT pdata
pdata	SEGMENT
$pdata$?getProgramNameIndexed@Shimmer@@UEAA_NHHPEAD@Z DD imagerel $LN5@getProgram
	DD	imagerel $LN5@getProgram+51
	DD	imagerel $unwind$?getProgramNameIndexed@Shimmer@@UEAA_NHHPEAD@Z
pdata	ENDS
;	COMDAT pdata
pdata	SEGMENT
$pdata$?setProgram@Shimmer@@UEAAXH@Z DD imagerel $LN4@setProgram
	DD	imagerel $LN4@setProgram+137
	DD	imagerel $unwind$?setProgram@Shimmer@@UEAAXH@Z
pdata	ENDS
;	COMDAT pdata
pdata	SEGMENT
$pdata$?InitPresets@Shimmer@@AEAAXXZ DD imagerel $LN4@InitPreset
	DD	imagerel $LN4@InitPreset+579
	DD	imagerel $unwind$?InitPresets@Shimmer@@AEAAXXZ
pdata	ENDS
;	COMDAT pdata
pdata	SEGMENT
$pdata$?getParameterName@Shimmer@@UEAAXHPEAD@Z DD imagerel $LN23@getParamet
	DD	imagerel $LN23@getParamet+101
	DD	imagerel $unwind$?getParameterName@Shimmer@@UEAAXHPEAD@Z
pdata	ENDS
;	COMDAT pdata
pdata	SEGMENT
$pdata$?getParameterDisplay@Shimmer@@UEAAXHPEAD@Z DD imagerel $LN14@getParamet
	DD	imagerel $LN14@getParamet+104
	DD	imagerel $unwind$?getParameterDisplay@Shimmer@@UEAAXHPEAD@Z
pdata	ENDS
;	COMDAT pdata
pdata	SEGMENT
$pdata$?getParameterLabel@Shimmer@@UEAAXHPEAD@Z DD imagerel $LN22@getParamet
	DD	imagerel $LN22@getParamet+93
	DD	imagerel $unwind$?getParameterLabel@Shimmer@@UEAAXHPEAD@Z
pdata	ENDS
;	COMDAT pdata
pdata	SEGMENT
$pdata$?setParameter@Shimmer@@UEAAXHM@Z DD imagerel $LN26
	DD	imagerel $LN26+363
	DD	imagerel $unwind$?setParameter@Shimmer@@UEAAXHM@Z
pdata	ENDS
;	COMDAT pdata
pdata	SEGMENT
$pdata$?processReplacing@Shimmer@@UEAAXPEAPEAM0H@Z DD imagerel $LN12@processRep
	DD	imagerel $LN12@processRep+510
	DD	imagerel $unwind$?processReplacing@Shimmer@@UEAAXPEAPEAM0H@Z
pdata	ENDS
;	COMDAT pdata
pdata	SEGMENT
$pdata$?setSampleRate@Shimmer@@UEAAXM@Z DD imagerel $LN4@setSampleR
	DD	imagerel $LN4@setSampleR+153
	DD	imagerel $unwind$?setSampleRate@Shimmer@@UEAAXM@Z
pdata	ENDS
;	COMDAT pdata
pdata	SEGMENT
$pdata$?InitPlugin@Shimmer@@AEAAXXZ DD imagerel $LN63
	DD	imagerel $LN63+892
	DD	imagerel $unwind$?InitPlugin@Shimmer@@AEAAXXZ
pdata	ENDS
;	COMDAT pdata
pdata	SEGMENT
$pdata$?dtor$0@?0??InitPlugin@Shimmer@@AEAAXXZ@4HA DD imagerel ?dtor$0@?0??InitPlugin@Shimmer@@AEAAXXZ@4HA
	DD	imagerel ?dtor$0@?0??InitPlugin@Shimmer@@AEAAXXZ@4HA+32
	DD	imagerel $unwind$?dtor$0@?0??InitPlugin@Shimmer@@AEAAXXZ@4HA
pdata	ENDS
;	COMDAT pdata
pdata	SEGMENT
$pdata$?dtor$1@?0??InitPlugin@Shimmer@@AEAAXXZ@4HA DD imagerel ?dtor$1@?0??InitPlugin@Shimmer@@AEAAXXZ@4HA
	DD	imagerel ?dtor$1@?0??InitPlugin@Shimmer@@AEAAXXZ@4HA+32
	DD	imagerel $unwind$?dtor$1@?0??InitPlugin@Shimmer@@AEAAXXZ@4HA
pdata	ENDS
;	COMDAT pdata
pdata	SEGMENT
$pdata$?dtor$2@?0??InitPlugin@Shimmer@@AEAAXXZ@4HA DD imagerel ?dtor$2@?0??InitPlugin@Shimmer@@AEAAXXZ@4HA
	DD	imagerel ?dtor$2@?0??InitPlugin@Shimmer@@AEAAXXZ@4HA+32
	DD	imagerel $unwind$?dtor$2@?0??InitPlugin@Shimmer@@AEAAXXZ@4HA
pdata	ENDS
;	COMDAT pdata
pdata	SEGMENT
$pdata$?dtor$3@?0??InitPlugin@Shimmer@@AEAAXXZ@4HA DD imagerel ?dtor$3@?0??InitPlugin@Shimmer@@AEAAXXZ@4HA
	DD	imagerel ?dtor$3@?0??InitPlugin@Shimmer@@AEAAXXZ@4HA+32
	DD	imagerel $unwind$?dtor$3@?0??InitPlugin@Shimmer@@AEAAXXZ@4HA
pdata	ENDS
;	COMDAT pdata
pdata	SEGMENT
$pdata$?dtor$4@?0??InitPlugin@Shimmer@@AEAAXXZ@4HA DD imagerel ?dtor$4@?0??InitPlugin@Shimmer@@AEAAXXZ@4HA
	DD	imagerel ?dtor$4@?0??InitPlugin@Shimmer@@AEAAXXZ@4HA+32
	DD	imagerel $unwind$?dtor$4@?0??InitPlugin@Shimmer@@AEAAXXZ@4HA
pdata	ENDS
;	COMDAT pdata
pdata	SEGMENT
$pdata$?dtor$5@?0??InitPlugin@Shimmer@@AEAAXXZ@4HA DD imagerel ?dtor$5@?0??InitPlugin@Shimmer@@AEAAXXZ@4HA
	DD	imagerel ?dtor$5@?0??InitPlugin@Shimmer@@AEAAXXZ@4HA+32
	DD	imagerel $unwind$?dtor$5@?0??InitPlugin@Shimmer@@AEAAXXZ@4HA
pdata	ENDS
;	COMDAT pdata
pdata	SEGMENT
$pdata$??_GShimmer@@UEAAPEAXI@Z DD imagerel $LN6@scalar
	DD	imagerel $LN6@scalar+52
	DD	imagerel $unwind$??_GShimmer@@UEAAPEAXI@Z
pdata	ENDS
;	COMDAT pdata
pdata	SEGMENT
$pdata$??0Shimmer@@QEAA@P6A_JPEAUAEffect@@HH_JPEAXM@Z@Z DD imagerel $LN14@Shimmer
	DD	imagerel $LN14@Shimmer+396
	DD	imagerel $unwind$??0Shimmer@@QEAA@P6A_JPEAUAEffect@@HH_JPEAXM@Z@Z
pdata	ENDS
;	COMDAT pdata
pdata	SEGMENT
$pdata$?setParameters@PSMVocoder@@QEAAXAEBUPSMVocoderParameters@@@Z DD imagerel $LN8@setParamet
	DD	imagerel $LN8@setParamet+66
	DD	imagerel $unwind$?setParameters@PSMVocoder@@QEAAXAEBUPSMVocoderParameters@@@Z
pdata	ENDS
;	COMDAT pdata
pdata	SEGMENT
$pdata$?processAudioSample@PSMVocoder@@UEAANN@Z DD imagerel $LN161@processAud
	DD	imagerel $LN161@processAud+1735
	DD	imagerel $unwind$?processAudioSample@PSMVocoder@@UEAANN@Z
pdata	ENDS
;	COMDAT pdata
pdata	SEGMENT
$pdata$?findPeaksAndRegionsOfInfluence@PSMVocoder@@QEAAXXZ DD imagerel $LN88@findPeaksA
	DD	imagerel $LN88@findPeaksA+758
	DD	imagerel $unwind$?findPeaksAndRegionsOfInfluence@PSMVocoder@@QEAAXXZ
pdata	ENDS
;	COMDAT pdata
pdata	SEGMENT
$pdata$?findPreviousNearestPeak@PSMVocoder@@QEAAHH@Z DD imagerel $LN20@findPrevio
	DD	imagerel $LN20@findPrevio+132
	DD	imagerel $unwind$?findPreviousNearestPeak@PSMVocoder@@QEAAHH@Z
pdata	ENDS
;	COMDAT pdata
pdata	SEGMENT
$pdata$?setPitchShift@PSMVocoder@@QEAAXN@Z DD imagerel $LN14@setPitchSh
	DD	imagerel $LN14@setPitchSh+459
	DD	imagerel $unwind$?setPitchShift@PSMVocoder@@QEAAXN@Z
pdata	ENDS
;	COMDAT pdata
pdata	SEGMENT
$pdata$?reset@PSMVocoder@@UEAA_NN@Z DD imagerel $LN16@reset
	DD	imagerel $LN16@reset+222
	DD	imagerel $unwind$?reset@PSMVocoder@@UEAA_NN@Z
pdata	ENDS
;	COMDAT pdata
pdata	SEGMENT
$pdata$??1PSMVocoder@@QEAA@XZ DD imagerel $LN12@PSMVocoder
	DD	imagerel $LN12@PSMVocoder+109
	DD	imagerel $unwind$??1PSMVocoder@@QEAA@XZ
pdata	ENDS
;	COMDAT pdata
pdata	SEGMENT
$pdata$??0PSMVocoder@@QEAA@XZ DD imagerel $LN34@PSMVocoder
	DD	imagerel $LN34@PSMVocoder+429
	DD	imagerel $unwind$??0PSMVocoder@@QEAA@XZ
pdata	ENDS
;	COMDAT pdata
pdata	SEGMENT
$pdata$??1PhaseVocoder@@QEAA@XZ DD imagerel $LN8@PhaseVocod
	DD	imagerel $LN8@PhaseVocod+64
	DD	imagerel $unwind$??1PhaseVocoder@@QEAA@XZ
pdata	ENDS
;	COMDAT pdata
pdata	SEGMENT
$pdata$?resample@@YA_NPEAN0IIW4interpolation@@N0@Z DD imagerel $LN94@resample
	DD	imagerel $LN94@resample+315
	DD	imagerel $unwind$?resample@@YA_NPEAN0IIW4interpolation@@N0@Z
pdata	ENDS
;	COMDAT pdata
pdata	SEGMENT
$pdata$?principalArg@@YANN@Z DD imagerel $LN6@principalA
	DD	imagerel $LN6@principalA+79
	DD	imagerel $unwind$?principalArg@@YANN@Z
pdata	ENDS
;	COMDAT pdata
pdata	SEGMENT
$pdata$??__EkCTCorrFactorAntiLog@@YAXXZ DD imagerel ??__EkCTCorrFactorAntiLog@@YAXXZ
	DD	imagerel ??__EkCTCorrFactorAntiLog@@YAXXZ+47
	DD	imagerel $unwind$??__EkCTCorrFactorAntiLog@@YAXXZ
pdata	ENDS
;	COMDAT pdata
pdata	SEGMENT
$pdata$??__EkCTCorrFactorZero@@YAXXZ DD imagerel ??__EkCTCorrFactorZero@@YAXXZ
	DD	imagerel ??__EkCTCorrFactorZero@@YAXXZ+39
	DD	imagerel $unwind$??__EkCTCorrFactorZero@@YAXXZ
pdata	ENDS
;	COMDAT pdata
pdata	SEGMENT
$pdata$?createEffectInstance@@YAPEAVAudioEffect@@P6A_JPEAUAEffect@@HH_JPEAXM@Z@Z DD imagerel $LN8@createEffe
	DD	imagerel $LN8@createEffe+42
	DD	imagerel $unwind$?createEffectInstance@@YAPEAVAudioEffect@@P6A_JPEAUAEffect@@HH_JPEAXM@Z@Z
pdata	ENDS
;	COMDAT pdata
pdata	SEGMENT
$pdata$?dtor$0@?0??createEffectInstance@@YAPEAVAudioEffect@@P6A_JPEAUAEffect@@HH_JPEAXM@Z@Z@4HA DD imagerel ?dtor$0@?0??createEffectInstance@@YAPEAVAudioEffect@@P6A_JPEAUAEffect@@HH_JPEAXM@Z@Z@4HA
	DD	imagerel ?dtor$0@?0??createEffectInstance@@YAPEAVAudioEffect@@P6A_JPEAUAEffect@@HH_JPEAXM@Z@Z@4HA+29
	DD	imagerel $unwind$?dtor$0@?0??createEffectInstance@@YAPEAVAudioEffect@@P6A_JPEAUAEffect@@HH_JPEAXM@Z@Z@4HA
pdata	ENDS
;	COMDAT xdata
xdata	SEGMENT
$unwind$?dtor$0@?0??createEffectInstance@@YAPEAVAudioEffect@@P6A_JPEAUAEffect@@HH_JPEAXM@Z@Z@4HA DQ 05002320600020601r ; 2.6336e+77
xdata	ENDS
;	COMDAT xdata
xdata	SEGMENT
$ip2state$?createEffectInstance@@YAPEAVAudioEffect@@P6A_JPEAUAEffect@@HH_JPEAXM@Z@Z DD 020001c04H
	DB	02H
xdata	ENDS
;	COMDAT xdata
xdata	SEGMENT
$stateUnwindMap$?createEffectInstance@@YAPEAVAudioEffect@@P6A_JPEAUAEffect@@HH_JPEAXM@Z@Z DW 0e02H
	DD	imagerel ?dtor$0@?0??createEffectInstance@@YAPEAVAudioEffect@@P6A_JPEAUAEffect@@HH_JPEAXM@Z@Z@4HA
xdata	ENDS
;	COMDAT xdata
xdata	SEGMENT
$cppxdata$?createEffectInstance@@YAPEAVAudioEffect@@P6A_JPEAUAEffect@@HH_JPEAXM@Z@Z DB 028H
	DD	imagerel $stateUnwindMap$?createEffectInstance@@YAPEAVAudioEffect@@P6A_JPEAUAEffect@@HH_JPEAXM@Z@Z
	DD	imagerel $ip2state$?createEffectInstance@@YAPEAVAudioEffect@@P6A_JPEAUAEffect@@HH_JPEAXM@Z@Z
xdata	ENDS
;	COMDAT xdata
xdata	SEGMENT
$unwind$?createEffectInstance@@YAPEAVAudioEffect@@P6A_JPEAUAEffect@@HH_JPEAXM@Z@Z DQ 03002320600020611r ; 1.96423e-77
	DD	imagerel __CxxFrameHandler4
	DD	imagerel $cppxdata$?createEffectInstance@@YAPEAVAudioEffect@@P6A_JPEAUAEffect@@HH_JPEAXM@Z@Z
xdata	ENDS
;	COMDAT xdata
xdata	SEGMENT
$unwind$??__EkCTCorrFactorZero@@YAXXZ DQ 00000420400010401r ; 3.58617e-310
xdata	ENDS
;	COMDAT xdata
xdata	SEGMENT
$unwind$??__EkCTCorrFactorAntiLog@@YAXXZ DQ 00000420400010401r ; 3.58617e-310
xdata	ENDS
;	COMDAT xdata
xdata	SEGMENT
$unwind$?principalArg@@YANN@Z DQ 00000420400010401r ; 3.58617e-310
xdata	ENDS
;	COMDAT xdata
xdata	SEGMENT
$unwind$?resample@@YA_NPEAN0IIW4interpolation@@N0@Z DQ 00003740f00060f01r ; 4.80248e-309
	DQ	0000134050002640ar		; 1.67326e-309
xdata	ENDS
;	COMDAT xdata
xdata	SEGMENT
$unwind$??1PhaseVocoder@@QEAA@XZ DQ 03002320600020601r ; 1.96423e-77
xdata	ENDS
;	COMDAT xdata
xdata	SEGMENT
$ip2state$??0PSMVocoder@@QEAA@XZ DD 02063d02H
xdata	ENDS
;	COMDAT xdata
xdata	SEGMENT
$stateUnwindMap$??0PSMVocoder@@QEAA@XZ DW 0e02H
	DD	imagerel ?dtor$0@?0???0PSMVocoder@@QEAA@XZ@4HA
xdata	ENDS
;	COMDAT xdata
xdata	SEGMENT
$cppxdata$??0PSMVocoder@@QEAA@XZ DB 028H
	DD	imagerel $stateUnwindMap$??0PSMVocoder@@QEAA@XZ
	DD	imagerel $ip2state$??0PSMVocoder@@QEAA@XZ
xdata	ENDS
;	COMDAT xdata
xdata	SEGMENT
$unwind$??0PSMVocoder@@QEAA@XZ DQ 00009641800081811r ; 1.30598e-308
	DQ	00007341800085418r		; 1.00177e-308
	DD	070143218H
	DD	imagerel __CxxFrameHandler4
	DD	imagerel $cppxdata$??0PSMVocoder@@QEAA@XZ
xdata	ENDS
;	COMDAT xdata
xdata	SEGMENT
$unwind$??1PSMVocoder@@QEAA@XZ DQ 03002320600020601r ; 1.96423e-77
xdata	ENDS
;	COMDAT xdata
xdata	SEGMENT
$unwind$?reset@PSMVocoder@@UEAA_NN@Z DQ 00006340a00040a01r ; 8.62672e-309
	DD	07006320aH
xdata	ENDS
;	COMDAT xdata
xdata	SEGMENT
$unwind$?setPitchShift@PSMVocoder@@QEAAXN@Z DQ 000028830000c3001r ; 3.52115e-309
	DQ	0000468270003782br		; 6.12847e-309
	DQ	0000c3410000d5410r		; 1.69709e-308
	DD	0700c9210H
xdata	ENDS
;	COMDAT xdata
xdata	SEGMENT
$unwind$?findPreviousNearestPeak@PSMVocoder@@QEAAHH@Z DQ 000097419000a1901r ; 1.31467e-308
	DQ	00007541900086419r		; 1.01915e-308
	DQ	0e015321900063419r		; -7.10469e+154
xdata	ENDS
;	COMDAT xdata
xdata	SEGMENT
$unwind$?findPeaksAndRegionsOfInfluence@PSMVocoder@@QEAAXXZ DQ 00004681e000c1e01r ; 6.12828e-309
	DQ	0f010921700123417r		; -6.43156e+231
	DQ	07008c00ad00ce00er		; 4.80313e+231
	DD	050066007H
xdata	ENDS
;	COMDAT xdata
xdata	SEGMENT
$unwind$?processAudioSample@PSMVocoder@@UEAANN@Z DQ 00802d878001d7801r ; 4.45906e-270
	DQ	00804b8660803c86fr		; 4.90264e-270
	DQ	0080698540805a85dr		; 5.34622e-270
	DQ	00808783908078848r		; 5.78977e-270
	DQ	0101c64250809682dr		; 4.5718e-231
	DQ	0101a3425101b5425r		; 4.21955e-231
	DQ	0e016f01810140125r		; -7.68866e+154
	DQ	000007010c012d014r		; 6.08774e-310
xdata	ENDS
;	COMDAT xdata
xdata	SEGMENT
$unwind$?setParameters@PSMVocoder@@QEAAXAEBUPSMVocoderParameters@@@Z DQ 00006340a00040a01r ; 8.62672e-309
	DD	07006320aH
xdata	ENDS
;	COMDAT xdata
xdata	SEGMENT
$ip2state$??0Shimmer@@QEAA@P6A_JPEAUAEffect@@HH_JPEAXM@Z@Z DD 0205e102H
xdata	ENDS
;	COMDAT xdata
xdata	SEGMENT
$stateUnwindMap$??0Shimmer@@QEAA@P6A_JPEAUAEffect@@HH_JPEAXM@Z@Z DW 0c02H
	DD	imagerel ??1AudioEffectX@@UEAA@XZ
	DB	060H
xdata	ENDS
;	COMDAT xdata
xdata	SEGMENT
$cppxdata$??0Shimmer@@QEAA@P6A_JPEAUAEffect@@HH_JPEAXM@Z@Z DB 028H
	DD	imagerel $stateUnwindMap$??0Shimmer@@QEAA@P6A_JPEAUAEffect@@HH_JPEAXM@Z@Z
	DD	imagerel $ip2state$??0Shimmer@@QEAA@P6A_JPEAUAEffect@@HH_JPEAXM@Z@Z
xdata	ENDS
;	COMDAT xdata
xdata	SEGMENT
$unwind$??0Shimmer@@QEAA@P6A_JPEAUAEffect@@HH_JPEAXM@Z@Z DQ 00007340f00040f11r ; 1.00175e-308
	DD	0700b320fH
	DD	imagerel __CxxFrameHandler4
	DD	imagerel $cppxdata$??0Shimmer@@QEAA@P6A_JPEAUAEffect@@HH_JPEAXM@Z@Z
xdata	ENDS
;	COMDAT xdata
xdata	SEGMENT
$unwind$??_GShimmer@@UEAAPEAXI@Z DQ 00006340a00040a01r ; 8.62672e-309
	DD	07006320aH
xdata	ENDS
;	COMDAT xdata
xdata	SEGMENT
$unwind$?dtor$5@?0??InitPlugin@Shimmer@@AEAAXXZ@4HA DD 020601H
	DD	050023206H
xdata	ENDS
;	COMDAT xdata
xdata	SEGMENT
$unwind$?dtor$4@?0??InitPlugin@Shimmer@@AEAAXXZ@4HA DD 020601H
	DD	050023206H
xdata	ENDS
;	COMDAT xdata
xdata	SEGMENT
$unwind$?dtor$3@?0??InitPlugin@Shimmer@@AEAAXXZ@4HA DD 020601H
	DD	050023206H
xdata	ENDS
;	COMDAT xdata
xdata	SEGMENT
$unwind$?dtor$2@?0??InitPlugin@Shimmer@@AEAAXXZ@4HA DD 020601H
	DD	050023206H
xdata	ENDS
;	COMDAT xdata
xdata	SEGMENT
$unwind$?dtor$1@?0??InitPlugin@Shimmer@@AEAAXXZ@4HA DD 020601H
	DD	050023206H
xdata	ENDS
;	COMDAT xdata
xdata	SEGMENT
$unwind$?dtor$0@?0??InitPlugin@Shimmer@@AEAAXXZ@4HA DD 020601H
	DD	050023206H
xdata	ENDS
;	COMDAT xdata
xdata	SEGMENT
$ip2state$?InitPlugin@Shimmer@@AEAAXXZ DB 01aH
	DB	','
	DB	00H
	DB	'N'
	DB	02H
	DB	012H
	DB	00H
	DB	08eH
	DB	04H
	DB	012H
	DB	00H
	DB	092H
	DB	06H
	DB	012H
	DB	00H
	DB	','
	DB	08H
	DB	012H
	DB	00H
	DB	','
	DB	0aH
	DB	012H
	DB	00H
	DB	','
	DB	0cH
	DB	012H
	DB	00H
xdata	ENDS
;	COMDAT xdata
xdata	SEGMENT
$stateUnwindMap$?InitPlugin@Shimmer@@AEAAXXZ DB 0cH
	DB	0eH
	DD	imagerel ?dtor$0@?0??InitPlugin@Shimmer@@AEAAXXZ@4HA
	DB	036H
	DD	imagerel ?dtor$1@?0??InitPlugin@Shimmer@@AEAAXXZ@4HA
	DB	05eH
	DD	imagerel ?dtor$2@?0??InitPlugin@Shimmer@@AEAAXXZ@4HA
	DB	086H
	DD	imagerel ?dtor$3@?0??InitPlugin@Shimmer@@AEAAXXZ@4HA
	DB	0aeH
	DD	imagerel ?dtor$4@?0??InitPlugin@Shimmer@@AEAAXXZ@4HA
	DB	0d6H
	DD	imagerel ?dtor$5@?0??InitPlugin@Shimmer@@AEAAXXZ@4HA
xdata	ENDS
;	COMDAT xdata
xdata	SEGMENT
$cppxdata$?InitPlugin@Shimmer@@AEAAXXZ DB 028H
	DD	imagerel $stateUnwindMap$?InitPlugin@Shimmer@@AEAAXXZ
	DD	imagerel $ip2state$?InitPlugin@Shimmer@@AEAAXXZ
xdata	ENDS
;	COMDAT xdata
xdata	SEGMENT
$unwind$?InitPlugin@Shimmer@@AEAAXXZ DD 071311H
	DD	086813H
	DD	015340fH
	DD	012010fH
	DD	07008H
	DD	imagerel __CxxFrameHandler4
	DD	imagerel $cppxdata$?InitPlugin@Shimmer@@AEAAXXZ
xdata	ENDS
;	COMDAT xdata
xdata	SEGMENT
$unwind$?setSampleRate@Shimmer@@UEAAXM@Z DQ 00002681200061201r ; 3.34668e-309
	DQ	07006520a0008340ar		; 4.33162e+231
xdata	ENDS
;	COMDAT xdata
xdata	SEGMENT
$unwind$?processReplacing@Shimmer@@UEAAXPEAPEAM0H@Z DQ 00003984f00124f01r ; 4.9994e-309
	DQ	0000578450004884ar		; 7.6067e-309
	DQ	0001764230006683er		; 3.25294e-308
	DQ	0f01cd22300143423r		; -1.11862e+232
	DQ	050157016d018e01ar		; 6.20583e+77
xdata	ENDS
;	COMDAT xdata
xdata	SEGMENT
$unwind$?setParameter@Shimmer@@UEAAXHM@Z DD 040b01H
	DD	02680bH
	DD	030025206H
xdata	ENDS
;	COMDAT xdata
xdata	SEGMENT
$unwind$?getParameterLabel@Shimmer@@UEAAXHPEAD@Z DQ 03002320600020601r ; 1.96423e-77
xdata	ENDS
;	COMDAT xdata
xdata	SEGMENT
$unwind$?getParameterDisplay@Shimmer@@UEAAXHPEAD@Z DQ 00000420400010401r ; 3.58617e-310
xdata	ENDS
;	COMDAT xdata
xdata	SEGMENT
$unwind$?getParameterName@Shimmer@@UEAAXHPEAD@Z DQ 03002320600020601r ; 1.96423e-77
xdata	ENDS
;	COMDAT xdata
xdata	SEGMENT
$unwind$?InitPresets@Shimmer@@AEAAXXZ DQ 03002320600020601r ; 1.96423e-77
xdata	ENDS
;	COMDAT xdata
xdata	SEGMENT
$unwind$?setProgram@Shimmer@@UEAAXH@Z DQ 00006340a00040a01r ; 8.62672e-309
	DD	07006320aH
xdata	ENDS
;	COMDAT xdata
xdata	SEGMENT
$unwind$?getProgramNameIndexed@Shimmer@@UEAA_NHHPEAD@Z DQ 00000420400010401r ; 3.58617e-310
xdata	ENDS
;	COMDAT xdata
xdata	SEGMENT
$unwind$?getEffectName@Shimmer@@UEAA_NPEAD@Z DQ 03002320600020601r ; 1.96423e-77
xdata	ENDS
;	COMDAT xdata
xdata	SEGMENT
$unwind$?getVendorString@Shimmer@@UEAA_NPEAD@Z DQ 03002320600020601r ; 1.96423e-77
xdata	ENDS
;	COMDAT xdata
xdata	SEGMENT
$unwind$??1Shimmer@@UEAA@XZ DQ 03002320600020601r ; 1.96423e-77
xdata	ENDS
;	COMDAT xdata
xdata	SEGMENT
$unwind$??_GFreeverb@@QEAAPEAXI@Z DQ 03002320600020601r ; 1.96423e-77
xdata	ENDS
;	COMDAT xdata
xdata	SEGMENT
$unwind$??_GDelay@@QEAAPEAXI@Z DQ 03002320600020601r ; 1.96423e-77
xdata	ENDS
;	COMDAT xdata
xdata	SEGMENT
$unwind$??_GPSMVocoder@@QEAAPEAXI@Z DQ 03002320600020601r ; 1.96423e-77
?kCTCorrFactorZero$initializer$@@3P6AXXZEA DQ FLAT:??__EkCTCorrFactorZero@@YAXXZ ; kCTCorrFactorZero$initializer$
?kCTCorrFactorUnity$initializer$@@3P6AXXZEA DQ FLAT:??__EkCTCorrFactorUnity@@YAXXZ ; kCTCorrFactorUnity$initializer$
?kCTCorrFactorAntiUnity$initializer$@@3P6AXXZEA DQ FLAT:??__EkCTCorrFactorAntiUnity@@YAXXZ ; kCTCorrFactorAntiUnity$initializer$
?kCTCorrFactorAntiLog$initializer$@@3P6AXXZEA DQ FLAT:??__EkCTCorrFactorAntiLog@@YAXXZ ; kCTCorrFactorAntiLog$initializer$
?kCTCorrFactorAntiLogScale$initializer$@@3P6AXXZEA DQ FLAT:??__EkCTCorrFactorAntiLogScale@@YAXXZ ; kCTCorrFactorAntiLogScale$initializer$
; Function compile flags: /Ogspy
; File E:\FoxSuite\fox-suite-projects\Shimmer\Shimmer.cpp
; File E:\FoxSuite\fox-suite-blocks\include\PSMVocoder.h
; File E:\FoxSuite\fox-suite-projects\Shimmer\Shimmer.cpp
; File E:\FoxSuite\fox-suite-blocks\include\PSMVocoder.h
; File E:\FoxSuite\fox-suite-projects\Shimmer\Shimmer.cpp
; File E:\FoxSuite\fox-suite-blocks\include\PSMVocoder.h
; File E:\FoxSuite\fox-suite-projects\Shimmer\Shimmer.cpp
; File E:\FoxSuite\fox-suite-blocks\include\PSMVocoder.h
; File E:\FoxSuite\fox-suite-projects\Shimmer\Shimmer.cpp
; File E:\FoxSuite\fox-suite-blocks\include\PSMVocoder.h
; File E:\FoxSuite\fox-suite-projects\Shimmer\Shimmer.cpp
; File E:\FoxSuite\fox-suite-blocks\include\PSMVocoder.h
; File E:\FoxSuite\fox-suite-projects\Shimmer\Shimmer.cpp
; File E:\FoxSuite\fox-suite-blocks\include\PSMVocoder.h
; File E:\FoxSuite\fox-suite-projects\Shimmer\Shimmer.cpp
; File E:\FoxSuite\fox-suite-blocks\src\Delay.cpp
; File E:\FoxSuite\fox-suite-projects\Shimmer\Shimmer.cpp
; File E:\FoxSuite\fox-suite-blocks\src\Delay.cpp
; File E:\FoxSuite\fox-suite-projects\Shimmer\Shimmer.cpp
; File E:\FoxSuite\fox-suite-blocks\src\Delay.cpp
; File E:\FoxSuite\fox-suite-projects\Shimmer\Shimmer.cpp
;	COMDAT ?InitPlugin@Shimmer@@AEAAXXZ
_TEXT	SEGMENT
params1R$ = 64
params2L$ = 80
params2R$ = 96
params1L$ = 112
$T13 = 160
$T11 = 160
$T9 = 160
$T7 = 160
$T5 = 160
$T3 = 160
$T1 = 160
this$ = 160
?InitPlugin@Shimmer@@AEAAXXZ PROC			; Shimmer::InitPlugin, COMDAT

; 41   : {

$LN63:
	mov	rax, rsp
	mov	QWORD PTR [rax+16], rbx
	push	rdi
	sub	rsp, 144				; 00000090H
	movaps	XMMWORD PTR [rax-24], xmm6
	mov	rdi, rcx

; 42   :     /*.......................................*/
; 43   :     // initialize reverb plug-in parameters
; 44   :     InitPresets();

	call	?InitPresets@Shimmer@@AEAAXXZ		; Shimmer::InitPresets

; 45   : 
; 46   :     // get current sample rate
; 47   :     int currSampleRate = getSampleRate();

	mov	rax, QWORD PTR [rdi]
	mov	rcx, rdi
	call	QWORD PTR [rax+248]
	cvttss2si ebx, xmm0

; 48   : 
; 49   :     /*.......................................*/
; 50   :     // init BranchReverb
; 51   :     BranchReverb = new Freeverb();

	mov	ecx, 208				; 000000d0H
	call	??2@YAPEAX_K@Z				; operator new
	mov	QWORD PTR $T1[rsp], rax
	mov	rcx, rax
	call	??0Freeverb@@QEAA@XZ			; Freeverb::Freeverb
	npad	1
	mov	QWORD PTR [rdi+288], rax

; 52   :     BranchReverb->init(currSampleRate, 1.0, 2.0, shim_damping, 0.7, shim_spread, 0.0);

	movss	xmm0, DWORD PTR [rdi+280]
	movss	DWORD PTR [rsp+48], xmm0
	movss	xmm1, DWORD PTR [rdi+276]
	movss	DWORD PTR [rsp+32], xmm1
	movss	xmm3, DWORD PTR __real@40000000
	mov	edx, ebx
	mov	rcx, rax
	call	?init@Freeverb@@QEAAXHMMMMMM@Z		; Freeverb::init

; 53   : 
; 54   :     // init MasterReverb
; 55   :     MasterReverb = new Freeverb();

	mov	ecx, 208				; 000000d0H
	call	??2@YAPEAX_K@Z				; operator new
	mov	QWORD PTR $T3[rsp], rax
	mov	rcx, rax
	call	??0Freeverb@@QEAA@XZ			; Freeverb::Freeverb
	npad	1
	mov	QWORD PTR [rdi+296], rax

; 56   :     MasterReverb->init(currSampleRate, 1.0, shim_decay, shim_damping, 0.7, shim_spread, 0.0);

	movss	xmm0, DWORD PTR [rdi+280]
	movss	DWORD PTR [rsp+48], xmm0
	movss	xmm1, DWORD PTR [rdi+276]
	movss	DWORD PTR [rsp+32], xmm1
	movss	xmm3, DWORD PTR [rdi+272]
	mov	edx, ebx
	mov	rcx, rax
	call	?init@Freeverb@@QEAAXHMMMMMM@Z		; Freeverb::init

; 57   : 
; 58   :     /*.......................................*/
; 59   :     // init PitchShifters
; 60   :     //PitchShift_1oct = new PitchShifter();
; 61   :     //PitchShift_2oct = new PitchShifter();
; 62   : 
; 63   :     /*.......................................*/
; 64   :     // init PSMVocoder
; 65   :     PitchShift_1octL = new PSMVocoder();

	mov	ebx, 491736				; 000780d8H
	mov	ecx, ebx
	call	??2@YAPEAX_K@Z				; operator new
	mov	QWORD PTR $T5[rsp], rax
	mov	rcx, rax
	call	??0PSMVocoder@@QEAA@XZ			; PSMVocoder::PSMVocoder
	npad	1
	mov	QWORD PTR [rdi+304], rax

; 66   :     PitchShift_1octR = new PSMVocoder();

	mov	ecx, ebx
	call	??2@YAPEAX_K@Z				; operator new
	mov	QWORD PTR $T7[rsp], rax
	mov	rcx, rax
	call	??0PSMVocoder@@QEAA@XZ			; PSMVocoder::PSMVocoder
	npad	1
	mov	QWORD PTR [rdi+312], rax

; 67   :     PitchShift_2octL = new PSMVocoder();

	mov	ecx, ebx
	call	??2@YAPEAX_K@Z				; operator new
	mov	QWORD PTR $T9[rsp], rax
	mov	rcx, rax
	call	??0PSMVocoder@@QEAA@XZ			; PSMVocoder::PSMVocoder
	npad	1
	mov	QWORD PTR [rdi+320], rax

; 68   :     PitchShift_2octR = new PSMVocoder();

	mov	ecx, ebx
	call	??2@YAPEAX_K@Z				; operator new
	mov	QWORD PTR $T11[rsp], rax
	mov	rcx, rax
	call	??0PSMVocoder@@QEAA@XZ			; PSMVocoder::PSMVocoder
	npad	1
	mov	QWORD PTR [rdi+328], rax

; 69   :     // set sample rate
; 70   :     PitchShift_1octL->reset((double)sampleRate);

	mov	rcx, QWORD PTR [rdi+304]
	mov	rax, QWORD PTR [rcx]
	movss	xmm1, DWORD PTR [rdi+24]
	cvtps2pd xmm1, xmm1
	call	QWORD PTR [rax]

; 71   :     PitchShift_1octR->reset((double)sampleRate);

	mov	rcx, QWORD PTR [rdi+312]
	mov	rax, QWORD PTR [rcx]
	movss	xmm1, DWORD PTR [rdi+24]
	cvtps2pd xmm1, xmm1
	call	QWORD PTR [rax]

; 72   :     PitchShift_2octL->reset((double)sampleRate);

	mov	rcx, QWORD PTR [rdi+320]
	mov	rax, QWORD PTR [rcx]
	movss	xmm1, DWORD PTR [rdi+24]
	cvtps2pd xmm1, xmm1
	call	QWORD PTR [rax]

; 73   :     PitchShift_2octR->reset((double)sampleRate);

	mov	rcx, QWORD PTR [rdi+328]
	mov	rax, QWORD PTR [rcx]
	movss	xmm1, DWORD PTR [rdi+24]
	cvtps2pd xmm1, xmm1
	call	QWORD PTR [rax]

; 74   :     // set phase locking and peak tracking
; 75   :     PSMVocoderParameters params1L = PitchShift_1octL->getParameters();

	mov	rcx, QWORD PTR [rdi+304]
; File E:\FoxSuite\fox-suite-blocks\include\PSMVocoder.h

; 1013 : 		return parameters;

	movups	xmm6, XMMWORD PTR [rcx+8]
; File E:\FoxSuite\fox-suite-projects\Shimmer\Shimmer.cpp

; 76   :     PSMVocoderParameters params1R = PitchShift_1octR->getParameters();

	mov	rax, QWORD PTR [rdi+312]
; File E:\FoxSuite\fox-suite-blocks\include\PSMVocoder.h

; 1013 : 		return parameters;

	movups	xmm0, XMMWORD PTR [rax+8]
	movdqu	XMMWORD PTR params1R$[rsp], xmm0
; File E:\FoxSuite\fox-suite-projects\Shimmer\Shimmer.cpp

; 77   :     PSMVocoderParameters params2L = PitchShift_2octL->getParameters();

	mov	rax, QWORD PTR [rdi+320]
; File E:\FoxSuite\fox-suite-blocks\include\PSMVocoder.h

; 1013 : 		return parameters;

	movups	xmm1, XMMWORD PTR [rax+8]
	movdqu	XMMWORD PTR params2L$[rsp], xmm1
; File E:\FoxSuite\fox-suite-projects\Shimmer\Shimmer.cpp

; 78   :     PSMVocoderParameters params2R = PitchShift_2octR->getParameters();    

	mov	rax, QWORD PTR [rdi+328]
; File E:\FoxSuite\fox-suite-blocks\include\PSMVocoder.h

; 1013 : 		return parameters;

	movups	xmm0, XMMWORD PTR [rax+8]
	movdqu	XMMWORD PTR params2R$[rsp], xmm0

; 1022 : 		if (params.pitchShiftSemitones != parameters.pitchShiftSemitones)

	lea	rbx, QWORD PTR [rcx+8]
	ucomisd	xmm6, QWORD PTR [rbx]
	je	SHORT $LN33@InitPlugin

; 1023 : 		{
; 1024 : 			setPitchShift(params.pitchShiftSemitones);

	movaps	xmm1, xmm6
	call	?setPitchShift@PSMVocoder@@QEAAXN@Z	; PSMVocoder::setPitchShift
$LN33@InitPlugin:

; 430  : 		if (this == &params)

	lea	rax, QWORD PTR params1L$[rsp]
	cmp	rbx, rax
	je	SHORT $LN35@InitPlugin

; 431  : 			return *this;
; 432  : 
; 433  : 		pitchShiftSemitones = params.pitchShiftSemitones;

	movsd	QWORD PTR [rbx], xmm6

; 434  : 		enablePeakPhaseLocking = params.enablePeakPhaseLocking;

	mov	WORD PTR [rbx+8], 257			; 00000101H
$LN35@InitPlugin:
; File E:\FoxSuite\fox-suite-projects\Shimmer\Shimmer.cpp

; 89   :     PitchShift_1octR->setParameters(params1R);

	mov	rcx, QWORD PTR [rdi+312]
; File E:\FoxSuite\fox-suite-blocks\include\PSMVocoder.h

; 1022 : 		if (params.pitchShiftSemitones != parameters.pitchShiftSemitones)

	lea	rbx, QWORD PTR [rcx+8]
	movsd	xmm6, QWORD PTR params1R$[rsp]
	ucomisd	xmm6, QWORD PTR [rbx]
	je	SHORT $LN39@InitPlugin

; 1023 : 		{
; 1024 : 			setPitchShift(params.pitchShiftSemitones);

	movaps	xmm1, xmm6
	call	?setPitchShift@PSMVocoder@@QEAAXN@Z	; PSMVocoder::setPitchShift
$LN39@InitPlugin:

; 430  : 		if (this == &params)

	lea	rax, QWORD PTR params1R$[rsp]
	cmp	rbx, rax
	je	SHORT $LN41@InitPlugin

; 431  : 			return *this;
; 432  : 
; 433  : 		pitchShiftSemitones = params.pitchShiftSemitones;

	movsd	QWORD PTR [rbx], xmm6

; 434  : 		enablePeakPhaseLocking = params.enablePeakPhaseLocking;

	mov	WORD PTR [rbx+8], 257			; 00000101H
$LN41@InitPlugin:
; File E:\FoxSuite\fox-suite-projects\Shimmer\Shimmer.cpp

; 90   :     PitchShift_2octL->setParameters(params2L);

	mov	rcx, QWORD PTR [rdi+320]
; File E:\FoxSuite\fox-suite-blocks\include\PSMVocoder.h

; 1022 : 		if (params.pitchShiftSemitones != parameters.pitchShiftSemitones)

	lea	rbx, QWORD PTR [rcx+8]
	movsd	xmm6, QWORD PTR params2L$[rsp]
	ucomisd	xmm6, QWORD PTR [rbx]
	je	SHORT $LN45@InitPlugin

; 1023 : 		{
; 1024 : 			setPitchShift(params.pitchShiftSemitones);

	movaps	xmm1, xmm6
	call	?setPitchShift@PSMVocoder@@QEAAXN@Z	; PSMVocoder::setPitchShift
$LN45@InitPlugin:

; 430  : 		if (this == &params)

	lea	rax, QWORD PTR params2L$[rsp]
	cmp	rbx, rax
	je	SHORT $LN47@InitPlugin

; 431  : 			return *this;
; 432  : 
; 433  : 		pitchShiftSemitones = params.pitchShiftSemitones;

	movsd	QWORD PTR [rbx], xmm6

; 434  : 		enablePeakPhaseLocking = params.enablePeakPhaseLocking;

	mov	WORD PTR [rbx+8], 257			; 00000101H
$LN47@InitPlugin:
; File E:\FoxSuite\fox-suite-projects\Shimmer\Shimmer.cpp

; 91   :     PitchShift_2octR->setParameters(params2R);

	mov	rcx, QWORD PTR [rdi+328]
; File E:\FoxSuite\fox-suite-blocks\include\PSMVocoder.h

; 1022 : 		if (params.pitchShiftSemitones != parameters.pitchShiftSemitones)

	lea	rbx, QWORD PTR [rcx+8]
	movsd	xmm6, QWORD PTR params2R$[rsp]
	ucomisd	xmm6, QWORD PTR [rbx]
	je	SHORT $LN51@InitPlugin

; 1023 : 		{
; 1024 : 			setPitchShift(params.pitchShiftSemitones);

	movaps	xmm1, xmm6
	call	?setPitchShift@PSMVocoder@@QEAAXN@Z	; PSMVocoder::setPitchShift
$LN51@InitPlugin:

; 430  : 		if (this == &params)

	lea	rax, QWORD PTR params2R$[rsp]
	cmp	rbx, rax
	je	SHORT $LN53@InitPlugin

; 431  : 			return *this;
; 432  : 
; 433  : 		pitchShiftSemitones = params.pitchShiftSemitones;

	movsd	QWORD PTR [rbx], xmm6

; 434  : 		enablePeakPhaseLocking = params.enablePeakPhaseLocking;

	mov	WORD PTR [rbx+8], 257			; 00000101H
$LN53@InitPlugin:
; File E:\FoxSuite\fox-suite-projects\Shimmer\Shimmer.cpp

; 93   :     PitchShift_1octL->setPitchShift(12.0);

	movsd	xmm1, QWORD PTR __real@4028000000000000
	mov	rcx, QWORD PTR [rdi+304]
	call	?setPitchShift@PSMVocoder@@QEAAXN@Z	; PSMVocoder::setPitchShift

; 94   :     PitchShift_1octR->setPitchShift(12.0);

	movsd	xmm1, QWORD PTR __real@4028000000000000
	mov	rcx, QWORD PTR [rdi+312]
	call	?setPitchShift@PSMVocoder@@QEAAXN@Z	; PSMVocoder::setPitchShift

; 95   :     PitchShift_2octL->setPitchShift(24.0);

	movsd	xmm1, QWORD PTR __real@4038000000000000
	mov	rcx, QWORD PTR [rdi+320]
	call	?setPitchShift@PSMVocoder@@QEAAXN@Z	; PSMVocoder::setPitchShift

; 96   :     PitchShift_2octR->setPitchShift(24.0);

	movsd	xmm1, QWORD PTR __real@4038000000000000
	mov	rcx, QWORD PTR [rdi+328]
	call	?setPitchShift@PSMVocoder@@QEAAXN@Z	; PSMVocoder::setPitchShift

; 100  :     BranchDelay = new Delay();

	mov	ecx, 56					; 00000038H
	call	??2@YAPEAX_K@Z				; operator new
	mov	rcx, rax
	mov	QWORD PTR $T13[rsp], rax
; File E:\FoxSuite\fox-suite-blocks\src\Delay.cpp

; 7    : {

	lea	rax, OFFSET FLAT:??_7Delay@@6B@
	mov	QWORD PTR [rcx], rax

; 8    : 	dly_buffer				= NULL;

	xor	eax, eax
	mov	QWORD PTR [rcx+40], rax

; 9    : 	dly_makeUpGaindB		= 0.0;

	mov	DWORD PTR [rcx+48], eax

; 10   : 	dly_makeUpGain			= 1.0;

	mov	DWORD PTR [rcx+52], 1065353216		; 3f800000H

; 11   : 	dly_delayInmsec			= 0.0;
; 12   : 	dly_delayInSamples		= 0.0;

	mov	QWORD PTR [rcx+20], rax

; 13   : 	dly_readIndex			= 0;

	mov	QWORD PTR [rcx+28], rax

; 14   : 	dly_writeIndex			= 0;
; 15   : 	dly_lineLengthInSamples = 0;

	mov	QWORD PTR [rcx+12], rax
; File E:\FoxSuite\fox-suite-projects\Shimmer\Shimmer.cpp

; 100  :     BranchDelay = new Delay();

	mov	QWORD PTR [rdi+336], rcx

; 101  :     BranchDelay->init(500.0, sampleRate);

	mov	rax, QWORD PTR [rcx]
	cvttss2si r8d, DWORD PTR [rdi+24]
	movss	xmm1, DWORD PTR __real@43fa0000
	call	QWORD PTR [rax]

; 102  :     BranchDelay->setDelayInmsec(100.0);

	mov	rcx, QWORD PTR [rdi+336]
; File E:\FoxSuite\fox-suite-blocks\src\Delay.cpp

; 128  : 	dly_delayInmsec = delayInmsec;

	mov	DWORD PTR [rcx+24], 1120403456		; 42c80000H
	movd	xmm0, DWORD PTR [rcx+16]

; 129  : 
; 130  : 	if (dly_delayInmsec > dly_lineLengthInmsec)

	cvtdq2ps xmm0, xmm0
	comiss	xmm0, DWORD PTR __real@42c80000
	jae	SHORT $LN59@InitPlugin

; 131  : 		dly_delayInmsec = dly_lineLengthInmsec;

	movss	DWORD PTR [rcx+24], xmm0
$LN59@InitPlugin:
; File E:\FoxSuite\fox-suite-projects\Shimmer\Shimmer.cpp

; 103  : }

	lea	r11, QWORD PTR [rsp+144]
	mov	rbx, QWORD PTR [r11+24]
	movaps	xmm6, XMMWORD PTR [r11-16]
	mov	rsp, r11
	pop	rdi
; File E:\FoxSuite\fox-suite-blocks\src\Delay.cpp

; 134  : 	updateParameters();

	jmp	?updateParameters@Delay@@QEAAXXZ	; Delay::updateParameters
?InitPlugin@Shimmer@@AEAAXXZ ENDP			; Shimmer::InitPlugin
_TEXT	ENDS
;	COMDAT text$x
text$x	SEGMENT
params1R$ = 64
params2L$ = 80
params2R$ = 96
params1L$ = 112
$T13 = 160
$T11 = 160
$T9 = 160
$T7 = 160
$T5 = 160
$T3 = 160
$T1 = 160
this$ = 160
?dtor$0@?0??InitPlugin@Shimmer@@AEAAXXZ@4HA PROC	; `Shimmer::InitPlugin'::`1'::dtor$0
	push	rbp
	sub	rsp, 32					; 00000020H
	mov	rbp, rdx
	mov	edx, 208				; 000000d0H
	mov	rcx, QWORD PTR $T1[rbp]
	call	??3@YAXPEAX_K@Z				; operator delete
	add	rsp, 32					; 00000020H
	pop	rbp
	ret	0
?dtor$0@?0??InitPlugin@Shimmer@@AEAAXXZ@4HA ENDP	; `Shimmer::InitPlugin'::`1'::dtor$0
params1R$ = 64
params2L$ = 80
params2R$ = 96
params1L$ = 112
$T13 = 160
$T11 = 160
$T9 = 160
$T7 = 160
$T5 = 160
$T3 = 160
$T1 = 160
this$ = 160
?dtor$1@?0??InitPlugin@Shimmer@@AEAAXXZ@4HA PROC	; `Shimmer::InitPlugin'::`1'::dtor$1
	push	rbp
	sub	rsp, 32					; 00000020H
	mov	rbp, rdx
	mov	edx, 208				; 000000d0H
	mov	rcx, QWORD PTR $T3[rbp]
	call	??3@YAXPEAX_K@Z				; operator delete
	add	rsp, 32					; 00000020H
	pop	rbp
	ret	0
?dtor$1@?0??InitPlugin@Shimmer@@AEAAXXZ@4HA ENDP	; `Shimmer::InitPlugin'::`1'::dtor$1
params1R$ = 64
params2L$ = 80
params2R$ = 96
params1L$ = 112
$T13 = 160
$T11 = 160
$T9 = 160
$T7 = 160
$T5 = 160
$T3 = 160
$T1 = 160
this$ = 160
?dtor$2@?0??InitPlugin@Shimmer@@AEAAXXZ@4HA PROC	; `Shimmer::InitPlugin'::`1'::dtor$2
	push	rbp
	sub	rsp, 32					; 00000020H
	mov	rbp, rdx
	mov	edx, 491736				; 000780d8H
	mov	rcx, QWORD PTR $T5[rbp]
	call	??3@YAXPEAX_K@Z				; operator delete
	add	rsp, 32					; 00000020H
	pop	rbp
	ret	0
?dtor$2@?0??InitPlugin@Shimmer@@AEAAXXZ@4HA ENDP	; `Shimmer::InitPlugin'::`1'::dtor$2
params1R$ = 64
params2L$ = 80
params2R$ = 96
params1L$ = 112
$T13 = 160
$T11 = 160
$T9 = 160
$T7 = 160
$T5 = 160
$T3 = 160
$T1 = 160
this$ = 160
?dtor$3@?0??InitPlugin@Shimmer@@AEAAXXZ@4HA PROC	; `Shimmer::InitPlugin'::`1'::dtor$3
	push	rbp
	sub	rsp, 32					; 00000020H
	mov	rbp, rdx
	mov	edx, 491736				; 000780d8H
	mov	rcx, QWORD PTR $T7[rbp]
	call	??3@YAXPEAX_K@Z				; operator delete
	add	rsp, 32					; 00000020H
	pop	rbp
	ret	0
?dtor$3@?0??InitPlugin@Shimmer@@AEAAXXZ@4HA ENDP	; `Shimmer::InitPlugin'::`1'::dtor$3
params1R$ = 64
params2L$ = 80
params2R$ = 96
params1L$ = 112
$T13 = 160
$T11 = 160
$T9 = 160
$T7 = 160
$T5 = 160
$T3 = 160
$T1 = 160
this$ = 160
?dtor$4@?0??InitPlugin@Shimmer@@AEAAXXZ@4HA PROC	; `Shimmer::InitPlugin'::`1'::dtor$4
	push	rbp
	sub	rsp, 32					; 00000020H
	mov	rbp, rdx
	mov	edx, 491736				; 000780d8H
	mov	rcx, QWORD PTR $T9[rbp]
	call	??3@YAXPEAX_K@Z				; operator delete
	add	rsp, 32					; 00000020H
	pop	rbp
	ret	0
?dtor$4@?0??InitPlugin@Shimmer@@AEAAXXZ@4HA ENDP	; `Shimmer::InitPlugin'::`1'::dtor$4
params1R$ = 64
params2L$ = 80
params2R$ = 96
params1L$ = 112
$T13 = 160
$T11 = 160
$T9 = 160
$T7 = 160
$T5 = 160
$T3 = 160
$T1 = 160
this$ = 160
?dtor$5@?0??InitPlugin@Shimmer@@AEAAXXZ@4HA PROC	; `Shimmer::InitPlugin'::`1'::dtor$5
	push	rbp
	sub	rsp, 32					; 00000020H
	mov	rbp, rdx
	mov	edx, 491736				; 000780d8H
	mov	rcx, QWORD PTR $T11[rbp]
	call	??3@YAXPEAX_K@Z				; operator delete
	add	rsp, 32					; 00000020H
	pop	rbp
	ret	0
?dtor$5@?0??InitPlugin@Shimmer@@AEAAXXZ@4HA ENDP	; `Shimmer::InitPlugin'::`1'::dtor$5
text$x	ENDS
; Function compile flags: /Ogspy
;	COMDAT text$x
text$x	SEGMENT
params1R$ = 64
params2L$ = 80
params2R$ = 96
params1L$ = 112
$T13 = 160
$T11 = 160
$T9 = 160
$T7 = 160
$T5 = 160
$T3 = 160
$T1 = 160
this$ = 160
?dtor$0@?0??InitPlugin@Shimmer@@AEAAXXZ@4HA PROC	; `Shimmer::InitPlugin'::`1'::dtor$0
	push	rbp
	sub	rsp, 32					; 00000020H
	mov	rbp, rdx
	mov	edx, 208				; 000000d0H
	mov	rcx, QWORD PTR $T1[rbp]
	call	??3@YAXPEAX_K@Z				; operator delete
	add	rsp, 32					; 00000020H
	pop	rbp
	ret	0
?dtor$0@?0??InitPlugin@Shimmer@@AEAAXXZ@4HA ENDP	; `Shimmer::InitPlugin'::`1'::dtor$0
text$x	ENDS
; Function compile flags: /Ogspy
;	COMDAT text$x
text$x	SEGMENT
params1R$ = 64
params2L$ = 80
params2R$ = 96
params1L$ = 112
$T13 = 160
$T11 = 160
$T9 = 160
$T7 = 160
$T5 = 160
$T3 = 160
$T1 = 160
this$ = 160
?dtor$1@?0??InitPlugin@Shimmer@@AEAAXXZ@4HA PROC	; `Shimmer::InitPlugin'::`1'::dtor$1
	push	rbp
	sub	rsp, 32					; 00000020H
	mov	rbp, rdx
	mov	edx, 208				; 000000d0H
	mov	rcx, QWORD PTR $T3[rbp]
	call	??3@YAXPEAX_K@Z				; operator delete
	add	rsp, 32					; 00000020H
	pop	rbp
	ret	0
?dtor$1@?0??InitPlugin@Shimmer@@AEAAXXZ@4HA ENDP	; `Shimmer::InitPlugin'::`1'::dtor$1
text$x	ENDS
; Function compile flags: /Ogspy
;	COMDAT text$x
text$x	SEGMENT
params1R$ = 64
params2L$ = 80
params2R$ = 96
params1L$ = 112
$T13 = 160
$T11 = 160
$T9 = 160
$T7 = 160
$T5 = 160
$T3 = 160
$T1 = 160
this$ = 160
?dtor$2@?0??InitPlugin@Shimmer@@AEAAXXZ@4HA PROC	; `Shimmer::InitPlugin'::`1'::dtor$2
	push	rbp
	sub	rsp, 32					; 00000020H
	mov	rbp, rdx
	mov	edx, 491736				; 000780d8H
	mov	rcx, QWORD PTR $T5[rbp]
	call	??3@YAXPEAX_K@Z				; operator delete
	add	rsp, 32					; 00000020H
	pop	rbp
	ret	0
?dtor$2@?0??InitPlugin@Shimmer@@AEAAXXZ@4HA ENDP	; `Shimmer::InitPlugin'::`1'::dtor$2
text$x	ENDS
; Function compile flags: /Ogspy
;	COMDAT text$x
text$x	SEGMENT
params1R$ = 64
params2L$ = 80
params2R$ = 96
params1L$ = 112
$T13 = 160
$T11 = 160
$T9 = 160
$T7 = 160
$T5 = 160
$T3 = 160
$T1 = 160
this$ = 160
?dtor$3@?0??InitPlugin@Shimmer@@AEAAXXZ@4HA PROC	; `Shimmer::InitPlugin'::`1'::dtor$3
	push	rbp
	sub	rsp, 32					; 00000020H
	mov	rbp, rdx
	mov	edx, 491736				; 000780d8H
	mov	rcx, QWORD PTR $T7[rbp]
	call	??3@YAXPEAX_K@Z				; operator delete
	add	rsp, 32					; 00000020H
	pop	rbp
	ret	0
?dtor$3@?0??InitPlugin@Shimmer@@AEAAXXZ@4HA ENDP	; `Shimmer::InitPlugin'::`1'::dtor$3
text$x	ENDS
; Function compile flags: /Ogspy
;	COMDAT text$x
text$x	SEGMENT
params1R$ = 64
params2L$ = 80
params2R$ = 96
params1L$ = 112
$T13 = 160
$T11 = 160
$T9 = 160
$T7 = 160
$T5 = 160
$T3 = 160
$T1 = 160
this$ = 160
?dtor$4@?0??InitPlugin@Shimmer@@AEAAXXZ@4HA PROC	; `Shimmer::InitPlugin'::`1'::dtor$4
	push	rbp
	sub	rsp, 32					; 00000020H
	mov	rbp, rdx
	mov	edx, 491736				; 000780d8H
	mov	rcx, QWORD PTR $T9[rbp]
	call	??3@YAXPEAX_K@Z				; operator delete
	add	rsp, 32					; 00000020H
	pop	rbp
	ret	0
?dtor$4@?0??InitPlugin@Shimmer@@AEAAXXZ@4HA ENDP	; `Shimmer::InitPlugin'::`1'::dtor$4
text$x	ENDS
; Function compile flags: /Ogspy
;	COMDAT text$x
text$x	SEGMENT
params1R$ = 64
params2L$ = 80
params2R$ = 96
params1L$ = 112
$T13 = 160
$T11 = 160
$T9 = 160
$T7 = 160
$T5 = 160
$T3 = 160
$T1 = 160
this$ = 160
?dtor$5@?0??InitPlugin@Shimmer@@AEAAXXZ@4HA PROC	; `Shimmer::InitPlugin'::`1'::dtor$5
	push	rbp
	sub	rsp, 32					; 00000020H
	mov	rbp, rdx
	mov	edx, 491736				; 000780d8H
	mov	rcx, QWORD PTR $T11[rbp]
	call	??3@YAXPEAX_K@Z				; operator delete
	add	rsp, 32					; 00000020H
	pop	rbp
	ret	0
?dtor$5@?0??InitPlugin@Shimmer@@AEAAXXZ@4HA ENDP	; `Shimmer::InitPlugin'::`1'::dtor$5
text$x	ENDS
; Function compile flags: /Ogspy
; File E:\FoxSuite\fox-suite-projects\Shimmer\Shimmer.cpp
; File E:\FoxSuite\fox-suite-blocks\src\Freeverb.cpp
; File E:\FoxSuite\fox-suite-projects\Shimmer\Shimmer.cpp
; File E:\FoxSuite\fox-suite-blocks\src\Freeverb.cpp
; File E:\FoxSuite\fox-suite-projects\Shimmer\Shimmer.cpp
; File E:\FoxSuite\fox-suite-blocks\src\Freeverb.cpp
; File E:\FoxSuite\fox-suite-projects\Shimmer\Shimmer.cpp
; File E:\FoxSuite\fox-suite-blocks\src\utils.cpp
; File E:\FoxSuite\fox-suite-projects\Shimmer\Shimmer.cpp
;	COMDAT ?setParameter@Shimmer@@UEAAXHM@Z
_TEXT	SEGMENT
this$ = 64
index$ = 72
value$ = 80
?setParameter@Shimmer@@UEAAXHM@Z PROC			; Shimmer::setParameter, COMDAT

; 191  : {

$LN26:
	push	rbx
	sub	rsp, 48					; 00000030H
	movaps	XMMWORD PTR [rsp+32], xmm6
	mov	rbx, rcx

; 192  :     switch (index) {

	test	edx, edx
	je	$LN4@setParamet
	sub	edx, 1
	je	$LN5@setParamet
	sub	edx, 1
	je	$LN6@setParamet
	sub	edx, 1
	je	$LN7@setParamet
	cmp	edx, 1
	jne	$LN9@setParamet

; 221  :         BranchReverb->setReverbSpread(shim_spread);

	mov	rax, QWORD PTR [rcx+288]
; File E:\FoxSuite\fox-suite-blocks\src\Freeverb.cpp

; 250  :     return minvalue + value * (maxValue - minvalue);

	movss	xmm4, DWORD PTR __real@3f800000

; 298  :     wet1 = freeverb_wet * (width / 2.0 + 0.5);

	movss	xmm3, DWORD PTR __real@3f000000

; 299  :     wet2 = freeverb_wet * (1 - width) / 2.0;

	movaps	xmm1, xmm4
; File E:\FoxSuite\fox-suite-projects\Shimmer\Shimmer.cpp

; 220  :         shim_spread = value;

	movss	DWORD PTR [rcx+280], xmm2
; File E:\FoxSuite\fox-suite-blocks\src\Freeverb.cpp

; 214  :     freeverb_spread = spread;

	movss	DWORD PTR [rax+20], xmm2

; 250  :     return minvalue + value * (maxValue - minvalue);

	addss	xmm2, xmm2
	subss	xmm2, xmm4

; 298  :     wet1 = freeverb_wet * (width / 2.0 + 0.5);

	movaps	xmm0, xmm2
	addss	xmm0, xmm4
	mulss	xmm0, xmm3
	mulss	xmm0, DWORD PTR [rax]
	movss	DWORD PTR [rax+24], xmm0

; 299  :     wet2 = freeverb_wet * (1 - width) / 2.0;

	movaps	xmm0, xmm4
	subss	xmm0, xmm2
	mulss	xmm0, DWORD PTR [rax]
	mulss	xmm0, xmm3
	movss	DWORD PTR [rax+28], xmm0

; 300  :     dry = (1.0 - freeverb_wet);

	movaps	xmm0, xmm4
	subss	xmm0, DWORD PTR [rax]
	movss	DWORD PTR [rax+32], xmm0
; File E:\FoxSuite\fox-suite-projects\Shimmer\Shimmer.cpp

; 222  :         MasterReverb->setReverbSpread(shim_spread);

	mov	rax, QWORD PTR [rcx+296]
; File E:\FoxSuite\fox-suite-blocks\src\Freeverb.cpp

; 214  :     freeverb_spread = spread;

	movss	xmm2, DWORD PTR [rcx+280]
	movss	DWORD PTR [rax+20], xmm2

; 250  :     return minvalue + value * (maxValue - minvalue);

	addss	xmm2, xmm2
	subss	xmm2, xmm4

; 299  :     wet2 = freeverb_wet * (1 - width) / 2.0;

	subss	xmm1, xmm2
	movaps	xmm0, xmm2
	addss	xmm0, xmm4

; 300  :     dry = (1.0 - freeverb_wet);

	subss	xmm4, DWORD PTR [rax]
	mulss	xmm1, DWORD PTR [rax]
	mulss	xmm0, xmm3
	mulss	xmm1, xmm3
	mulss	xmm0, DWORD PTR [rax]
	movss	DWORD PTR [rax+28], xmm1
	movss	DWORD PTR [rax+32], xmm4
	movss	DWORD PTR [rax+24], xmm0
; File E:\FoxSuite\fox-suite-projects\Shimmer\Shimmer.cpp

; 223  :         break;

	jmp	SHORT $LN9@setParamet
$LN7@setParamet:

; 209  :     }    
; 210  :     case Param_damping:
; 211  :     {
; 212  :         shim_damping = value;
; 213  :         float dampingFrequency = mapValueIntoRange(1.0 - shim_damping, MIN_LPF_FREQUENCY, MAX_LPF_FREQUENCY);

	movss	xmm6, DWORD PTR __real@3f800000
	subss	xmm6, xmm2
	movss	DWORD PTR [rcx+276], xmm2

; 214  :         BranchReverb->setReverbDampingFrequency(dampingFrequency);

	mov	rcx, QWORD PTR [rcx+288]
; File E:\FoxSuite\fox-suite-blocks\src\utils.cpp

; 5    :     return minvalue + value * (maxValue - minvalue);

	mulss	xmm6, DWORD PTR __real@46944800
	addss	xmm6, DWORD PTR __real@41a00000
; File E:\FoxSuite\fox-suite-projects\Shimmer\Shimmer.cpp

; 214  :         BranchReverb->setReverbDampingFrequency(dampingFrequency);

	movaps	xmm1, xmm6
	call	?setReverbDampingFrequency@Freeverb@@QEAAXM@Z ; Freeverb::setReverbDampingFrequency

; 215  :         MasterReverb->setReverbDampingFrequency(dampingFrequency);

	mov	rcx, QWORD PTR [rbx+296]
	movaps	xmm1, xmm6
	call	?setReverbDampingFrequency@Freeverb@@QEAAXM@Z ; Freeverb::setReverbDampingFrequency

; 216  :         break;

	jmp	SHORT $LN9@setParamet
$LN6@setParamet:

; 202  :     }
; 203  :     case Param_decay:
; 204  :     {
; 205  :         shim_decay = value * MAX_REVERB_DECAY_IN_SECONDS;

	mulss	xmm2, DWORD PTR __real@41700000
	movss	DWORD PTR [rcx+272], xmm2

; 206  :         //BranchReverb->setReverbDecayInSeconds(shim_decay);
; 207  :         MasterReverb->setReverbDecayInSeconds(shim_decay);

	movaps	xmm1, xmm2
	mov	rcx, QWORD PTR [rcx+296]
	call	?setReverbDecayInSeconds@Freeverb@@QEAAXM@Z ; Freeverb::setReverbDecayInSeconds

; 208  :         break;

	jmp	SHORT $LN9@setParamet
$LN5@setParamet:

; 196  :         break;
; 197  :     }
; 198  :     case Param_shimmer:
; 199  :     {
; 200  :         shim_shimmer = value;

	movss	DWORD PTR [rcx+268], xmm2

; 201  :         break;

	jmp	SHORT $LN9@setParamet
$LN4@setParamet:

; 193  :     case Param_wet:
; 194  :     {
; 195  :         shim_wet = value;        

	movss	DWORD PTR [rcx+264], xmm2
$LN9@setParamet:

; 224  :     }
; 225  :     default:
; 226  :         break;
; 227  :     }
; 228  : }

	movaps	xmm6, XMMWORD PTR [rsp+32]
	add	rsp, 48					; 00000030H
	pop	rbx
	ret	0
?setParameter@Shimmer@@UEAAXHM@Z ENDP			; Shimmer::setParameter
_TEXT	ENDS
END
