; Listing generated by Microsoft (R) Optimizing Compiler Version 19.29.30133.0 

include listing.inc

INCLUDELIB OLDNAMES

PUBLIC	??_C@_0O@MJEPJDIE@sendVstEvents@		; `string'
PUBLIC	??_C@_0BB@DBLEMDJI@sendVstMidiEvent@		; `string'
PUBLIC	??_C@_0BA@CEBMKOGA@sendVstTimeInfo@		; `string'
PUBLIC	??_C@_0BB@LOJILAKC@receiveVstEvents@		; `string'
PUBLIC	??_C@_0BE@KLGKMJKL@receiveVstMidiEvent@		; `string'
PUBLIC	??_C@_0BI@KIPHNALO@reportConnectionChanges@	; `string'
PUBLIC	??_C@_0BA@CLGFDKLL@acceptIOChanges@		; `string'
PUBLIC	??_C@_0L@FLPGPBDA@sizeWindow@			; `string'
PUBLIC	??_C@_07OFPCFMBE@offline@			; `string'
PUBLIC	??_C@_0BB@MMLONEO@openFileSelector@		; `string'
PUBLIC	??_C@_0BC@LNIFLEPM@closeFileSelector@		; `string'
PUBLIC	??_C@_0BB@CANNHKE@startStopProcess@		; `string'
PUBLIC	??_C@_0O@JHMBCFDD@shellCategory@		; `string'
PUBLIC	??_C@_0BP@BNOFLLOD@sendVstMidiEventFlagIsRealtime@ ; `string'
PUBLIC	??_C@_0BD@EFKFCLOB@receiveVstTimeInfo@		; `string'
PUBLIC	??_C@_0BB@FCGDCDJB@midiProgramNames@		; `string'
PUBLIC	??_C@_06HKHKKNNB@bypass@			; `string'
PUBLIC	??_R2AudioEffectX@@8				; AudioEffectX::`RTTI Base Class Array'
PUBLIC	??_R4AudioEffectX@@6B@				; AudioEffectX::`RTTI Complete Object Locator'
PUBLIC	??_R1A@?0A@EA@AudioEffectX@@8			; AudioEffectX::`RTTI Base Class Descriptor at (0,-1,0,64)'
PUBLIC	??_7AudioEffectX@@6B@				; AudioEffectX::`vftable'
PUBLIC	??_R3AudioEffectX@@8				; AudioEffectX::`RTTI Class Hierarchy Descriptor'
PUBLIC	??_R0?AVAudioEffectX@@@8			; AudioEffectX `RTTI Type Descriptor'
EXTRN	__imp_memcpy:PROC
EXTRN	??_V@YAXPEAX@Z:PROC				; operator delete[]
;	COMDAT ??_R0?AVAudioEffectX@@@8
data$rs	SEGMENT
??_R0?AVAudioEffectX@@@8 DQ FLAT:??_7type_info@@6B@	; AudioEffectX `RTTI Type Descriptor'
	DQ	0000000000000000H
	DB	'.?AVAudioEffectX@@', 00H
data$rs	ENDS
;	COMDAT ??_R3AudioEffectX@@8
rdata$r	SEGMENT
??_R3AudioEffectX@@8 DD 00H				; AudioEffectX::`RTTI Class Hierarchy Descriptor'
	DD	00H
	DD	02H
	DD	imagerel ??_R2AudioEffectX@@8
rdata$r	ENDS
;	COMDAT ??_7AudioEffectX@@6B@
CONST	SEGMENT
??_7AudioEffectX@@6B@ DQ FLAT:??_R4AudioEffectX@@6B@	; AudioEffectX::`vftable'
	DQ	FLAT:??_EAudioEffectX@@UEAAPEAXI@Z
	DQ	FLAT:?dispatcher@AudioEffectX@@UEAA_JHH_JPEAXM@Z
	DQ	FLAT:?open@AudioEffect@@UEAAXXZ
	DQ	FLAT:?close@AudioEffect@@UEAAXXZ
	DQ	FLAT:?suspend@AudioEffect@@UEAAXXZ
	DQ	FLAT:?resume@AudioEffectX@@UEAAXXZ
	DQ	FLAT:?setSampleRate@AudioEffect@@UEAAXM@Z
	DQ	FLAT:?setBlockSize@AudioEffect@@UEAAXH@Z
	DQ	FLAT:_purecall
	DQ	FLAT:?processDoubleReplacing@AudioEffect@@UEAAXPEAPEAN0H@Z
	DQ	FLAT:?setParameter@AudioEffect@@UEAAXHM@Z
	DQ	FLAT:?getParameter@AudioEffect@@UEAAMH@Z
	DQ	FLAT:?setParameterAutomated@AudioEffect@@UEAAXHM@Z
	DQ	FLAT:?getProgram@AudioEffect@@UEAAHXZ
	DQ	FLAT:?setProgram@AudioEffect@@UEAAXH@Z
	DQ	FLAT:?setProgramName@AudioEffect@@UEAAXPEAD@Z
	DQ	FLAT:?getProgramName@AudioEffect@@UEAAXPEAD@Z
	DQ	FLAT:?getParameterLabel@AudioEffect@@UEAAXHPEAD@Z
	DQ	FLAT:?getParameterDisplay@AudioEffect@@UEAAXHPEAD@Z
	DQ	FLAT:?getParameterName@AudioEffect@@UEAAXHPEAD@Z
	DQ	FLAT:?getChunk@AudioEffect@@UEAAHPEAPEAX_N@Z
	DQ	FLAT:?setChunk@AudioEffect@@UEAAHPEAXH_N@Z
	DQ	FLAT:?setUniqueID@AudioEffect@@UEAAXH@Z
	DQ	FLAT:?setNumInputs@AudioEffect@@UEAAXH@Z
	DQ	FLAT:?setNumOutputs@AudioEffect@@UEAAXH@Z
	DQ	FLAT:?canProcessReplacing@AudioEffect@@UEAAX_N@Z
	DQ	FLAT:?canDoubleReplacing@AudioEffect@@UEAAX_N@Z
	DQ	FLAT:?programsAreChunks@AudioEffect@@UEAAX_N@Z
	DQ	FLAT:?setInitialDelay@AudioEffect@@UEAAXH@Z
	DQ	FLAT:?getEditor@AudioEffect@@UEAAPEAVAEffEditor@@XZ
	DQ	FLAT:?getAeffect@AudioEffect@@UEAAPEAUAEffect@@XZ
	DQ	FLAT:?getSampleRate@AudioEffect@@UEAAMXZ
	DQ	FLAT:?getBlockSize@AudioEffect@@UEAAHXZ
	DQ	FLAT:?getMasterVersion@AudioEffect@@UEAAHXZ
	DQ	FLAT:?getCurrentUniqueId@AudioEffect@@UEAAHXZ
	DQ	FLAT:?masterIdle@AudioEffect@@UEAAXXZ
	DQ	FLAT:?dB2string@AudioEffect@@UEAAXMPEADH@Z
	DQ	FLAT:?Hz2string@AudioEffect@@UEAAXMPEADH@Z
	DQ	FLAT:?ms2string@AudioEffect@@UEAAXMPEADH@Z
	DQ	FLAT:?float2string@AudioEffect@@UEAAXMPEADH@Z
	DQ	FLAT:?int2string@AudioEffect@@UEAAXHPEADH@Z
	DQ	FLAT:?__processDeprecated@AudioEffect@@UEAAXPEAPEAM0H@Z
	DQ	FLAT:?__getVuDeprecated@AudioEffect@@UEAAMXZ
	DQ	FLAT:?__hasVuDeprecated@AudioEffect@@UEAAX_N@Z
	DQ	FLAT:?__hasClipDeprecated@AudioEffect@@UEAAX_N@Z
	DQ	FLAT:?__canMonoDeprecated@AudioEffect@@UEAAX_N@Z
	DQ	FLAT:?__setRealtimeQualitiesDeprecated@AudioEffect@@UEAAXH@Z
	DQ	FLAT:?__setOfflineQualitiesDeprecated@AudioEffect@@UEAAXH@Z
	DQ	FLAT:?__isInputConnectedDeprecated@AudioEffect@@UEAA_NH@Z
	DQ	FLAT:?__isOutputConnectedDeprecated@AudioEffect@@UEAA_NH@Z
	DQ	FLAT:?canParameterBeAutomated@AudioEffectX@@UEAA_NH@Z
	DQ	FLAT:?string2parameter@AudioEffectX@@UEAA_NHPEAD@Z
	DQ	FLAT:?getParameterProperties@AudioEffectX@@UEAA_NHPEAUVstParameterProperties@@@Z
	DQ	FLAT:?beginEdit@AudioEffectX@@UEAA_NH@Z
	DQ	FLAT:?endEdit@AudioEffectX@@UEAA_NH@Z
	DQ	FLAT:?getProgramNameIndexed@AudioEffectX@@UEAA_NHHPEAD@Z
	DQ	FLAT:?beginSetProgram@AudioEffectX@@UEAA_NXZ
	DQ	FLAT:?endSetProgram@AudioEffectX@@UEAA_NXZ
	DQ	FLAT:?beginLoadBank@AudioEffectX@@UEAAHPEAUVstPatchChunkInfo@@@Z
	DQ	FLAT:?beginLoadProgram@AudioEffectX@@UEAAHPEAUVstPatchChunkInfo@@@Z
	DQ	FLAT:?ioChanged@AudioEffectX@@UEAA_NXZ
	DQ	FLAT:?updateSampleRate@AudioEffectX@@UEAANXZ
	DQ	FLAT:?updateBlockSize@AudioEffectX@@UEAAHXZ
	DQ	FLAT:?getInputLatency@AudioEffectX@@UEAAHXZ
	DQ	FLAT:?getOutputLatency@AudioEffectX@@UEAAHXZ
	DQ	FLAT:?getInputProperties@AudioEffectX@@UEAA_NHPEAUVstPinProperties@@@Z
	DQ	FLAT:?getOutputProperties@AudioEffectX@@UEAA_NHPEAUVstPinProperties@@@Z
	DQ	FLAT:?setSpeakerArrangement@AudioEffectX@@UEAA_NPEAUVstSpeakerArrangement@@0@Z
	DQ	FLAT:?getSpeakerArrangement@AudioEffectX@@UEAA_NPEAPEAUVstSpeakerArrangement@@0@Z
	DQ	FLAT:?setBypass@AudioEffectX@@UEAA_N_N@Z
	DQ	FLAT:?setPanLaw@AudioEffectX@@UEAA_NHM@Z
	DQ	FLAT:?setProcessPrecision@AudioEffectX@@UEAA_NH@Z
	DQ	FLAT:?getNumMidiInputChannels@AudioEffectX@@UEAAHXZ
	DQ	FLAT:?getNumMidiOutputChannels@AudioEffectX@@UEAAHXZ
	DQ	FLAT:?getTimeInfo@AudioEffectX@@UEAAPEAUVstTimeInfo@@H@Z
	DQ	FLAT:?getCurrentProcessLevel@AudioEffectX@@UEAAHXZ
	DQ	FLAT:?getAutomationState@AudioEffectX@@UEAAHXZ
	DQ	FLAT:?processEvents@AudioEffectX@@UEAAHPEAUVstEvents@@@Z
	DQ	FLAT:?startProcess@AudioEffectX@@UEAAHXZ
	DQ	FLAT:?stopProcess@AudioEffectX@@UEAAHXZ
	DQ	FLAT:?processVariableIo@AudioEffectX@@UEAA_NPEAUVstVariableIo@@@Z
	DQ	FLAT:?setTotalSampleToProcess@AudioEffectX@@UEAAHH@Z
	DQ	FLAT:?getHostVendorString@AudioEffectX@@UEAA_NPEAD@Z
	DQ	FLAT:?getHostProductString@AudioEffectX@@UEAA_NPEAD@Z
	DQ	FLAT:?getHostVendorVersion@AudioEffectX@@UEAAHXZ
	DQ	FLAT:?hostVendorSpecific@AudioEffectX@@UEAA_JH_JPEAXM@Z
	DQ	FLAT:?canHostDo@AudioEffectX@@UEAAHPEAD@Z
	DQ	FLAT:?getHostLanguage@AudioEffectX@@UEAAHXZ
	DQ	FLAT:?isSynth@AudioEffectX@@UEAAX_N@Z
	DQ	FLAT:?noTail@AudioEffectX@@UEAAX_N@Z
	DQ	FLAT:?getGetTailSize@AudioEffectX@@UEAAHXZ
	DQ	FLAT:?getDirectory@AudioEffectX@@UEAAPEAXXZ
	DQ	FLAT:?getEffectName@AudioEffectX@@UEAA_NPEAD@Z
	DQ	FLAT:?getVendorString@AudioEffectX@@UEAA_NPEAD@Z
	DQ	FLAT:?getProductString@AudioEffectX@@UEAA_NPEAD@Z
	DQ	FLAT:?getVendorVersion@AudioEffectX@@UEAAHXZ
	DQ	FLAT:?vendorSpecific@AudioEffectX@@UEAA_JH_JPEAXM@Z
	DQ	FLAT:?canDo@AudioEffectX@@UEAAHPEAD@Z
	DQ	FLAT:?getVstVersion@AudioEffectX@@UEAAHXZ
	DQ	FLAT:?getPlugCategory@AudioEffectX@@UEAA?AW4VstPlugCategory@@XZ
	DQ	FLAT:?getMidiProgramName@AudioEffectX@@UEAAHHPEAUMidiProgramName@@@Z
	DQ	FLAT:?getCurrentMidiProgram@AudioEffectX@@UEAAHHPEAUMidiProgramName@@@Z
	DQ	FLAT:?getMidiProgramCategory@AudioEffectX@@UEAAHHPEAUMidiProgramCategory@@@Z
	DQ	FLAT:?hasMidiProgramsChanged@AudioEffectX@@UEAA_NH@Z
	DQ	FLAT:?getMidiKeyName@AudioEffectX@@UEAA_NHPEAUMidiKeyName@@@Z
	DQ	FLAT:?updateDisplay@AudioEffectX@@UEAA_NXZ
	DQ	FLAT:?sizeWindow@AudioEffectX@@UEAA_NHH@Z
	DQ	FLAT:?openFileSelector@AudioEffectX@@UEAA_NPEAUVstFileSelect@@@Z
	DQ	FLAT:?closeFileSelector@AudioEffectX@@UEAA_NPEAUVstFileSelect@@@Z
	DQ	FLAT:?getNextShellPlugin@AudioEffectX@@UEAAHPEAD@Z
	DQ	FLAT:?allocateArrangement@AudioEffectX@@UEAA_NPEAPEAUVstSpeakerArrangement@@H@Z
	DQ	FLAT:?deallocateArrangement@AudioEffectX@@UEAA_NPEAPEAUVstSpeakerArrangement@@@Z
	DQ	FLAT:?copySpeaker@AudioEffectX@@UEAA_NPEAUVstSpeakerProperties@@0@Z
	DQ	FLAT:?matchArrangement@AudioEffectX@@UEAA_NPEAPEAUVstSpeakerArrangement@@PEAU2@@Z
	DQ	FLAT:?offlineRead@AudioEffectX@@UEAA_NPEAUVstOfflineTask@@W4VstOfflineOption@@_N@Z
	DQ	FLAT:?offlineWrite@AudioEffectX@@UEAA_NPEAUVstOfflineTask@@W4VstOfflineOption@@@Z
	DQ	FLAT:?offlineStart@AudioEffectX@@UEAA_NPEAUVstAudioFile@@HH@Z
	DQ	FLAT:?offlineGetCurrentPass@AudioEffectX@@UEAAHXZ
	DQ	FLAT:?offlineGetCurrentMetaPass@AudioEffectX@@UEAAHXZ
	DQ	FLAT:?offlineNotify@AudioEffectX@@UEAA_NPEAUVstAudioFile@@H_N@Z
	DQ	FLAT:?offlinePrepare@AudioEffectX@@UEAA_NPEAUVstOfflineTask@@H@Z
	DQ	FLAT:?offlineRun@AudioEffectX@@UEAA_NPEAUVstOfflineTask@@H@Z
	DQ	FLAT:?offlineGetNumPasses@AudioEffectX@@UEAAHXZ
	DQ	FLAT:?offlineGetNumMetaPasses@AudioEffectX@@UEAAHXZ
	DQ	FLAT:?__wantEventsDeprecated@AudioEffectX@@UEAAXH@Z
	DQ	FLAT:?__tempoAtDeprecated@AudioEffectX@@UEAAHH@Z
	DQ	FLAT:?__getNumAutomatableParametersDeprecated@AudioEffectX@@UEAAHXZ
	DQ	FLAT:?__getParameterQuantizationDeprecated@AudioEffectX@@UEAAHXZ
	DQ	FLAT:?__getNumCategoriesDeprecated@AudioEffectX@@UEAAHXZ
	DQ	FLAT:?__copyProgramDeprecated@AudioEffectX@@UEAA_NH@Z
	DQ	FLAT:?__needIdleDeprecated@AudioEffectX@@UEAA_NXZ
	DQ	FLAT:?__getPreviousPlugDeprecated@AudioEffectX@@UEAAPEAUAEffect@@H@Z
	DQ	FLAT:?__getNextPlugDeprecated@AudioEffectX@@UEAAPEAUAEffect@@H@Z
	DQ	FLAT:?__inputConnectedDeprecated@AudioEffectX@@UEAAXH_N@Z
	DQ	FLAT:?__outputConnectedDeprecated@AudioEffectX@@UEAAXH_N@Z
	DQ	FLAT:?__willProcessReplacingDeprecated@AudioEffectX@@UEAAHXZ
	DQ	FLAT:?__wantAsyncOperationDeprecated@AudioEffectX@@UEAAX_N@Z
	DQ	FLAT:?__hasExternalBufferDeprecated@AudioEffectX@@UEAAX_N@Z
	DQ	FLAT:?__reportCurrentPositionDeprecated@AudioEffectX@@UEAAHXZ
	DQ	FLAT:?__reportDestinationBufferDeprecated@AudioEffectX@@UEAAPEAMXZ
	DQ	FLAT:?__setOutputSamplerateDeprecated@AudioEffectX@@UEAAXM@Z
	DQ	FLAT:?__getInputSpeakerArrangementDeprecated@AudioEffectX@@UEAAPEAUVstSpeakerArrangement@@XZ
	DQ	FLAT:?__getOutputSpeakerArrangementDeprecated@AudioEffectX@@UEAAPEAUVstSpeakerArrangement@@XZ
	DQ	FLAT:?__openWindowDeprecated@AudioEffectX@@UEAAPEAXPEAU__VstWindowDeprecated@@@Z
	DQ	FLAT:?__closeWindowDeprecated@AudioEffectX@@UEAA_NPEAU__VstWindowDeprecated@@@Z
	DQ	FLAT:?__setBlockSizeAndSampleRateDeprecated@AudioEffectX@@UEAAXHM@Z
	DQ	FLAT:?__getErrorTextDeprecated@AudioEffectX@@UEAA_NPEAD@Z
	DQ	FLAT:?__getIconDeprecated@AudioEffectX@@UEAAPEAXXZ
	DQ	FLAT:?__setViewPositionDeprecated@AudioEffectX@@UEAA_NHH@Z
	DQ	FLAT:?__fxIdleDeprecated@AudioEffectX@@UEAAHXZ
	DQ	FLAT:?__keysRequiredDeprecated@AudioEffectX@@UEAA_NXZ
	DQ	FLAT:?__getChunkFileDeprecated@AudioEffectX@@UEAA_NPEAX@Z
CONST	ENDS
;	COMDAT ??_R1A@?0A@EA@AudioEffectX@@8
rdata$r	SEGMENT
??_R1A@?0A@EA@AudioEffectX@@8 DD imagerel ??_R0?AVAudioEffectX@@@8 ; AudioEffectX::`RTTI Base Class Descriptor at (0,-1,0,64)'
	DD	01H
	DD	00H
	DD	0ffffffffH
	DD	00H
	DD	040H
	DD	imagerel ??_R3AudioEffectX@@8
rdata$r	ENDS
;	COMDAT ??_R4AudioEffectX@@6B@
rdata$r	SEGMENT
??_R4AudioEffectX@@6B@ DD 01H				; AudioEffectX::`RTTI Complete Object Locator'
	DD	00H
	DD	00H
	DD	imagerel ??_R0?AVAudioEffectX@@@8
	DD	imagerel ??_R3AudioEffectX@@8
	DD	imagerel ??_R4AudioEffectX@@6B@
rdata$r	ENDS
;	COMDAT ??_R2AudioEffectX@@8
rdata$r	SEGMENT
??_R2AudioEffectX@@8 DD imagerel ??_R1A@?0A@EA@AudioEffectX@@8 ; AudioEffectX::`RTTI Base Class Array'
	DD	imagerel ??_R1A@?0A@EA@AudioEffect@@8
	ORG $+3
rdata$r	ENDS
;	COMDAT ??_C@_06HKHKKNNB@bypass@
CONST	SEGMENT
??_C@_06HKHKKNNB@bypass@ DB 'bypass', 00H		; `string'
CONST	ENDS
;	COMDAT ??_C@_0BB@FCGDCDJB@midiProgramNames@
CONST	SEGMENT
??_C@_0BB@FCGDCDJB@midiProgramNames@ DB 'midiProgramNames', 00H ; `string'
CONST	ENDS
;	COMDAT ??_C@_0BD@EFKFCLOB@receiveVstTimeInfo@
CONST	SEGMENT
??_C@_0BD@EFKFCLOB@receiveVstTimeInfo@ DB 'receiveVstTimeInfo', 00H ; `string'
CONST	ENDS
;	COMDAT ??_C@_0BP@BNOFLLOD@sendVstMidiEventFlagIsRealtime@
CONST	SEGMENT
??_C@_0BP@BNOFLLOD@sendVstMidiEventFlagIsRealtime@ DB 'sendVstMidiEventFl'
	DB	'agIsRealtime', 00H				; `string'
CONST	ENDS
;	COMDAT ??_C@_0O@JHMBCFDD@shellCategory@
CONST	SEGMENT
??_C@_0O@JHMBCFDD@shellCategory@ DB 'shellCategory', 00H ; `string'
CONST	ENDS
;	COMDAT ??_C@_0BB@CANNHKE@startStopProcess@
CONST	SEGMENT
??_C@_0BB@CANNHKE@startStopProcess@ DB 'startStopProcess', 00H ; `string'
CONST	ENDS
;	COMDAT ??_C@_0BC@LNIFLEPM@closeFileSelector@
CONST	SEGMENT
??_C@_0BC@LNIFLEPM@closeFileSelector@ DB 'closeFileSelector', 00H ; `string'
CONST	ENDS
;	COMDAT ??_C@_0BB@MMLONEO@openFileSelector@
CONST	SEGMENT
??_C@_0BB@MMLONEO@openFileSelector@ DB 'openFileSelector', 00H ; `string'
CONST	ENDS
;	COMDAT ??_C@_07OFPCFMBE@offline@
CONST	SEGMENT
??_C@_07OFPCFMBE@offline@ DB 'offline', 00H		; `string'
CONST	ENDS
;	COMDAT ??_C@_0L@FLPGPBDA@sizeWindow@
CONST	SEGMENT
??_C@_0L@FLPGPBDA@sizeWindow@ DB 'sizeWindow', 00H	; `string'
CONST	ENDS
;	COMDAT ??_C@_0BA@CLGFDKLL@acceptIOChanges@
CONST	SEGMENT
??_C@_0BA@CLGFDKLL@acceptIOChanges@ DB 'acceptIOChanges', 00H ; `string'
CONST	ENDS
;	COMDAT ??_C@_0BI@KIPHNALO@reportConnectionChanges@
CONST	SEGMENT
??_C@_0BI@KIPHNALO@reportConnectionChanges@ DB 'reportConnectionChanges', 00H ; `string'
CONST	ENDS
;	COMDAT ??_C@_0BE@KLGKMJKL@receiveVstMidiEvent@
CONST	SEGMENT
??_C@_0BE@KLGKMJKL@receiveVstMidiEvent@ DB 'receiveVstMidiEvent', 00H ; `string'
CONST	ENDS
;	COMDAT ??_C@_0BB@LOJILAKC@receiveVstEvents@
CONST	SEGMENT
??_C@_0BB@LOJILAKC@receiveVstEvents@ DB 'receiveVstEvents', 00H ; `string'
CONST	ENDS
;	COMDAT ??_C@_0BA@CEBMKOGA@sendVstTimeInfo@
CONST	SEGMENT
??_C@_0BA@CEBMKOGA@sendVstTimeInfo@ DB 'sendVstTimeInfo', 00H ; `string'
CONST	ENDS
;	COMDAT ??_C@_0BB@DBLEMDJI@sendVstMidiEvent@
CONST	SEGMENT
??_C@_0BB@DBLEMDJI@sendVstMidiEvent@ DB 'sendVstMidiEvent', 00H ; `string'
CONST	ENDS
;	COMDAT ??_C@_0O@MJEPJDIE@sendVstEvents@
CONST	SEGMENT
??_C@_0O@MJEPJDIE@sendVstEvents@ DB 'sendVstEvents', 00H ; `string'
PUBLIC	??$FromVstPtr@X@@YAPEAXAEA_J@Z			; FromVstPtr<void>
PUBLIC	??$FromVstPtr@UAEffect@@@@YAPEAUAEffect@@AEA_J@Z ; FromVstPtr<AEffect>
PUBLIC	??$FromVstPtr@UVstTimeInfo@@@@YAPEAUVstTimeInfo@@AEA_J@Z ; FromVstPtr<VstTimeInfo>
PUBLIC	??$FromVstPtr@PEAUVstSpeakerArrangement@@@@YAPEAPEAUVstSpeakerArrangement@@AEA_J@Z ; FromVstPtr<VstSpeakerArrangement *>
PUBLIC	??$FromVstPtr@UVstSpeakerArrangement@@@@YAPEAUVstSpeakerArrangement@@AEA_J@Z ; FromVstPtr<VstSpeakerArrangement>
PUBLIC	?matchArrangement@AudioEffectX@@UEAA_NPEAPEAUVstSpeakerArrangement@@PEAU2@@Z ; AudioEffectX::matchArrangement
PUBLIC	?copySpeaker@AudioEffectX@@UEAA_NPEAUVstSpeakerProperties@@0@Z ; AudioEffectX::copySpeaker
PUBLIC	?deallocateArrangement@AudioEffectX@@UEAA_NPEAPEAUVstSpeakerArrangement@@@Z ; AudioEffectX::deallocateArrangement
PUBLIC	?allocateArrangement@AudioEffectX@@UEAA_NPEAPEAUVstSpeakerArrangement@@H@Z ; AudioEffectX::allocateArrangement
PUBLIC	?__getChunkFileDeprecated@AudioEffectX@@UEAA_NPEAX@Z ; AudioEffectX::__getChunkFileDeprecated
PUBLIC	?closeFileSelector@AudioEffectX@@UEAA_NPEAUVstFileSelect@@@Z ; AudioEffectX::closeFileSelector
PUBLIC	?openFileSelector@AudioEffectX@@UEAA_NPEAUVstFileSelect@@@Z ; AudioEffectX::openFileSelector
PUBLIC	?endEdit@AudioEffectX@@UEAA_NH@Z		; AudioEffectX::endEdit
PUBLIC	?beginEdit@AudioEffectX@@UEAA_NH@Z		; AudioEffectX::beginEdit
PUBLIC	?updateDisplay@AudioEffectX@@UEAA_NXZ		; AudioEffectX::updateDisplay
PUBLIC	?getDirectory@AudioEffectX@@UEAAPEAXXZ		; AudioEffectX::getDirectory
PUBLIC	?__closeWindowDeprecated@AudioEffectX@@UEAA_NPEAU__VstWindowDeprecated@@@Z ; AudioEffectX::__closeWindowDeprecated
PUBLIC	?__openWindowDeprecated@AudioEffectX@@UEAAPEAXPEAU__VstWindowDeprecated@@@Z ; AudioEffectX::__openWindowDeprecated
PUBLIC	?getHostLanguage@AudioEffectX@@UEAAHXZ		; AudioEffectX::getHostLanguage
PUBLIC	?noTail@AudioEffectX@@UEAAX_N@Z			; AudioEffectX::noTail
PUBLIC	?isSynth@AudioEffectX@@UEAAX_N@Z		; AudioEffectX::isSynth
PUBLIC	?canHostDo@AudioEffectX@@UEAAHPEAD@Z		; AudioEffectX::canHostDo
PUBLIC	?hostVendorSpecific@AudioEffectX@@UEAA_JH_JPEAXM@Z ; AudioEffectX::hostVendorSpecific
PUBLIC	?getHostVendorVersion@AudioEffectX@@UEAAHXZ	; AudioEffectX::getHostVendorVersion
PUBLIC	?getHostProductString@AudioEffectX@@UEAA_NPEAD@Z ; AudioEffectX::getHostProductString
PUBLIC	?getHostVendorString@AudioEffectX@@UEAA_NPEAD@Z	; AudioEffectX::getHostVendorString
PUBLIC	?__getOutputSpeakerArrangementDeprecated@AudioEffectX@@UEAAPEAUVstSpeakerArrangement@@XZ ; AudioEffectX::__getOutputSpeakerArrangementDeprecated
PUBLIC	?__getInputSpeakerArrangementDeprecated@AudioEffectX@@UEAAPEAUVstSpeakerArrangement@@XZ ; AudioEffectX::__getInputSpeakerArrangementDeprecated
PUBLIC	?__setOutputSamplerateDeprecated@AudioEffectX@@UEAAXM@Z ; AudioEffectX::__setOutputSamplerateDeprecated
PUBLIC	?offlineGetCurrentMetaPass@AudioEffectX@@UEAAHXZ ; AudioEffectX::offlineGetCurrentMetaPass
PUBLIC	?offlineGetCurrentPass@AudioEffectX@@UEAAHXZ	; AudioEffectX::offlineGetCurrentPass
PUBLIC	?offlineStart@AudioEffectX@@UEAA_NPEAUVstAudioFile@@HH@Z ; AudioEffectX::offlineStart
PUBLIC	?offlineWrite@AudioEffectX@@UEAA_NPEAUVstOfflineTask@@W4VstOfflineOption@@@Z ; AudioEffectX::offlineWrite
PUBLIC	?offlineRead@AudioEffectX@@UEAA_NPEAUVstOfflineTask@@W4VstOfflineOption@@_N@Z ; AudioEffectX::offlineRead
PUBLIC	?__hasExternalBufferDeprecated@AudioEffectX@@UEAAX_N@Z ; AudioEffectX::__hasExternalBufferDeprecated
PUBLIC	?__wantAsyncOperationDeprecated@AudioEffectX@@UEAAX_N@Z ; AudioEffectX::__wantAsyncOperationDeprecated
PUBLIC	?getAutomationState@AudioEffectX@@UEAAHXZ	; AudioEffectX::getAutomationState
PUBLIC	?getCurrentProcessLevel@AudioEffectX@@UEAAHXZ	; AudioEffectX::getCurrentProcessLevel
PUBLIC	?__willProcessReplacingDeprecated@AudioEffectX@@UEAAHXZ ; AudioEffectX::__willProcessReplacingDeprecated
PUBLIC	?getPlugCategory@AudioEffectX@@UEAA?AW4VstPlugCategory@@XZ ; AudioEffectX::getPlugCategory
PUBLIC	?__getNextPlugDeprecated@AudioEffectX@@UEAAPEAUAEffect@@H@Z ; AudioEffectX::__getNextPlugDeprecated
PUBLIC	?__getPreviousPlugDeprecated@AudioEffectX@@UEAAPEAUAEffect@@H@Z ; AudioEffectX::__getPreviousPlugDeprecated
PUBLIC	?getOutputLatency@AudioEffectX@@UEAAHXZ		; AudioEffectX::getOutputLatency
PUBLIC	?getInputLatency@AudioEffectX@@UEAAHXZ		; AudioEffectX::getInputLatency
PUBLIC	?updateBlockSize@AudioEffectX@@UEAAHXZ		; AudioEffectX::updateBlockSize
PUBLIC	?updateSampleRate@AudioEffectX@@UEAANXZ		; AudioEffectX::updateSampleRate
PUBLIC	?sizeWindow@AudioEffectX@@UEAA_NHH@Z		; AudioEffectX::sizeWindow
PUBLIC	?__needIdleDeprecated@AudioEffectX@@UEAA_NXZ	; AudioEffectX::__needIdleDeprecated
PUBLIC	?ioChanged@AudioEffectX@@UEAA_NXZ		; AudioEffectX::ioChanged
PUBLIC	?__getParameterQuantizationDeprecated@AudioEffectX@@UEAAHXZ ; AudioEffectX::__getParameterQuantizationDeprecated
PUBLIC	?__getNumAutomatableParametersDeprecated@AudioEffectX@@UEAAHXZ ; AudioEffectX::__getNumAutomatableParametersDeprecated
PUBLIC	?__tempoAtDeprecated@AudioEffectX@@UEAAHH@Z	; AudioEffectX::__tempoAtDeprecated
PUBLIC	?getTimeInfo@AudioEffectX@@UEAAPEAUVstTimeInfo@@H@Z ; AudioEffectX::getTimeInfo
PUBLIC	?__wantEventsDeprecated@AudioEffectX@@UEAAXH@Z	; AudioEffectX::__wantEventsDeprecated
PUBLIC	?resume@AudioEffectX@@UEAAXXZ			; AudioEffectX::resume
PUBLIC	?dispatcher@AudioEffectX@@UEAA_JHH_JPEAXM@Z	; AudioEffectX::dispatcher
PUBLIC	??1AudioEffectX@@UEAA@XZ			; AudioEffectX::~AudioEffectX
PUBLIC	??_GAudioEffectX@@UEAAPEAXI@Z			; AudioEffectX::`scalar deleting destructor'
PUBLIC	??0AudioEffectX@@QEAA@P6A_JPEAUAEffect@@HH_JPEAXM@ZHH@Z ; AudioEffectX::AudioEffectX
PUBLIC	?__keysRequiredDeprecated@AudioEffectX@@UEAA_NXZ ; AudioEffectX::__keysRequiredDeprecated
PUBLIC	?__fxIdleDeprecated@AudioEffectX@@UEAAHXZ	; AudioEffectX::__fxIdleDeprecated
PUBLIC	?__setViewPositionDeprecated@AudioEffectX@@UEAA_NHH@Z ; AudioEffectX::__setViewPositionDeprecated
PUBLIC	?__getIconDeprecated@AudioEffectX@@UEAAPEAXXZ	; AudioEffectX::__getIconDeprecated
PUBLIC	?__getErrorTextDeprecated@AudioEffectX@@UEAA_NPEAD@Z ; AudioEffectX::__getErrorTextDeprecated
PUBLIC	?__setBlockSizeAndSampleRateDeprecated@AudioEffectX@@UEAAXHM@Z ; AudioEffectX::__setBlockSizeAndSampleRateDeprecated
PUBLIC	?__reportDestinationBufferDeprecated@AudioEffectX@@UEAAPEAMXZ ; AudioEffectX::__reportDestinationBufferDeprecated
PUBLIC	?__reportCurrentPositionDeprecated@AudioEffectX@@UEAAHXZ ; AudioEffectX::__reportCurrentPositionDeprecated
PUBLIC	?__outputConnectedDeprecated@AudioEffectX@@UEAAXH_N@Z ; AudioEffectX::__outputConnectedDeprecated
PUBLIC	?__inputConnectedDeprecated@AudioEffectX@@UEAAXH_N@Z ; AudioEffectX::__inputConnectedDeprecated
PUBLIC	?__copyProgramDeprecated@AudioEffectX@@UEAA_NH@Z ; AudioEffectX::__copyProgramDeprecated
PUBLIC	?__getNumCategoriesDeprecated@AudioEffectX@@UEAAHXZ ; AudioEffectX::__getNumCategoriesDeprecated
PUBLIC	?offlineGetNumMetaPasses@AudioEffectX@@UEAAHXZ	; AudioEffectX::offlineGetNumMetaPasses
PUBLIC	?offlineGetNumPasses@AudioEffectX@@UEAAHXZ	; AudioEffectX::offlineGetNumPasses
PUBLIC	?offlineRun@AudioEffectX@@UEAA_NPEAUVstOfflineTask@@H@Z ; AudioEffectX::offlineRun
PUBLIC	?offlinePrepare@AudioEffectX@@UEAA_NPEAUVstOfflineTask@@H@Z ; AudioEffectX::offlinePrepare
PUBLIC	?offlineNotify@AudioEffectX@@UEAA_NPEAUVstAudioFile@@H_N@Z ; AudioEffectX::offlineNotify
PUBLIC	?getNextShellPlugin@AudioEffectX@@UEAAHPEAD@Z	; AudioEffectX::getNextShellPlugin
PUBLIC	?getMidiKeyName@AudioEffectX@@UEAA_NHPEAUMidiKeyName@@@Z ; AudioEffectX::getMidiKeyName
PUBLIC	?hasMidiProgramsChanged@AudioEffectX@@UEAA_NH@Z	; AudioEffectX::hasMidiProgramsChanged
PUBLIC	?getMidiProgramCategory@AudioEffectX@@UEAAHHPEAUMidiProgramCategory@@@Z ; AudioEffectX::getMidiProgramCategory
PUBLIC	?getCurrentMidiProgram@AudioEffectX@@UEAAHHPEAUMidiProgramName@@@Z ; AudioEffectX::getCurrentMidiProgram
PUBLIC	?getMidiProgramName@AudioEffectX@@UEAAHHPEAUMidiProgramName@@@Z ; AudioEffectX::getMidiProgramName
PUBLIC	?getVstVersion@AudioEffectX@@UEAAHXZ		; AudioEffectX::getVstVersion
PUBLIC	?canDo@AudioEffectX@@UEAAHPEAD@Z		; AudioEffectX::canDo
PUBLIC	?vendorSpecific@AudioEffectX@@UEAA_JH_JPEAXM@Z	; AudioEffectX::vendorSpecific
PUBLIC	?getVendorVersion@AudioEffectX@@UEAAHXZ		; AudioEffectX::getVendorVersion
PUBLIC	?getProductString@AudioEffectX@@UEAA_NPEAD@Z	; AudioEffectX::getProductString
PUBLIC	?getVendorString@AudioEffectX@@UEAA_NPEAD@Z	; AudioEffectX::getVendorString
PUBLIC	?getEffectName@AudioEffectX@@UEAA_NPEAD@Z	; AudioEffectX::getEffectName
PUBLIC	?getGetTailSize@AudioEffectX@@UEAAHXZ		; AudioEffectX::getGetTailSize
PUBLIC	?setTotalSampleToProcess@AudioEffectX@@UEAAHH@Z	; AudioEffectX::setTotalSampleToProcess
PUBLIC	?processVariableIo@AudioEffectX@@UEAA_NPEAUVstVariableIo@@@Z ; AudioEffectX::processVariableIo
PUBLIC	?stopProcess@AudioEffectX@@UEAAHXZ		; AudioEffectX::stopProcess
PUBLIC	?startProcess@AudioEffectX@@UEAAHXZ		; AudioEffectX::startProcess
PUBLIC	?processEvents@AudioEffectX@@UEAAHPEAUVstEvents@@@Z ; AudioEffectX::processEvents
PUBLIC	?getNumMidiOutputChannels@AudioEffectX@@UEAAHXZ	; AudioEffectX::getNumMidiOutputChannels
PUBLIC	?getNumMidiInputChannels@AudioEffectX@@UEAAHXZ	; AudioEffectX::getNumMidiInputChannels
PUBLIC	?setProcessPrecision@AudioEffectX@@UEAA_NH@Z	; AudioEffectX::setProcessPrecision
PUBLIC	?setPanLaw@AudioEffectX@@UEAA_NHM@Z		; AudioEffectX::setPanLaw
PUBLIC	?setBypass@AudioEffectX@@UEAA_N_N@Z		; AudioEffectX::setBypass
PUBLIC	?getSpeakerArrangement@AudioEffectX@@UEAA_NPEAPEAUVstSpeakerArrangement@@0@Z ; AudioEffectX::getSpeakerArrangement
PUBLIC	?setSpeakerArrangement@AudioEffectX@@UEAA_NPEAUVstSpeakerArrangement@@0@Z ; AudioEffectX::setSpeakerArrangement
PUBLIC	?getOutputProperties@AudioEffectX@@UEAA_NHPEAUVstPinProperties@@@Z ; AudioEffectX::getOutputProperties
PUBLIC	?getInputProperties@AudioEffectX@@UEAA_NHPEAUVstPinProperties@@@Z ; AudioEffectX::getInputProperties
PUBLIC	?beginLoadProgram@AudioEffectX@@UEAAHPEAUVstPatchChunkInfo@@@Z ; AudioEffectX::beginLoadProgram
PUBLIC	?beginLoadBank@AudioEffectX@@UEAAHPEAUVstPatchChunkInfo@@@Z ; AudioEffectX::beginLoadBank
PUBLIC	?endSetProgram@AudioEffectX@@UEAA_NXZ		; AudioEffectX::endSetProgram
PUBLIC	?beginSetProgram@AudioEffectX@@UEAA_NXZ		; AudioEffectX::beginSetProgram
PUBLIC	?getProgramNameIndexed@AudioEffectX@@UEAA_NHHPEAD@Z ; AudioEffectX::getProgramNameIndexed
PUBLIC	?getParameterProperties@AudioEffectX@@UEAA_NHPEAUVstParameterProperties@@@Z ; AudioEffectX::getParameterProperties
PUBLIC	?string2parameter@AudioEffectX@@UEAA_NHPEAD@Z	; AudioEffectX::string2parameter
PUBLIC	?canParameterBeAutomated@AudioEffectX@@UEAA_NH@Z ; AudioEffectX::canParameterBeAutomated
EXTRN	??_EAudioEffectX@@UEAAPEAXI@Z:PROC		; AudioEffectX::`vector deleting destructor'
;	COMDAT pdata
pdata	SEGMENT
$pdata$?matchArrangement@AudioEffectX@@UEAA_NPEAPEAUVstSpeakerArrangement@@PEAU2@@Z DD imagerel $LN16@matchArran
	DD	imagerel $LN16@matchArran+165
	DD	imagerel $unwind$?matchArrangement@AudioEffectX@@UEAA_NPEAPEAUVstSpeakerArrangement@@PEAU2@@Z
pdata	ENDS
;	COMDAT pdata
pdata	SEGMENT
$pdata$?copySpeaker@AudioEffectX@@UEAA_NPEAUVstSpeakerProperties@@0@Z DD imagerel $LN8@copySpeake
	DD	imagerel $LN8@copySpeake+125
	DD	imagerel $unwind$?copySpeaker@AudioEffectX@@UEAA_NPEAUVstSpeakerProperties@@0@Z
pdata	ENDS
;	COMDAT pdata
pdata	SEGMENT
$pdata$?deallocateArrangement@AudioEffectX@@UEAA_NPEAPEAUVstSpeakerArrangement@@@Z DD imagerel $LN5@deallocate
	DD	imagerel $LN5@deallocate+34
	DD	imagerel $unwind$?deallocateArrangement@AudioEffectX@@UEAA_NPEAPEAUVstSpeakerArrangement@@@Z
pdata	ENDS
;	COMDAT pdata
pdata	SEGMENT
$pdata$?allocateArrangement@AudioEffectX@@UEAA_NPEAPEAUVstSpeakerArrangement@@H@Z DD imagerel $LN6@allocateAr
	DD	imagerel $LN6@allocateAr+101
	DD	imagerel $unwind$?allocateArrangement@AudioEffectX@@UEAA_NPEAPEAUVstSpeakerArrangement@@H@Z
pdata	ENDS
;	COMDAT pdata
pdata	SEGMENT
$pdata$?__getChunkFileDeprecated@AudioEffectX@@UEAA_NPEAX@Z DD imagerel $LN5@getChunkFi
	DD	imagerel $LN5@getChunkFi+63
	DD	imagerel $unwind$?__getChunkFileDeprecated@AudioEffectX@@UEAA_NPEAX@Z
pdata	ENDS
;	COMDAT pdata
pdata	SEGMENT
$pdata$?closeFileSelector@AudioEffectX@@UEAA_NPEAUVstFileSelect@@@Z DD imagerel $LN5@closeFileS
	DD	imagerel $LN5@closeFileS+63
	DD	imagerel $unwind$?closeFileSelector@AudioEffectX@@UEAA_NPEAUVstFileSelect@@@Z
pdata	ENDS
;	COMDAT pdata
pdata	SEGMENT
$pdata$?openFileSelector@AudioEffectX@@UEAA_NPEAUVstFileSelect@@@Z DD imagerel $LN5@openFileSe
	DD	imagerel $LN5@openFileSe+63
	DD	imagerel $unwind$?openFileSelector@AudioEffectX@@UEAA_NPEAUVstFileSelect@@@Z
pdata	ENDS
;	COMDAT pdata
pdata	SEGMENT
$pdata$?endEdit@AudioEffectX@@UEAA_NH@Z DD imagerel $LN5@endEdit
	DD	imagerel $LN5@endEdit+55
	DD	imagerel $unwind$?endEdit@AudioEffectX@@UEAA_NH@Z
pdata	ENDS
;	COMDAT pdata
pdata	SEGMENT
$pdata$?beginEdit@AudioEffectX@@UEAA_NH@Z DD imagerel $LN5@beginEdit
	DD	imagerel $LN5@beginEdit+55
	DD	imagerel $unwind$?beginEdit@AudioEffectX@@UEAA_NH@Z
pdata	ENDS
;	COMDAT pdata
pdata	SEGMENT
$pdata$?updateDisplay@AudioEffectX@@UEAA_NXZ DD imagerel $LN5@updateDisp
	DD	imagerel $LN5@updateDisp+55
	DD	imagerel $unwind$?updateDisplay@AudioEffectX@@UEAA_NXZ
pdata	ENDS
;	COMDAT pdata
pdata	SEGMENT
$pdata$?getDirectory@AudioEffectX@@UEAAPEAXXZ DD imagerel $LN5@getDirecto
	DD	imagerel $LN5@getDirecto+49
	DD	imagerel $unwind$?getDirectory@AudioEffectX@@UEAAPEAXXZ
pdata	ENDS
;	COMDAT pdata
pdata	SEGMENT
$pdata$?__closeWindowDeprecated@AudioEffectX@@UEAA_NPEAU__VstWindowDeprecated@@@Z DD imagerel $LN5@closeWindo
	DD	imagerel $LN5@closeWindo+54
	DD	imagerel $unwind$?__closeWindowDeprecated@AudioEffectX@@UEAA_NPEAU__VstWindowDeprecated@@@Z
pdata	ENDS
;	COMDAT pdata
pdata	SEGMENT
$pdata$?__openWindowDeprecated@AudioEffectX@@UEAAPEAXPEAU__VstWindowDeprecated@@@Z DD imagerel $LN5@openWindow
	DD	imagerel $LN5@openWindow+48
	DD	imagerel $unwind$?__openWindowDeprecated@AudioEffectX@@UEAAPEAXPEAU__VstWindowDeprecated@@@Z
pdata	ENDS
;	COMDAT pdata
pdata	SEGMENT
$pdata$?getHostLanguage@AudioEffectX@@UEAAHXZ DD imagerel $LN5@getHostLan
	DD	imagerel $LN5@getHostLan+49
	DD	imagerel $unwind$?getHostLanguage@AudioEffectX@@UEAAHXZ
pdata	ENDS
;	COMDAT pdata
pdata	SEGMENT
$pdata$?canHostDo@AudioEffectX@@UEAAHPEAD@Z DD imagerel $LN5@canHostDo
	DD	imagerel $LN5@canHostDo+60
	DD	imagerel $unwind$?canHostDo@AudioEffectX@@UEAAHPEAD@Z
pdata	ENDS
;	COMDAT pdata
pdata	SEGMENT
$pdata$?hostVendorSpecific@AudioEffectX@@UEAA_JH_JPEAXM@Z DD imagerel $LN5@hostVendor
	DD	imagerel $LN5@hostVendor+52
	DD	imagerel $unwind$?hostVendorSpecific@AudioEffectX@@UEAA_JH_JPEAXM@Z
pdata	ENDS
;	COMDAT pdata
pdata	SEGMENT
$pdata$?getHostVendorVersion@AudioEffectX@@UEAAHXZ DD imagerel $LN5@getHostVen
	DD	imagerel $LN5@getHostVen+49
	DD	imagerel $unwind$?getHostVendorVersion@AudioEffectX@@UEAAHXZ
pdata	ENDS
;	COMDAT pdata
pdata	SEGMENT
$pdata$?getHostProductString@AudioEffectX@@UEAA_NPEAD@Z DD imagerel $LN5@getHostPro
	DD	imagerel $LN5@getHostPro+54
	DD	imagerel $unwind$?getHostProductString@AudioEffectX@@UEAA_NPEAD@Z
pdata	ENDS
;	COMDAT pdata
pdata	SEGMENT
$pdata$?getHostVendorString@AudioEffectX@@UEAA_NPEAD@Z DD imagerel $LN5@getHostVen
	DD	imagerel $LN5@getHostVen+54
	DD	imagerel $unwind$?getHostVendorString@AudioEffectX@@UEAA_NPEAD@Z
pdata	ENDS
;	COMDAT pdata
pdata	SEGMENT
$pdata$?__getOutputSpeakerArrangementDeprecated@AudioEffectX@@UEAAPEAUVstSpeakerArrangement@@XZ DD imagerel $LN5@getOutputS
	DD	imagerel $LN5@getOutputS+49
	DD	imagerel $unwind$?__getOutputSpeakerArrangementDeprecated@AudioEffectX@@UEAAPEAUVstSpeakerArrangement@@XZ
pdata	ENDS
;	COMDAT pdata
pdata	SEGMENT
$pdata$?__getInputSpeakerArrangementDeprecated@AudioEffectX@@UEAAPEAUVstSpeakerArrangement@@XZ DD imagerel $LN5@getInputSp
	DD	imagerel $LN5@getInputSp+49
	DD	imagerel $unwind$?__getInputSpeakerArrangementDeprecated@AudioEffectX@@UEAAPEAUVstSpeakerArrangement@@XZ
pdata	ENDS
;	COMDAT pdata
pdata	SEGMENT
$pdata$?__setOutputSamplerateDeprecated@AudioEffectX@@UEAAXM@Z DD imagerel $LN5@setOutputS
	DD	imagerel $LN5@setOutputS+46
	DD	imagerel $unwind$?__setOutputSamplerateDeprecated@AudioEffectX@@UEAAXM@Z
pdata	ENDS
;	COMDAT pdata
pdata	SEGMENT
$pdata$?offlineGetCurrentMetaPass@AudioEffectX@@UEAAHXZ DD imagerel $LN5@offlineGet
	DD	imagerel $LN5@offlineGet+60
	DD	imagerel $unwind$?offlineGetCurrentMetaPass@AudioEffectX@@UEAAHXZ
pdata	ENDS
;	COMDAT pdata
pdata	SEGMENT
$pdata$?offlineGetCurrentPass@AudioEffectX@@UEAAHXZ DD imagerel $LN5@offlineGet
	DD	imagerel $LN5@offlineGet+60
	DD	imagerel $unwind$?offlineGetCurrentPass@AudioEffectX@@UEAAHXZ
pdata	ENDS
;	COMDAT pdata
pdata	SEGMENT
$pdata$?offlineStart@AudioEffectX@@UEAA_NPEAUVstAudioFile@@HH@Z DD imagerel $LN5@offlineSta
	DD	imagerel $LN5@offlineSta+58
	DD	imagerel $unwind$?offlineStart@AudioEffectX@@UEAA_NPEAUVstAudioFile@@HH@Z
pdata	ENDS
;	COMDAT pdata
pdata	SEGMENT
$pdata$?offlineWrite@AudioEffectX@@UEAA_NPEAUVstOfflineTask@@W4VstOfflineOption@@@Z DD imagerel $LN5@offlineWri
	DD	imagerel $LN5@offlineWri+54
	DD	imagerel $unwind$?offlineWrite@AudioEffectX@@UEAA_NPEAUVstOfflineTask@@W4VstOfflineOption@@@Z
pdata	ENDS
;	COMDAT pdata
pdata	SEGMENT
$pdata$?offlineRead@AudioEffectX@@UEAA_NPEAUVstOfflineTask@@W4VstOfflineOption@@_N@Z DD imagerel $LN5@offlineRea
	DD	imagerel $LN5@offlineRea+59
	DD	imagerel $unwind$?offlineRead@AudioEffectX@@UEAA_NPEAUVstOfflineTask@@W4VstOfflineOption@@_N@Z
pdata	ENDS
;	COMDAT pdata
pdata	SEGMENT
$pdata$?getAutomationState@AudioEffectX@@UEAAHXZ DD imagerel $LN5@getAutomat
	DD	imagerel $LN5@getAutomat+49
	DD	imagerel $unwind$?getAutomationState@AudioEffectX@@UEAAHXZ
pdata	ENDS
;	COMDAT pdata
pdata	SEGMENT
$pdata$?getCurrentProcessLevel@AudioEffectX@@UEAAHXZ DD imagerel $LN5@getCurrent
	DD	imagerel $LN5@getCurrent+49
	DD	imagerel $unwind$?getCurrentProcessLevel@AudioEffectX@@UEAAHXZ
pdata	ENDS
;	COMDAT pdata
pdata	SEGMENT
$pdata$?__willProcessReplacingDeprecated@AudioEffectX@@UEAAHXZ DD imagerel $LN5@willProces
	DD	imagerel $LN5@willProces+49
	DD	imagerel $unwind$?__willProcessReplacingDeprecated@AudioEffectX@@UEAAHXZ
pdata	ENDS
;	COMDAT pdata
pdata	SEGMENT
$pdata$?__getNextPlugDeprecated@AudioEffectX@@UEAAPEAUAEffect@@H@Z DD imagerel $LN5@getNextPlu
	DD	imagerel $LN5@getNextPlu+49
	DD	imagerel $unwind$?__getNextPlugDeprecated@AudioEffectX@@UEAAPEAUAEffect@@H@Z
pdata	ENDS
;	COMDAT pdata
pdata	SEGMENT
$pdata$?__getPreviousPlugDeprecated@AudioEffectX@@UEAAPEAUAEffect@@H@Z DD imagerel $LN5@getPreviou
	DD	imagerel $LN5@getPreviou+49
	DD	imagerel $unwind$?__getPreviousPlugDeprecated@AudioEffectX@@UEAAPEAUAEffect@@H@Z
pdata	ENDS
;	COMDAT pdata
pdata	SEGMENT
$pdata$?getOutputLatency@AudioEffectX@@UEAAHXZ DD imagerel $LN5@getOutputL
	DD	imagerel $LN5@getOutputL+49
	DD	imagerel $unwind$?getOutputLatency@AudioEffectX@@UEAAHXZ
pdata	ENDS
;	COMDAT pdata
pdata	SEGMENT
$pdata$?getInputLatency@AudioEffectX@@UEAAHXZ DD imagerel $LN5@getInputLa
	DD	imagerel $LN5@getInputLa+49
	DD	imagerel $unwind$?getInputLatency@AudioEffectX@@UEAAHXZ
pdata	ENDS
;	COMDAT pdata
pdata	SEGMENT
$pdata$?updateBlockSize@AudioEffectX@@UEAAHXZ DD imagerel $LN6@updateBloc
	DD	imagerel $LN6@updateBloc+65
	DD	imagerel $unwind$?updateBlockSize@AudioEffectX@@UEAAHXZ
pdata	ENDS
;	COMDAT pdata
pdata	SEGMENT
$pdata$?updateSampleRate@AudioEffectX@@UEAANXZ DD imagerel $LN6@updateSamp
	DD	imagerel $LN6@updateSamp+81
	DD	imagerel $unwind$?updateSampleRate@AudioEffectX@@UEAANXZ
pdata	ENDS
;	COMDAT pdata
pdata	SEGMENT
$pdata$?sizeWindow@AudioEffectX@@UEAA_NHH@Z DD imagerel $LN5@sizeWindow
	DD	imagerel $LN5@sizeWindow+56
	DD	imagerel $unwind$?sizeWindow@AudioEffectX@@UEAA_NHH@Z
pdata	ENDS
;	COMDAT pdata
pdata	SEGMENT
$pdata$?__needIdleDeprecated@AudioEffectX@@UEAA_NXZ DD imagerel $LN5@needIdleDe
	DD	imagerel $LN5@needIdleDe+55
	DD	imagerel $unwind$?__needIdleDeprecated@AudioEffectX@@UEAA_NXZ
pdata	ENDS
;	COMDAT pdata
pdata	SEGMENT
$pdata$?ioChanged@AudioEffectX@@UEAA_NXZ DD imagerel $LN5@ioChanged
	DD	imagerel $LN5@ioChanged+55
	DD	imagerel $unwind$?ioChanged@AudioEffectX@@UEAA_NXZ
pdata	ENDS
;	COMDAT pdata
pdata	SEGMENT
$pdata$?__getParameterQuantizationDeprecated@AudioEffectX@@UEAAHXZ DD imagerel $LN5@getParamet
	DD	imagerel $LN5@getParamet+49
	DD	imagerel $unwind$?__getParameterQuantizationDeprecated@AudioEffectX@@UEAAHXZ
pdata	ENDS
;	COMDAT pdata
pdata	SEGMENT
$pdata$?__getNumAutomatableParametersDeprecated@AudioEffectX@@UEAAHXZ DD imagerel $LN5@getNumAuto
	DD	imagerel $LN5@getNumAuto+49
	DD	imagerel $unwind$?__getNumAutomatableParametersDeprecated@AudioEffectX@@UEAAHXZ
pdata	ENDS
;	COMDAT pdata
pdata	SEGMENT
$pdata$?__tempoAtDeprecated@AudioEffectX@@UEAAHH@Z DD imagerel $LN5@tempoAtDep
	DD	imagerel $LN5@tempoAtDep+49
	DD	imagerel $unwind$?__tempoAtDeprecated@AudioEffectX@@UEAAHH@Z
pdata	ENDS
;	COMDAT pdata
pdata	SEGMENT
$pdata$?getTimeInfo@AudioEffectX@@UEAAPEAUVstTimeInfo@@H@Z DD imagerel $LN5@getTimeInf
	DD	imagerel $LN5@getTimeInf+49
	DD	imagerel $unwind$?getTimeInfo@AudioEffectX@@UEAAPEAUVstTimeInfo@@H@Z
pdata	ENDS
;	COMDAT pdata
pdata	SEGMENT
$pdata$?__wantEventsDeprecated@AudioEffectX@@UEAAXH@Z DD imagerel $LN5@wantEvents
	DD	imagerel $LN5@wantEvents+49
	DD	imagerel $unwind$?__wantEventsDeprecated@AudioEffectX@@UEAAXH@Z
pdata	ENDS
;	COMDAT pdata
pdata	SEGMENT
$pdata$?resume@AudioEffectX@@UEAAXXZ DD imagerel $LN6@resume
	DD	imagerel $LN6@resume+62
	DD	imagerel $unwind$?resume@AudioEffectX@@UEAAXXZ
pdata	ENDS
;	COMDAT pdata
pdata	SEGMENT
$pdata$?dispatcher@AudioEffectX@@UEAA_JHH_JPEAXM@Z DD imagerel $LN64@dispatcher
	DD	imagerel $LN64@dispatcher+1282
	DD	imagerel $unwind$?dispatcher@AudioEffectX@@UEAA_JHH_JPEAXM@Z
pdata	ENDS
;	COMDAT pdata
pdata	SEGMENT
$pdata$??_GAudioEffectX@@UEAAPEAXI@Z DD imagerel $LN9@scalar
	DD	imagerel $LN9@scalar+52
	DD	imagerel $unwind$??_GAudioEffectX@@UEAAPEAXI@Z
pdata	ENDS
;	COMDAT pdata
pdata	SEGMENT
$pdata$??0AudioEffectX@@QEAA@P6A_JPEAUAEffect@@HH_JPEAXM@ZHH@Z DD imagerel $LN11@AudioEffec
	DD	imagerel $LN11@AudioEffec+251
	DD	imagerel $unwind$??0AudioEffectX@@QEAA@P6A_JPEAUAEffect@@HH_JPEAXM@ZHH@Z
;	COMDAT xdata
xdata	SEGMENT
$unwind$??0AudioEffectX@@QEAA@P6A_JPEAUAEffect@@HH_JPEAXM@ZHH@Z DQ 00006340a00040a01r ; 8.62672e-309
	DD	07006320aH
xdata	ENDS
;	COMDAT xdata
xdata	SEGMENT
$unwind$??_GAudioEffectX@@UEAAPEAXI@Z DQ 00006340a00040a01r ; 8.62672e-309
	DD	07006320aH
xdata	ENDS
;	COMDAT xdata
xdata	SEGMENT
$unwind$?dispatcher@AudioEffectX@@UEAA_JHH_JPEAXM@Z DQ 0000a340d00040d01r ; 1.41895e-308
	DD	05006720dH
xdata	ENDS
;	COMDAT xdata
xdata	SEGMENT
$unwind$?resume@AudioEffectX@@UEAAXXZ DQ 03002320600020601r ; 1.96423e-77
xdata	ENDS
;	COMDAT xdata
xdata	SEGMENT
$unwind$?__wantEventsDeprecated@AudioEffectX@@UEAAXH@Z DQ 00000620400010401r ; 5.32451e-310
xdata	ENDS
;	COMDAT xdata
xdata	SEGMENT
$unwind$?getTimeInfo@AudioEffectX@@UEAAPEAUVstTimeInfo@@H@Z DQ 00000620400010401r ; 5.32451e-310
xdata	ENDS
;	COMDAT xdata
xdata	SEGMENT
$unwind$?__tempoAtDeprecated@AudioEffectX@@UEAAHH@Z DQ 00000620400010401r ; 5.32451e-310
xdata	ENDS
;	COMDAT xdata
xdata	SEGMENT
$unwind$?__getNumAutomatableParametersDeprecated@AudioEffectX@@UEAAHXZ DQ 00000620400010401r ; 5.32451e-310
xdata	ENDS
;	COMDAT xdata
xdata	SEGMENT
$unwind$?__getParameterQuantizationDeprecated@AudioEffectX@@UEAAHXZ DQ 00000620400010401r ; 5.32451e-310
xdata	ENDS
;	COMDAT xdata
xdata	SEGMENT
$unwind$?ioChanged@AudioEffectX@@UEAA_NXZ DQ 00000620400010401r ; 5.32451e-310
xdata	ENDS
;	COMDAT xdata
xdata	SEGMENT
$unwind$?__needIdleDeprecated@AudioEffectX@@UEAA_NXZ DQ 00000620400010401r ; 5.32451e-310
xdata	ENDS
;	COMDAT xdata
xdata	SEGMENT
$unwind$?sizeWindow@AudioEffectX@@UEAA_NHH@Z DQ 00000620400010401r ; 5.32451e-310
xdata	ENDS
;	COMDAT xdata
xdata	SEGMENT
$unwind$?updateSampleRate@AudioEffectX@@UEAANXZ DQ 03002520600020601r ; 1.97773e-77
xdata	ENDS
;	COMDAT xdata
xdata	SEGMENT
$unwind$?updateBlockSize@AudioEffectX@@UEAAHXZ DQ 03002520600020601r ; 1.97773e-77
xdata	ENDS
;	COMDAT xdata
xdata	SEGMENT
$unwind$?getInputLatency@AudioEffectX@@UEAAHXZ DQ 00000620400010401r ; 5.32451e-310
xdata	ENDS
;	COMDAT xdata
xdata	SEGMENT
$unwind$?getOutputLatency@AudioEffectX@@UEAAHXZ DQ 00000620400010401r ; 5.32451e-310
xdata	ENDS
;	COMDAT xdata
xdata	SEGMENT
$unwind$?__getPreviousPlugDeprecated@AudioEffectX@@UEAAPEAUAEffect@@H@Z DQ 00000620400010401r ; 5.32451e-310
xdata	ENDS
;	COMDAT xdata
xdata	SEGMENT
$unwind$?__getNextPlugDeprecated@AudioEffectX@@UEAAPEAUAEffect@@H@Z DQ 00000620400010401r ; 5.32451e-310
xdata	ENDS
;	COMDAT xdata
xdata	SEGMENT
$unwind$?__willProcessReplacingDeprecated@AudioEffectX@@UEAAHXZ DQ 00000620400010401r ; 5.32451e-310
xdata	ENDS
;	COMDAT xdata
xdata	SEGMENT
$unwind$?getCurrentProcessLevel@AudioEffectX@@UEAAHXZ DQ 00000620400010401r ; 5.32451e-310
xdata	ENDS
;	COMDAT xdata
xdata	SEGMENT
$unwind$?getAutomationState@AudioEffectX@@UEAAHXZ DQ 00000620400010401r ; 5.32451e-310
xdata	ENDS
;	COMDAT xdata
xdata	SEGMENT
$unwind$?offlineRead@AudioEffectX@@UEAA_NPEAUVstOfflineTask@@W4VstOfflineOption@@_N@Z DQ 00000620400010401r ; 5.32451e-310
xdata	ENDS
;	COMDAT xdata
xdata	SEGMENT
$unwind$?offlineWrite@AudioEffectX@@UEAA_NPEAUVstOfflineTask@@W4VstOfflineOption@@@Z DQ 00000620400010401r ; 5.32451e-310
xdata	ENDS
;	COMDAT xdata
xdata	SEGMENT
$unwind$?offlineStart@AudioEffectX@@UEAA_NPEAUVstAudioFile@@HH@Z DQ 00000620400010401r ; 5.32451e-310
xdata	ENDS
;	COMDAT xdata
xdata	SEGMENT
$unwind$?offlineGetCurrentPass@AudioEffectX@@UEAAHXZ DQ 03002520600020601r ; 1.97773e-77
xdata	ENDS
;	COMDAT xdata
xdata	SEGMENT
$unwind$?offlineGetCurrentMetaPass@AudioEffectX@@UEAAHXZ DQ 03002520600020601r ; 1.97773e-77
xdata	ENDS
;	COMDAT xdata
xdata	SEGMENT
$unwind$?__setOutputSamplerateDeprecated@AudioEffectX@@UEAAXM@Z DQ 00000620400010401r ; 5.32451e-310
xdata	ENDS
;	COMDAT xdata
xdata	SEGMENT
$unwind$?__getInputSpeakerArrangementDeprecated@AudioEffectX@@UEAAPEAUVstSpeakerArrangement@@XZ DQ 00000620400010401r ; 5.32451e-310
xdata	ENDS
;	COMDAT xdata
xdata	SEGMENT
$unwind$?__getOutputSpeakerArrangementDeprecated@AudioEffectX@@UEAAPEAUVstSpeakerArrangement@@XZ DQ 00000620400010401r ; 5.32451e-310
xdata	ENDS
;	COMDAT xdata
xdata	SEGMENT
$unwind$?getHostVendorString@AudioEffectX@@UEAA_NPEAD@Z DQ 00000620400010401r ; 5.32451e-310
xdata	ENDS
;	COMDAT xdata
xdata	SEGMENT
$unwind$?getHostProductString@AudioEffectX@@UEAA_NPEAD@Z DQ 00000620400010401r ; 5.32451e-310
xdata	ENDS
;	COMDAT xdata
xdata	SEGMENT
$unwind$?getHostVendorVersion@AudioEffectX@@UEAAHXZ DQ 00000620400010401r ; 5.32451e-310
xdata	ENDS
;	COMDAT xdata
xdata	SEGMENT
$unwind$?hostVendorSpecific@AudioEffectX@@UEAA_JH_JPEAXM@Z DQ 00000620400010401r ; 5.32451e-310
xdata	ENDS
;	COMDAT xdata
xdata	SEGMENT
$unwind$?canHostDo@AudioEffectX@@UEAAHPEAD@Z DQ 03002520600020601r ; 1.97773e-77
xdata	ENDS
;	COMDAT xdata
xdata	SEGMENT
$unwind$?getHostLanguage@AudioEffectX@@UEAAHXZ DQ 00000620400010401r ; 5.32451e-310
xdata	ENDS
;	COMDAT xdata
xdata	SEGMENT
$unwind$?__openWindowDeprecated@AudioEffectX@@UEAAPEAXPEAU__VstWindowDeprecated@@@Z DQ 00000620400010401r ; 5.32451e-310
xdata	ENDS
;	COMDAT xdata
xdata	SEGMENT
$unwind$?__closeWindowDeprecated@AudioEffectX@@UEAA_NPEAU__VstWindowDeprecated@@@Z DQ 00000620400010401r ; 5.32451e-310
xdata	ENDS
;	COMDAT xdata
xdata	SEGMENT
$unwind$?getDirectory@AudioEffectX@@UEAAPEAXXZ DQ 00000620400010401r ; 5.32451e-310
xdata	ENDS
;	COMDAT xdata
xdata	SEGMENT
$unwind$?updateDisplay@AudioEffectX@@UEAA_NXZ DQ 00000620400010401r ; 5.32451e-310
xdata	ENDS
;	COMDAT xdata
xdata	SEGMENT
$unwind$?beginEdit@AudioEffectX@@UEAA_NH@Z DQ 00000620400010401r ; 5.32451e-310
xdata	ENDS
;	COMDAT xdata
xdata	SEGMENT
$unwind$?endEdit@AudioEffectX@@UEAA_NH@Z DQ 00000620400010401r ; 5.32451e-310
xdata	ENDS
;	COMDAT xdata
xdata	SEGMENT
$unwind$?openFileSelector@AudioEffectX@@UEAA_NPEAUVstFileSelect@@@Z DQ 00000620400010401r ; 5.32451e-310
xdata	ENDS
;	COMDAT xdata
xdata	SEGMENT
$unwind$?closeFileSelector@AudioEffectX@@UEAA_NPEAUVstFileSelect@@@Z DQ 00000620400010401r ; 5.32451e-310
xdata	ENDS
;	COMDAT xdata
xdata	SEGMENT
$unwind$?__getChunkFileDeprecated@AudioEffectX@@UEAA_NPEAX@Z DQ 00000620400010401r ; 5.32451e-310
xdata	ENDS
;	COMDAT xdata
xdata	SEGMENT
$unwind$?allocateArrangement@AudioEffectX@@UEAA_NPEAPEAUVstSpeakerArrangement@@H@Z DQ 00008641400081401r ; 1.1669e-308
	DQ	00006341400075414r		; 8.62693e-309
	DD	070103214H
xdata	ENDS
;	COMDAT xdata
xdata	SEGMENT
$unwind$?deallocateArrangement@AudioEffectX@@UEAA_NPEAPEAUVstSpeakerArrangement@@@Z DQ 03002320600020601r ; 1.96423e-77
xdata	ENDS
;	COMDAT xdata
xdata	SEGMENT
$unwind$?copySpeaker@AudioEffectX@@UEAA_NPEAUVstSpeakerProperties@@0@Z DQ 00007640f00060f01r ; 1.02782e-308
	DQ	0700b320f0006340fr		; 5.2777e+231
xdata	ENDS
;	COMDAT xdata
xdata	SEGMENT
$unwind$?matchArrangement@AudioEffectX@@UEAA_NPEAPEAUVstSpeakerArrangement@@PEAU2@@Z DQ 00008741500081501r ; 1.1756e-308
	DQ	00006341500076415r		; 8.62695e-309
	DD	0e0113215H
END
