; Listing generated by Microsoft (R) Optimizing Compiler Version 19.29.30133.0 

	TITLE	E:\FoxSuite\misefx\MisEfx\Debug\audioeffectx.obj
	.686P
	.XMM
	include listing.inc
	.model	flat

INCLUDELIB MSVCRT
INCLUDELIB OLDNAMES

PUBLIC	?canDoSendVstEvents@HostCanDos@@3PBDB		; HostCanDos::canDoSendVstEvents
PUBLIC	?canDoSendVstMidiEvent@HostCanDos@@3PBDB	; HostCanDos::canDoSendVstMidiEvent
PUBLIC	?canDoSendVstTimeInfo@HostCanDos@@3PBDB		; HostCanDos::canDoSendVstTimeInfo
PUBLIC	?canDoReceiveVstEvents@HostCanDos@@3PBDB	; HostCanDos::canDoReceiveVstEvents
PUBLIC	?canDoReceiveVstMidiEvent@HostCanDos@@3PBDB	; HostCanDos::canDoReceiveVstMidiEvent
PUBLIC	?canDoReportConnectionChanges@HostCanDos@@3PBDB	; HostCanDos::canDoReportConnectionChanges
PUBLIC	?canDoAcceptIOChanges@HostCanDos@@3PBDB		; HostCanDos::canDoAcceptIOChanges
PUBLIC	?canDoSizeWindow@HostCanDos@@3PBDB		; HostCanDos::canDoSizeWindow
PUBLIC	?canDoOffline@HostCanDos@@3PBDB			; HostCanDos::canDoOffline
PUBLIC	?canDoOpenFileSelector@HostCanDos@@3PBDB	; HostCanDos::canDoOpenFileSelector
PUBLIC	?canDoCloseFileSelector@HostCanDos@@3PBDB	; HostCanDos::canDoCloseFileSelector
PUBLIC	?canDoStartStopProcess@HostCanDos@@3PBDB	; HostCanDos::canDoStartStopProcess
PUBLIC	?canDoShellCategory@HostCanDos@@3PBDB		; HostCanDos::canDoShellCategory
PUBLIC	?canDoSendVstMidiEventFlagIsRealtime@HostCanDos@@3PBDB ; HostCanDos::canDoSendVstMidiEventFlagIsRealtime
PUBLIC	?canDoSendVstEvents@PlugCanDos@@3PBDB		; PlugCanDos::canDoSendVstEvents
PUBLIC	?canDoSendVstMidiEvent@PlugCanDos@@3PBDB	; PlugCanDos::canDoSendVstMidiEvent
PUBLIC	?canDoReceiveVstEvents@PlugCanDos@@3PBDB	; PlugCanDos::canDoReceiveVstEvents
PUBLIC	?canDoReceiveVstMidiEvent@PlugCanDos@@3PBDB	; PlugCanDos::canDoReceiveVstMidiEvent
PUBLIC	?canDoReceiveVstTimeInfo@PlugCanDos@@3PBDB	; PlugCanDos::canDoReceiveVstTimeInfo
PUBLIC	?canDoOffline@PlugCanDos@@3PBDB			; PlugCanDos::canDoOffline
PUBLIC	?canDoMidiProgramNames@PlugCanDos@@3PBDB	; PlugCanDos::canDoMidiProgramNames
PUBLIC	?canDoBypass@PlugCanDos@@3PBDB			; PlugCanDos::canDoBypass
CONST	SEGMENT
$SG5191	DB	'sendVstEvents', 00H
	ORG $+2
$SG5193	DB	'sendVstMidiEvent', 00H
	ORG $+3
$SG5195	DB	'sendVstTimeInfo', 00H
$SG5197	DB	'receiveVstEvents', 00H
	ORG $+3
$SG5199	DB	'receiveVstMidiEvent', 00H
$SG5201	DB	'reportConnectionChanges', 00H
$SG5203	DB	'acceptIOChanges', 00H
$SG5205	DB	'sizeWindow', 00H
	ORG $+1
$SG5207	DB	'offline', 00H
$SG5209	DB	'openFileSelector', 00H
	ORG $+3
$SG5211	DB	'closeFileSelector', 00H
	ORG $+2
$SG5213	DB	'startStopProcess', 00H
	ORG $+3
$SG5215	DB	'shellCategory', 00H
	ORG $+2
$SG5217	DB	'sendVstMidiEventFlagIsRealtime', 00H
	ORG $+1
$SG5220	DB	'sendVstEvents', 00H
	ORG $+2
$SG5222	DB	'sendVstMidiEvent', 00H
	ORG $+3
$SG5224	DB	'receiveVstEvents', 00H
	ORG $+3
$SG5226	DB	'receiveVstMidiEvent', 00H
$SG5228	DB	'receiveVstTimeInfo', 00H
	ORG $+1
$SG5230	DB	'offline', 00H
$SG5232	DB	'midiProgramNames', 00H
	ORG $+3
$SG5234	DB	'bypass', 00H
	ORG $+1
$SG5356	DB	'receiveVstMidiEvent', 00H
CONST	ENDS
_DATA	SEGMENT
?canDoSendVstEvents@HostCanDos@@3PBDB DD FLAT:$SG5191	; HostCanDos::canDoSendVstEvents
?canDoSendVstMidiEvent@HostCanDos@@3PBDB DD FLAT:$SG5193 ; HostCanDos::canDoSendVstMidiEvent
?canDoSendVstTimeInfo@HostCanDos@@3PBDB DD FLAT:$SG5195	; HostCanDos::canDoSendVstTimeInfo
?canDoReceiveVstEvents@HostCanDos@@3PBDB DD FLAT:$SG5197 ; HostCanDos::canDoReceiveVstEvents
?canDoReceiveVstMidiEvent@HostCanDos@@3PBDB DD FLAT:$SG5199 ; HostCanDos::canDoReceiveVstMidiEvent
?canDoReportConnectionChanges@HostCanDos@@3PBDB DD FLAT:$SG5201 ; HostCanDos::canDoReportConnectionChanges
?canDoAcceptIOChanges@HostCanDos@@3PBDB DD FLAT:$SG5203	; HostCanDos::canDoAcceptIOChanges
?canDoSizeWindow@HostCanDos@@3PBDB DD FLAT:$SG5205	; HostCanDos::canDoSizeWindow
?canDoOffline@HostCanDos@@3PBDB DD FLAT:$SG5207		; HostCanDos::canDoOffline
?canDoOpenFileSelector@HostCanDos@@3PBDB DD FLAT:$SG5209 ; HostCanDos::canDoOpenFileSelector
?canDoCloseFileSelector@HostCanDos@@3PBDB DD FLAT:$SG5211 ; HostCanDos::canDoCloseFileSelector
?canDoStartStopProcess@HostCanDos@@3PBDB DD FLAT:$SG5213 ; HostCanDos::canDoStartStopProcess
?canDoShellCategory@HostCanDos@@3PBDB DD FLAT:$SG5215	; HostCanDos::canDoShellCategory
?canDoSendVstMidiEventFlagIsRealtime@HostCanDos@@3PBDB DD FLAT:$SG5217 ; HostCanDos::canDoSendVstMidiEventFlagIsRealtime
?canDoSendVstEvents@PlugCanDos@@3PBDB DD FLAT:$SG5220	; PlugCanDos::canDoSendVstEvents
?canDoSendVstMidiEvent@PlugCanDos@@3PBDB DD FLAT:$SG5222 ; PlugCanDos::canDoSendVstMidiEvent
?canDoReceiveVstEvents@PlugCanDos@@3PBDB DD FLAT:$SG5224 ; PlugCanDos::canDoReceiveVstEvents
?canDoReceiveVstMidiEvent@PlugCanDos@@3PBDB DD FLAT:$SG5226 ; PlugCanDos::canDoReceiveVstMidiEvent
?canDoReceiveVstTimeInfo@PlugCanDos@@3PBDB DD FLAT:$SG5228 ; PlugCanDos::canDoReceiveVstTimeInfo
?canDoOffline@PlugCanDos@@3PBDB DD FLAT:$SG5230		; PlugCanDos::canDoOffline
?canDoMidiProgramNames@PlugCanDos@@3PBDB DD FLAT:$SG5232 ; PlugCanDos::canDoMidiProgramNames
?canDoBypass@PlugCanDos@@3PBDB DD FLAT:$SG5234		; PlugCanDos::canDoBypass
_DATA	ENDS
PUBLIC	?vst_strncpy@@YAPADPADPBDI@Z			; vst_strncpy
PUBLIC	?open@AudioEffect@@UAEXXZ			; AudioEffect::open
PUBLIC	?close@AudioEffect@@UAEXXZ			; AudioEffect::close
PUBLIC	?suspend@AudioEffect@@UAEXXZ			; AudioEffect::suspend
PUBLIC	?setSampleRate@AudioEffect@@UAEXM@Z		; AudioEffect::setSampleRate
PUBLIC	?setBlockSize@AudioEffect@@UAEXH@Z		; AudioEffect::setBlockSize
PUBLIC	?processDoubleReplacing@AudioEffect@@UAEXPAPAN0H@Z ; AudioEffect::processDoubleReplacing
PUBLIC	?setParameter@AudioEffect@@UAEXHM@Z		; AudioEffect::setParameter
PUBLIC	?getParameter@AudioEffect@@UAEMH@Z		; AudioEffect::getParameter
PUBLIC	?getProgram@AudioEffect@@UAEHXZ			; AudioEffect::getProgram
PUBLIC	?setProgram@AudioEffect@@UAEXH@Z		; AudioEffect::setProgram
PUBLIC	?setProgramName@AudioEffect@@UAEXPAD@Z		; AudioEffect::setProgramName
PUBLIC	?getProgramName@AudioEffect@@UAEXPAD@Z		; AudioEffect::getProgramName
PUBLIC	?getParameterLabel@AudioEffect@@UAEXHPAD@Z	; AudioEffect::getParameterLabel
PUBLIC	?getParameterDisplay@AudioEffect@@UAEXHPAD@Z	; AudioEffect::getParameterDisplay
PUBLIC	?getParameterName@AudioEffect@@UAEXHPAD@Z	; AudioEffect::getParameterName
PUBLIC	?getChunk@AudioEffect@@UAEHPAPAX_N@Z		; AudioEffect::getChunk
PUBLIC	?setChunk@AudioEffect@@UAEHPAXH_N@Z		; AudioEffect::setChunk
PUBLIC	?setUniqueID@AudioEffect@@UAEXH@Z		; AudioEffect::setUniqueID
PUBLIC	?setNumInputs@AudioEffect@@UAEXH@Z		; AudioEffect::setNumInputs
PUBLIC	?setNumOutputs@AudioEffect@@UAEXH@Z		; AudioEffect::setNumOutputs
PUBLIC	?getEditor@AudioEffect@@UAEPAVAEffEditor@@XZ	; AudioEffect::getEditor
PUBLIC	?getAeffect@AudioEffect@@UAEPAUAEffect@@XZ	; AudioEffect::getAeffect
PUBLIC	?getSampleRate@AudioEffect@@UAEMXZ		; AudioEffect::getSampleRate
PUBLIC	?getBlockSize@AudioEffect@@UAEHXZ		; AudioEffect::getBlockSize
PUBLIC	?__processDeprecated@AudioEffect@@UAEXPAPAM0H@Z	; AudioEffect::__processDeprecated
PUBLIC	?__getVuDeprecated@AudioEffect@@UAEMXZ		; AudioEffect::__getVuDeprecated
PUBLIC	??0AudioEffectX@@QAE@P6AHPAUAEffect@@HHHPAXM@ZHH@Z ; AudioEffectX::AudioEffectX
PUBLIC	?canParameterBeAutomated@AudioEffectX@@UAE_NH@Z	; AudioEffectX::canParameterBeAutomated
PUBLIC	?string2parameter@AudioEffectX@@UAE_NHPAD@Z	; AudioEffectX::string2parameter
PUBLIC	?getParameterProperties@AudioEffectX@@UAE_NHPAUVstParameterProperties@@@Z ; AudioEffectX::getParameterProperties
PUBLIC	?beginEdit@AudioEffectX@@UAE_NH@Z		; AudioEffectX::beginEdit
PUBLIC	?endEdit@AudioEffectX@@UAE_NH@Z			; AudioEffectX::endEdit
PUBLIC	?getProgramNameIndexed@AudioEffectX@@UAE_NHHPAD@Z ; AudioEffectX::getProgramNameIndexed
PUBLIC	?beginSetProgram@AudioEffectX@@UAE_NXZ		; AudioEffectX::beginSetProgram
PUBLIC	?endSetProgram@AudioEffectX@@UAE_NXZ		; AudioEffectX::endSetProgram
PUBLIC	?beginLoadBank@AudioEffectX@@UAEHPAUVstPatchChunkInfo@@@Z ; AudioEffectX::beginLoadBank
PUBLIC	?beginLoadProgram@AudioEffectX@@UAEHPAUVstPatchChunkInfo@@@Z ; AudioEffectX::beginLoadProgram
PUBLIC	?ioChanged@AudioEffectX@@UAE_NXZ		; AudioEffectX::ioChanged
PUBLIC	?updateSampleRate@AudioEffectX@@UAENXZ		; AudioEffectX::updateSampleRate
PUBLIC	?updateBlockSize@AudioEffectX@@UAEHXZ		; AudioEffectX::updateBlockSize
PUBLIC	?getInputLatency@AudioEffectX@@UAEHXZ		; AudioEffectX::getInputLatency
PUBLIC	?getOutputLatency@AudioEffectX@@UAEHXZ		; AudioEffectX::getOutputLatency
PUBLIC	?getInputProperties@AudioEffectX@@UAE_NHPAUVstPinProperties@@@Z ; AudioEffectX::getInputProperties
PUBLIC	?getOutputProperties@AudioEffectX@@UAE_NHPAUVstPinProperties@@@Z ; AudioEffectX::getOutputProperties
PUBLIC	?setSpeakerArrangement@AudioEffectX@@UAE_NPAUVstSpeakerArrangement@@0@Z ; AudioEffectX::setSpeakerArrangement
PUBLIC	?getSpeakerArrangement@AudioEffectX@@UAE_NPAPAUVstSpeakerArrangement@@0@Z ; AudioEffectX::getSpeakerArrangement
PUBLIC	?setBypass@AudioEffectX@@UAE_N_N@Z		; AudioEffectX::setBypass
PUBLIC	?setPanLaw@AudioEffectX@@UAE_NHM@Z		; AudioEffectX::setPanLaw
PUBLIC	?setProcessPrecision@AudioEffectX@@UAE_NH@Z	; AudioEffectX::setProcessPrecision
PUBLIC	?getNumMidiInputChannels@AudioEffectX@@UAEHXZ	; AudioEffectX::getNumMidiInputChannels
PUBLIC	?getNumMidiOutputChannels@AudioEffectX@@UAEHXZ	; AudioEffectX::getNumMidiOutputChannels
PUBLIC	?getTimeInfo@AudioEffectX@@UAEPAUVstTimeInfo@@H@Z ; AudioEffectX::getTimeInfo
PUBLIC	?getCurrentProcessLevel@AudioEffectX@@UAEHXZ	; AudioEffectX::getCurrentProcessLevel
PUBLIC	?getAutomationState@AudioEffectX@@UAEHXZ	; AudioEffectX::getAutomationState
PUBLIC	?processEvents@AudioEffectX@@UAEHPAUVstEvents@@@Z ; AudioEffectX::processEvents
PUBLIC	?sendVstEventsToHost@AudioEffectX@@QAE_NPAUVstEvents@@@Z ; AudioEffectX::sendVstEventsToHost
PUBLIC	?startProcess@AudioEffectX@@UAEHXZ		; AudioEffectX::startProcess
PUBLIC	?stopProcess@AudioEffectX@@UAEHXZ		; AudioEffectX::stopProcess
PUBLIC	?processVariableIo@AudioEffectX@@UAE_NPAUVstVariableIo@@@Z ; AudioEffectX::processVariableIo
PUBLIC	?setTotalSampleToProcess@AudioEffectX@@UAEHH@Z	; AudioEffectX::setTotalSampleToProcess
PUBLIC	?getHostVendorString@AudioEffectX@@UAE_NPAD@Z	; AudioEffectX::getHostVendorString
PUBLIC	?getHostProductString@AudioEffectX@@UAE_NPAD@Z	; AudioEffectX::getHostProductString
PUBLIC	?getHostVendorVersion@AudioEffectX@@UAEHXZ	; AudioEffectX::getHostVendorVersion
PUBLIC	?hostVendorSpecific@AudioEffectX@@UAEHHHPAXM@Z	; AudioEffectX::hostVendorSpecific
PUBLIC	?canHostDo@AudioEffectX@@UAEHPAD@Z		; AudioEffectX::canHostDo
PUBLIC	?getHostLanguage@AudioEffectX@@UAEHXZ		; AudioEffectX::getHostLanguage
PUBLIC	?isSynth@AudioEffectX@@UAEX_N@Z			; AudioEffectX::isSynth
PUBLIC	?noTail@AudioEffectX@@UAEX_N@Z			; AudioEffectX::noTail
PUBLIC	?getGetTailSize@AudioEffectX@@UAEHXZ		; AudioEffectX::getGetTailSize
PUBLIC	?getDirectory@AudioEffectX@@UAEPAXXZ		; AudioEffectX::getDirectory
PUBLIC	?getEffectName@AudioEffectX@@UAE_NPAD@Z		; AudioEffectX::getEffectName
PUBLIC	?getVendorString@AudioEffectX@@UAE_NPAD@Z	; AudioEffectX::getVendorString
PUBLIC	?getProductString@AudioEffectX@@UAE_NPAD@Z	; AudioEffectX::getProductString
PUBLIC	?getVendorVersion@AudioEffectX@@UAEHXZ		; AudioEffectX::getVendorVersion
PUBLIC	?vendorSpecific@AudioEffectX@@UAEHHHPAXM@Z	; AudioEffectX::vendorSpecific
PUBLIC	?canDo@AudioEffectX@@UAEHPAD@Z			; AudioEffectX::canDo
PUBLIC	?getVstVersion@AudioEffectX@@UAEHXZ		; AudioEffectX::getVstVersion
PUBLIC	?getPlugCategory@AudioEffectX@@UAE?AW4VstPlugCategory@@XZ ; AudioEffectX::getPlugCategory
PUBLIC	?getMidiProgramName@AudioEffectX@@UAEHHPAUMidiProgramName@@@Z ; AudioEffectX::getMidiProgramName
PUBLIC	?getCurrentMidiProgram@AudioEffectX@@UAEHHPAUMidiProgramName@@@Z ; AudioEffectX::getCurrentMidiProgram
PUBLIC	?getMidiProgramCategory@AudioEffectX@@UAEHHPAUMidiProgramCategory@@@Z ; AudioEffectX::getMidiProgramCategory
PUBLIC	?hasMidiProgramsChanged@AudioEffectX@@UAE_NH@Z	; AudioEffectX::hasMidiProgramsChanged
PUBLIC	?getMidiKeyName@AudioEffectX@@UAE_NHPAUMidiKeyName@@@Z ; AudioEffectX::getMidiKeyName
PUBLIC	?updateDisplay@AudioEffectX@@UAE_NXZ		; AudioEffectX::updateDisplay
PUBLIC	?sizeWindow@AudioEffectX@@UAE_NHH@Z		; AudioEffectX::sizeWindow
PUBLIC	?openFileSelector@AudioEffectX@@UAE_NPAUVstFileSelect@@@Z ; AudioEffectX::openFileSelector
PUBLIC	?closeFileSelector@AudioEffectX@@UAE_NPAUVstFileSelect@@@Z ; AudioEffectX::closeFileSelector
PUBLIC	?getNextShellPlugin@AudioEffectX@@UAEHPAD@Z	; AudioEffectX::getNextShellPlugin
PUBLIC	?allocateArrangement@AudioEffectX@@UAE_NPAPAUVstSpeakerArrangement@@H@Z ; AudioEffectX::allocateArrangement
PUBLIC	?deallocateArrangement@AudioEffectX@@UAE_NPAPAUVstSpeakerArrangement@@@Z ; AudioEffectX::deallocateArrangement
PUBLIC	?copySpeaker@AudioEffectX@@UAE_NPAUVstSpeakerProperties@@0@Z ; AudioEffectX::copySpeaker
PUBLIC	?matchArrangement@AudioEffectX@@UAE_NPAPAUVstSpeakerArrangement@@PAU2@@Z ; AudioEffectX::matchArrangement
PUBLIC	?offlineRead@AudioEffectX@@UAE_NPAUVstOfflineTask@@W4VstOfflineOption@@_N@Z ; AudioEffectX::offlineRead
PUBLIC	?offlineWrite@AudioEffectX@@UAE_NPAUVstOfflineTask@@W4VstOfflineOption@@@Z ; AudioEffectX::offlineWrite
PUBLIC	?offlineStart@AudioEffectX@@UAE_NPAUVstAudioFile@@HH@Z ; AudioEffectX::offlineStart
PUBLIC	?offlineGetCurrentPass@AudioEffectX@@UAEHXZ	; AudioEffectX::offlineGetCurrentPass
PUBLIC	?offlineGetCurrentMetaPass@AudioEffectX@@UAEHXZ	; AudioEffectX::offlineGetCurrentMetaPass
PUBLIC	?offlineNotify@AudioEffectX@@UAE_NPAUVstAudioFile@@H_N@Z ; AudioEffectX::offlineNotify
PUBLIC	?offlinePrepare@AudioEffectX@@UAE_NPAUVstOfflineTask@@H@Z ; AudioEffectX::offlinePrepare
PUBLIC	?offlineRun@AudioEffectX@@UAE_NPAUVstOfflineTask@@H@Z ; AudioEffectX::offlineRun
PUBLIC	?offlineGetNumPasses@AudioEffectX@@UAEHXZ	; AudioEffectX::offlineGetNumPasses
PUBLIC	?offlineGetNumMetaPasses@AudioEffectX@@UAEHXZ	; AudioEffectX::offlineGetNumMetaPasses
PUBLIC	?dispatcher@AudioEffectX@@UAEHHHHPAXM@Z		; AudioEffectX::dispatcher
PUBLIC	?resume@AudioEffectX@@UAEXXZ			; AudioEffectX::resume
PUBLIC	?__wantEventsDeprecated@AudioEffectX@@UAEXH@Z	; AudioEffectX::__wantEventsDeprecated
PUBLIC	?__tempoAtDeprecated@AudioEffectX@@UAEHH@Z	; AudioEffectX::__tempoAtDeprecated
PUBLIC	?__getNumAutomatableParametersDeprecated@AudioEffectX@@UAEHXZ ; AudioEffectX::__getNumAutomatableParametersDeprecated
PUBLIC	?__getParameterQuantizationDeprecated@AudioEffectX@@UAEHXZ ; AudioEffectX::__getParameterQuantizationDeprecated
PUBLIC	?__getNumCategoriesDeprecated@AudioEffectX@@UAEHXZ ; AudioEffectX::__getNumCategoriesDeprecated
PUBLIC	?__copyProgramDeprecated@AudioEffectX@@UAE_NH@Z	; AudioEffectX::__copyProgramDeprecated
PUBLIC	?__needIdleDeprecated@AudioEffectX@@UAE_NXZ	; AudioEffectX::__needIdleDeprecated
PUBLIC	?__getPreviousPlugDeprecated@AudioEffectX@@UAEPAUAEffect@@H@Z ; AudioEffectX::__getPreviousPlugDeprecated
PUBLIC	?__getNextPlugDeprecated@AudioEffectX@@UAEPAUAEffect@@H@Z ; AudioEffectX::__getNextPlugDeprecated
PUBLIC	?__inputConnectedDeprecated@AudioEffectX@@UAEXH_N@Z ; AudioEffectX::__inputConnectedDeprecated
PUBLIC	?__outputConnectedDeprecated@AudioEffectX@@UAEXH_N@Z ; AudioEffectX::__outputConnectedDeprecated
PUBLIC	?__willProcessReplacingDeprecated@AudioEffectX@@UAEHXZ ; AudioEffectX::__willProcessReplacingDeprecated
PUBLIC	?__wantAsyncOperationDeprecated@AudioEffectX@@UAEX_N@Z ; AudioEffectX::__wantAsyncOperationDeprecated
PUBLIC	?__hasExternalBufferDeprecated@AudioEffectX@@UAEX_N@Z ; AudioEffectX::__hasExternalBufferDeprecated
PUBLIC	?__reportCurrentPositionDeprecated@AudioEffectX@@UAEHXZ ; AudioEffectX::__reportCurrentPositionDeprecated
PUBLIC	?__reportDestinationBufferDeprecated@AudioEffectX@@UAEPAMXZ ; AudioEffectX::__reportDestinationBufferDeprecated
PUBLIC	?__setOutputSamplerateDeprecated@AudioEffectX@@UAEXM@Z ; AudioEffectX::__setOutputSamplerateDeprecated
PUBLIC	?__getInputSpeakerArrangementDeprecated@AudioEffectX@@UAEPAUVstSpeakerArrangement@@XZ ; AudioEffectX::__getInputSpeakerArrangementDeprecated
PUBLIC	?__getOutputSpeakerArrangementDeprecated@AudioEffectX@@UAEPAUVstSpeakerArrangement@@XZ ; AudioEffectX::__getOutputSpeakerArrangementDeprecated
PUBLIC	?__openWindowDeprecated@AudioEffectX@@UAEPAXPAU__VstWindowDeprecated@@@Z ; AudioEffectX::__openWindowDeprecated
PUBLIC	?__closeWindowDeprecated@AudioEffectX@@UAE_NPAU__VstWindowDeprecated@@@Z ; AudioEffectX::__closeWindowDeprecated
PUBLIC	?__setBlockSizeAndSampleRateDeprecated@AudioEffectX@@UAEXHM@Z ; AudioEffectX::__setBlockSizeAndSampleRateDeprecated
PUBLIC	?__getErrorTextDeprecated@AudioEffectX@@UAE_NPAD@Z ; AudioEffectX::__getErrorTextDeprecated
PUBLIC	?__getIconDeprecated@AudioEffectX@@UAEPAXXZ	; AudioEffectX::__getIconDeprecated
PUBLIC	?__setViewPositionDeprecated@AudioEffectX@@UAE_NHH@Z ; AudioEffectX::__setViewPositionDeprecated
PUBLIC	?__fxIdleDeprecated@AudioEffectX@@UAEHXZ	; AudioEffectX::__fxIdleDeprecated
PUBLIC	?__keysRequiredDeprecated@AudioEffectX@@UAE_NXZ	; AudioEffectX::__keysRequiredDeprecated
PUBLIC	?__getChunkFileDeprecated@AudioEffectX@@UAE_NPAX@Z ; AudioEffectX::__getChunkFileDeprecated
PUBLIC	??1AudioEffectX@@UAE@XZ				; AudioEffectX::~AudioEffectX
PUBLIC	??_GAudioEffectX@@UAEPAXI@Z			; AudioEffectX::`scalar deleting destructor'
PUBLIC	??$FromVstPtr@UVstSpeakerArrangement@@@@YAPAUVstSpeakerArrangement@@AAH@Z ; FromVstPtr<VstSpeakerArrangement>
PUBLIC	??$FromVstPtr@PAUVstSpeakerArrangement@@@@YAPAPAUVstSpeakerArrangement@@AAH@Z ; FromVstPtr<VstSpeakerArrangement *>
PUBLIC	??$FromVstPtr@UVstTimeInfo@@@@YAPAUVstTimeInfo@@AAH@Z ; FromVstPtr<VstTimeInfo>
PUBLIC	??$FromVstPtr@UAEffect@@@@YAPAUAEffect@@AAH@Z	; FromVstPtr<AEffect>
PUBLIC	??$FromVstPtr@X@@YAPAXAAH@Z			; FromVstPtr<void>
PUBLIC	??_7AudioEffectX@@6B@				; AudioEffectX::`vftable'
PUBLIC	??_R4AudioEffectX@@6B@				; AudioEffectX::`RTTI Complete Object Locator'
PUBLIC	??_R0?AVAudioEffectX@@@8			; AudioEffectX `RTTI Type Descriptor'
PUBLIC	??_R3AudioEffectX@@8				; AudioEffectX::`RTTI Class Hierarchy Descriptor'
PUBLIC	??_R2AudioEffectX@@8				; AudioEffectX::`RTTI Base Class Array'
PUBLIC	??_R1A@?0A@EA@AudioEffectX@@8			; AudioEffectX::`RTTI Base Class Descriptor at (0,-1,0,64)'
PUBLIC	??_R1A@?0A@EA@AudioEffect@@8			; AudioEffect::`RTTI Base Class Descriptor at (0,-1,0,64)'
PUBLIC	??_R0?AVAudioEffect@@@8				; AudioEffect `RTTI Type Descriptor'
PUBLIC	??_R3AudioEffect@@8				; AudioEffect::`RTTI Class Hierarchy Descriptor'
PUBLIC	??_R2AudioEffect@@8				; AudioEffect::`RTTI Base Class Array'
PUBLIC	__real@00000000
EXTRN	__purecall:PROC
EXTRN	??3@YAXPAXI@Z:PROC				; operator delete
EXTRN	??_U@YAPAXI@Z:PROC				; operator new[]
EXTRN	??_V@YAXPAX@Z:PROC				; operator delete[]
EXTRN	_memcpy:PROC
EXTRN	_memset:PROC
EXTRN	__imp__strncpy:PROC
EXTRN	??0AudioEffect@@QAE@P6AHPAUAEffect@@HHHPAXM@ZHH@Z:PROC ; AudioEffect::AudioEffect
EXTRN	??1AudioEffect@@UAE@XZ:PROC			; AudioEffect::~AudioEffect
EXTRN	?dispatcher@AudioEffect@@UAEHHHHPAXM@Z:PROC	; AudioEffect::dispatcher
EXTRN	?setParameterAutomated@AudioEffect@@UAEXHM@Z:PROC ; AudioEffect::setParameterAutomated
EXTRN	?canProcessReplacing@AudioEffect@@UAEX_N@Z:PROC	; AudioEffect::canProcessReplacing
EXTRN	?canDoubleReplacing@AudioEffect@@UAEX_N@Z:PROC	; AudioEffect::canDoubleReplacing
EXTRN	?programsAreChunks@AudioEffect@@UAEX_N@Z:PROC	; AudioEffect::programsAreChunks
EXTRN	?setInitialDelay@AudioEffect@@UAEXH@Z:PROC	; AudioEffect::setInitialDelay
EXTRN	?getMasterVersion@AudioEffect@@UAEHXZ:PROC	; AudioEffect::getMasterVersion
EXTRN	?getCurrentUniqueId@AudioEffect@@UAEHXZ:PROC	; AudioEffect::getCurrentUniqueId
EXTRN	?masterIdle@AudioEffect@@UAEXXZ:PROC		; AudioEffect::masterIdle
EXTRN	?dB2string@AudioEffect@@UAEXMPADH@Z:PROC	; AudioEffect::dB2string
EXTRN	?Hz2string@AudioEffect@@UAEXMPADH@Z:PROC	; AudioEffect::Hz2string
EXTRN	?ms2string@AudioEffect@@UAEXMPADH@Z:PROC	; AudioEffect::ms2string
EXTRN	?float2string@AudioEffect@@UAEXMPADH@Z:PROC	; AudioEffect::float2string
EXTRN	?int2string@AudioEffect@@UAEXHPADH@Z:PROC	; AudioEffect::int2string
EXTRN	?__hasVuDeprecated@AudioEffect@@UAEX_N@Z:PROC	; AudioEffect::__hasVuDeprecated
EXTRN	?__hasClipDeprecated@AudioEffect@@UAEX_N@Z:PROC	; AudioEffect::__hasClipDeprecated
EXTRN	?__canMonoDeprecated@AudioEffect@@UAEX_N@Z:PROC	; AudioEffect::__canMonoDeprecated
EXTRN	?__setRealtimeQualitiesDeprecated@AudioEffect@@UAEXH@Z:PROC ; AudioEffect::__setRealtimeQualitiesDeprecated
EXTRN	?__setOfflineQualitiesDeprecated@AudioEffect@@UAEXH@Z:PROC ; AudioEffect::__setOfflineQualitiesDeprecated
EXTRN	?__isInputConnectedDeprecated@AudioEffect@@UAE_NH@Z:PROC ; AudioEffect::__isInputConnectedDeprecated
EXTRN	?__isOutputConnectedDeprecated@AudioEffect@@UAE_NH@Z:PROC ; AudioEffect::__isOutputConnectedDeprecated
EXTRN	??_EAudioEffectX@@UAEPAXI@Z:PROC		; AudioEffectX::`vector deleting destructor'
EXTRN	@_RTC_CheckStackVars@8:PROC
EXTRN	__RTC_CheckEsp:PROC
EXTRN	__RTC_InitBase:PROC
EXTRN	__RTC_Shutdown:PROC
EXTRN	??_7type_info@@6B@:QWORD			; type_info::`vftable'
EXTRN	__fltused:DWORD
;	COMDAT __real@00000000
CONST	SEGMENT
__real@00000000 DD 000000000r			; 0
CONST	ENDS
;	COMDAT rtc$TMZ
rtc$TMZ	SEGMENT
__RTC_Shutdown.rtc$TMZ DD FLAT:__RTC_Shutdown
rtc$TMZ	ENDS
;	COMDAT rtc$IMZ
rtc$IMZ	SEGMENT
__RTC_InitBase.rtc$IMZ DD FLAT:__RTC_InitBase
rtc$IMZ	ENDS
;	COMDAT ??_R2AudioEffect@@8
rdata$r	SEGMENT
??_R2AudioEffect@@8 DD FLAT:??_R1A@?0A@EA@AudioEffect@@8 ; AudioEffect::`RTTI Base Class Array'
rdata$r	ENDS
;	COMDAT ??_R3AudioEffect@@8
rdata$r	SEGMENT
??_R3AudioEffect@@8 DD 00H				; AudioEffect::`RTTI Class Hierarchy Descriptor'
	DD	00H
	DD	01H
	DD	FLAT:??_R2AudioEffect@@8
rdata$r	ENDS
;	COMDAT ??_R0?AVAudioEffect@@@8
data$rs	SEGMENT
??_R0?AVAudioEffect@@@8 DD FLAT:??_7type_info@@6B@	; AudioEffect `RTTI Type Descriptor'
	DD	00H
	DB	'.?AVAudioEffect@@', 00H
data$rs	ENDS
;	COMDAT ??_R1A@?0A@EA@AudioEffect@@8
rdata$r	SEGMENT
??_R1A@?0A@EA@AudioEffect@@8 DD FLAT:??_R0?AVAudioEffect@@@8 ; AudioEffect::`RTTI Base Class Descriptor at (0,-1,0,64)'
	DD	00H
	DD	00H
	DD	0ffffffffH
	DD	00H
	DD	040H
	DD	FLAT:??_R3AudioEffect@@8
rdata$r	ENDS
;	COMDAT ??_R1A@?0A@EA@AudioEffectX@@8
rdata$r	SEGMENT
??_R1A@?0A@EA@AudioEffectX@@8 DD FLAT:??_R0?AVAudioEffectX@@@8 ; AudioEffectX::`RTTI Base Class Descriptor at (0,-1,0,64)'
	DD	01H
	DD	00H
	DD	0ffffffffH
	DD	00H
	DD	040H
	DD	FLAT:??_R3AudioEffectX@@8
rdata$r	ENDS
;	COMDAT ??_R2AudioEffectX@@8
rdata$r	SEGMENT
??_R2AudioEffectX@@8 DD FLAT:??_R1A@?0A@EA@AudioEffectX@@8 ; AudioEffectX::`RTTI Base Class Array'
	DD	FLAT:??_R1A@?0A@EA@AudioEffect@@8
rdata$r	ENDS
;	COMDAT ??_R3AudioEffectX@@8
rdata$r	SEGMENT
??_R3AudioEffectX@@8 DD 00H				; AudioEffectX::`RTTI Class Hierarchy Descriptor'
	DD	00H
	DD	02H
	DD	FLAT:??_R2AudioEffectX@@8
rdata$r	ENDS
;	COMDAT ??_R0?AVAudioEffectX@@@8
data$rs	SEGMENT
??_R0?AVAudioEffectX@@@8 DD FLAT:??_7type_info@@6B@	; AudioEffectX `RTTI Type Descriptor'
	DD	00H
	DB	'.?AVAudioEffectX@@', 00H
data$rs	ENDS
;	COMDAT ??_R4AudioEffectX@@6B@
rdata$r	SEGMENT
??_R4AudioEffectX@@6B@ DD 00H				; AudioEffectX::`RTTI Complete Object Locator'
	DD	00H
	DD	00H
	DD	FLAT:??_R0?AVAudioEffectX@@@8
	DD	FLAT:??_R3AudioEffectX@@8
rdata$r	ENDS
;	COMDAT ??_7AudioEffectX@@6B@
CONST	SEGMENT
??_7AudioEffectX@@6B@ DD FLAT:??_R4AudioEffectX@@6B@	; AudioEffectX::`vftable'
	DD	FLAT:??_EAudioEffectX@@UAEPAXI@Z
	DD	FLAT:?dispatcher@AudioEffectX@@UAEHHHHPAXM@Z
	DD	FLAT:?open@AudioEffect@@UAEXXZ
	DD	FLAT:?close@AudioEffect@@UAEXXZ
	DD	FLAT:?suspend@AudioEffect@@UAEXXZ
	DD	FLAT:?resume@AudioEffectX@@UAEXXZ
	DD	FLAT:?setSampleRate@AudioEffect@@UAEXM@Z
	DD	FLAT:?setBlockSize@AudioEffect@@UAEXH@Z
	DD	FLAT:__purecall
	DD	FLAT:?processDoubleReplacing@AudioEffect@@UAEXPAPAN0H@Z
	DD	FLAT:?setParameter@AudioEffect@@UAEXHM@Z
	DD	FLAT:?getParameter@AudioEffect@@UAEMH@Z
	DD	FLAT:?setParameterAutomated@AudioEffect@@UAEXHM@Z
	DD	FLAT:?getProgram@AudioEffect@@UAEHXZ
	DD	FLAT:?setProgram@AudioEffect@@UAEXH@Z
	DD	FLAT:?setProgramName@AudioEffect@@UAEXPAD@Z
	DD	FLAT:?getProgramName@AudioEffect@@UAEXPAD@Z
	DD	FLAT:?getParameterLabel@AudioEffect@@UAEXHPAD@Z
	DD	FLAT:?getParameterDisplay@AudioEffect@@UAEXHPAD@Z
	DD	FLAT:?getParameterName@AudioEffect@@UAEXHPAD@Z
	DD	FLAT:?getChunk@AudioEffect@@UAEHPAPAX_N@Z
	DD	FLAT:?setChunk@AudioEffect@@UAEHPAXH_N@Z
	DD	FLAT:?setUniqueID@AudioEffect@@UAEXH@Z
	DD	FLAT:?setNumInputs@AudioEffect@@UAEXH@Z
	DD	FLAT:?setNumOutputs@AudioEffect@@UAEXH@Z
	DD	FLAT:?canProcessReplacing@AudioEffect@@UAEX_N@Z
	DD	FLAT:?canDoubleReplacing@AudioEffect@@UAEX_N@Z
	DD	FLAT:?programsAreChunks@AudioEffect@@UAEX_N@Z
	DD	FLAT:?setInitialDelay@AudioEffect@@UAEXH@Z
	DD	FLAT:?getEditor@AudioEffect@@UAEPAVAEffEditor@@XZ
	DD	FLAT:?getAeffect@AudioEffect@@UAEPAUAEffect@@XZ
	DD	FLAT:?getSampleRate@AudioEffect@@UAEMXZ
	DD	FLAT:?getBlockSize@AudioEffect@@UAEHXZ
	DD	FLAT:?getMasterVersion@AudioEffect@@UAEHXZ
	DD	FLAT:?getCurrentUniqueId@AudioEffect@@UAEHXZ
	DD	FLAT:?masterIdle@AudioEffect@@UAEXXZ
	DD	FLAT:?dB2string@AudioEffect@@UAEXMPADH@Z
	DD	FLAT:?Hz2string@AudioEffect@@UAEXMPADH@Z
	DD	FLAT:?ms2string@AudioEffect@@UAEXMPADH@Z
	DD	FLAT:?float2string@AudioEffect@@UAEXMPADH@Z
	DD	FLAT:?int2string@AudioEffect@@UAEXHPADH@Z
	DD	FLAT:?__processDeprecated@AudioEffect@@UAEXPAPAM0H@Z
	DD	FLAT:?__getVuDeprecated@AudioEffect@@UAEMXZ
	DD	FLAT:?__hasVuDeprecated@AudioEffect@@UAEX_N@Z
	DD	FLAT:?__hasClipDeprecated@AudioEffect@@UAEX_N@Z
	DD	FLAT:?__canMonoDeprecated@AudioEffect@@UAEX_N@Z
	DD	FLAT:?__setRealtimeQualitiesDeprecated@AudioEffect@@UAEXH@Z
	DD	FLAT:?__setOfflineQualitiesDeprecated@AudioEffect@@UAEXH@Z
	DD	FLAT:?__isInputConnectedDeprecated@AudioEffect@@UAE_NH@Z
	DD	FLAT:?__isOutputConnectedDeprecated@AudioEffect@@UAE_NH@Z
	DD	FLAT:?canParameterBeAutomated@AudioEffectX@@UAE_NH@Z
	DD	FLAT:?string2parameter@AudioEffectX@@UAE_NHPAD@Z
	DD	FLAT:?getParameterProperties@AudioEffectX@@UAE_NHPAUVstParameterProperties@@@Z
	DD	FLAT:?beginEdit@AudioEffectX@@UAE_NH@Z
	DD	FLAT:?endEdit@AudioEffectX@@UAE_NH@Z
	DD	FLAT:?getProgramNameIndexed@AudioEffectX@@UAE_NHHPAD@Z
	DD	FLAT:?beginSetProgram@AudioEffectX@@UAE_NXZ
	DD	FLAT:?endSetProgram@AudioEffectX@@UAE_NXZ
	DD	FLAT:?beginLoadBank@AudioEffectX@@UAEHPAUVstPatchChunkInfo@@@Z
	DD	FLAT:?beginLoadProgram@AudioEffectX@@UAEHPAUVstPatchChunkInfo@@@Z
	DD	FLAT:?ioChanged@AudioEffectX@@UAE_NXZ
	DD	FLAT:?updateSampleRate@AudioEffectX@@UAENXZ
	DD	FLAT:?updateBlockSize@AudioEffectX@@UAEHXZ
	DD	FLAT:?getInputLatency@AudioEffectX@@UAEHXZ
	DD	FLAT:?getOutputLatency@AudioEffectX@@UAEHXZ
	DD	FLAT:?getInputProperties@AudioEffectX@@UAE_NHPAUVstPinProperties@@@Z
	DD	FLAT:?getOutputProperties@AudioEffectX@@UAE_NHPAUVstPinProperties@@@Z
	DD	FLAT:?setSpeakerArrangement@AudioEffectX@@UAE_NPAUVstSpeakerArrangement@@0@Z
	DD	FLAT:?getSpeakerArrangement@AudioEffectX@@UAE_NPAPAUVstSpeakerArrangement@@0@Z
	DD	FLAT:?setBypass@AudioEffectX@@UAE_N_N@Z
	DD	FLAT:?setPanLaw@AudioEffectX@@UAE_NHM@Z
	DD	FLAT:?setProcessPrecision@AudioEffectX@@UAE_NH@Z
	DD	FLAT:?getNumMidiInputChannels@AudioEffectX@@UAEHXZ
	DD	FLAT:?getNumMidiOutputChannels@AudioEffectX@@UAEHXZ
	DD	FLAT:?getTimeInfo@AudioEffectX@@UAEPAUVstTimeInfo@@H@Z
	DD	FLAT:?getCurrentProcessLevel@AudioEffectX@@UAEHXZ
	DD	FLAT:?getAutomationState@AudioEffectX@@UAEHXZ
	DD	FLAT:?processEvents@AudioEffectX@@UAEHPAUVstEvents@@@Z
	DD	FLAT:?startProcess@AudioEffectX@@UAEHXZ
	DD	FLAT:?stopProcess@AudioEffectX@@UAEHXZ
	DD	FLAT:?processVariableIo@AudioEffectX@@UAE_NPAUVstVariableIo@@@Z
	DD	FLAT:?setTotalSampleToProcess@AudioEffectX@@UAEHH@Z
	DD	FLAT:?getHostVendorString@AudioEffectX@@UAE_NPAD@Z
	DD	FLAT:?getHostProductString@AudioEffectX@@UAE_NPAD@Z
	DD	FLAT:?getHostVendorVersion@AudioEffectX@@UAEHXZ
	DD	FLAT:?hostVendorSpecific@AudioEffectX@@UAEHHHPAXM@Z
	DD	FLAT:?canHostDo@AudioEffectX@@UAEHPAD@Z
	DD	FLAT:?getHostLanguage@AudioEffectX@@UAEHXZ
	DD	FLAT:?isSynth@AudioEffectX@@UAEX_N@Z
	DD	FLAT:?noTail@AudioEffectX@@UAEX_N@Z
	DD	FLAT:?getGetTailSize@AudioEffectX@@UAEHXZ
	DD	FLAT:?getDirectory@AudioEffectX@@UAEPAXXZ
	DD	FLAT:?getEffectName@AudioEffectX@@UAE_NPAD@Z
	DD	FLAT:?getVendorString@AudioEffectX@@UAE_NPAD@Z
	DD	FLAT:?getProductString@AudioEffectX@@UAE_NPAD@Z
	DD	FLAT:?getVendorVersion@AudioEffectX@@UAEHXZ
	DD	FLAT:?vendorSpecific@AudioEffectX@@UAEHHHPAXM@Z
	DD	FLAT:?canDo@AudioEffectX@@UAEHPAD@Z
	DD	FLAT:?getVstVersion@AudioEffectX@@UAEHXZ
	DD	FLAT:?getPlugCategory@AudioEffectX@@UAE?AW4VstPlugCategory@@XZ
	DD	FLAT:?getMidiProgramName@AudioEffectX@@UAEHHPAUMidiProgramName@@@Z
	DD	FLAT:?getCurrentMidiProgram@AudioEffectX@@UAEHHPAUMidiProgramName@@@Z
	DD	FLAT:?getMidiProgramCategory@AudioEffectX@@UAEHHPAUMidiProgramCategory@@@Z
	DD	FLAT:?hasMidiProgramsChanged@AudioEffectX@@UAE_NH@Z
	DD	FLAT:?getMidiKeyName@AudioEffectX@@UAE_NHPAUMidiKeyName@@@Z
	DD	FLAT:?updateDisplay@AudioEffectX@@UAE_NXZ
	DD	FLAT:?sizeWindow@AudioEffectX@@UAE_NHH@Z
	DD	FLAT:?openFileSelector@AudioEffectX@@UAE_NPAUVstFileSelect@@@Z
	DD	FLAT:?closeFileSelector@AudioEffectX@@UAE_NPAUVstFileSelect@@@Z
	DD	FLAT:?getNextShellPlugin@AudioEffectX@@UAEHPAD@Z
	DD	FLAT:?allocateArrangement@AudioEffectX@@UAE_NPAPAUVstSpeakerArrangement@@H@Z
	DD	FLAT:?deallocateArrangement@AudioEffectX@@UAE_NPAPAUVstSpeakerArrangement@@@Z
	DD	FLAT:?copySpeaker@AudioEffectX@@UAE_NPAUVstSpeakerProperties@@0@Z
	DD	FLAT:?matchArrangement@AudioEffectX@@UAE_NPAPAUVstSpeakerArrangement@@PAU2@@Z
	DD	FLAT:?offlineRead@AudioEffectX@@UAE_NPAUVstOfflineTask@@W4VstOfflineOption@@_N@Z
	DD	FLAT:?offlineWrite@AudioEffectX@@UAE_NPAUVstOfflineTask@@W4VstOfflineOption@@@Z
	DD	FLAT:?offlineStart@AudioEffectX@@UAE_NPAUVstAudioFile@@HH@Z
	DD	FLAT:?offlineGetCurrentPass@AudioEffectX@@UAEHXZ
	DD	FLAT:?offlineGetCurrentMetaPass@AudioEffectX@@UAEHXZ
	DD	FLAT:?offlineNotify@AudioEffectX@@UAE_NPAUVstAudioFile@@H_N@Z
	DD	FLAT:?offlinePrepare@AudioEffectX@@UAE_NPAUVstOfflineTask@@H@Z
	DD	FLAT:?offlineRun@AudioEffectX@@UAE_NPAUVstOfflineTask@@H@Z
	DD	FLAT:?offlineGetNumPasses@AudioEffectX@@UAEHXZ
	DD	FLAT:?offlineGetNumMetaPasses@AudioEffectX@@UAEHXZ
	DD	FLAT:?__wantEventsDeprecated@AudioEffectX@@UAEXH@Z
	DD	FLAT:?__tempoAtDeprecated@AudioEffectX@@UAEHH@Z
	DD	FLAT:?__getNumAutomatableParametersDeprecated@AudioEffectX@@UAEHXZ
	DD	FLAT:?__getParameterQuantizationDeprecated@AudioEffectX@@UAEHXZ
	DD	FLAT:?__getNumCategoriesDeprecated@AudioEffectX@@UAEHXZ
	DD	FLAT:?__copyProgramDeprecated@AudioEffectX@@UAE_NH@Z
	DD	FLAT:?__needIdleDeprecated@AudioEffectX@@UAE_NXZ
	DD	FLAT:?__getPreviousPlugDeprecated@AudioEffectX@@UAEPAUAEffect@@H@Z
	DD	FLAT:?__getNextPlugDeprecated@AudioEffectX@@UAEPAUAEffect@@H@Z
	DD	FLAT:?__inputConnectedDeprecated@AudioEffectX@@UAEXH_N@Z
	DD	FLAT:?__outputConnectedDeprecated@AudioEffectX@@UAEXH_N@Z
	DD	FLAT:?__willProcessReplacingDeprecated@AudioEffectX@@UAEHXZ
	DD	FLAT:?__wantAsyncOperationDeprecated@AudioEffectX@@UAEX_N@Z
	DD	FLAT:?__hasExternalBufferDeprecated@AudioEffectX@@UAEX_N@Z
	DD	FLAT:?__reportCurrentPositionDeprecated@AudioEffectX@@UAEHXZ
	DD	FLAT:?__reportDestinationBufferDeprecated@AudioEffectX@@UAEPAMXZ
	DD	FLAT:?__setOutputSamplerateDeprecated@AudioEffectX@@UAEXM@Z
	DD	FLAT:?__getInputSpeakerArrangementDeprecated@AudioEffectX@@UAEPAUVstSpeakerArrangement@@XZ
	DD	FLAT:?__getOutputSpeakerArrangementDeprecated@AudioEffectX@@UAEPAUVstSpeakerArrangement@@XZ
	DD	FLAT:?__openWindowDeprecated@AudioEffectX@@UAEPAXPAU__VstWindowDeprecated@@@Z
	DD	FLAT:?__closeWindowDeprecated@AudioEffectX@@UAE_NPAU__VstWindowDeprecated@@@Z
	DD	FLAT:?__setBlockSizeAndSampleRateDeprecated@AudioEffectX@@UAEXHM@Z
	DD	FLAT:?__getErrorTextDeprecated@AudioEffectX@@UAE_NPAD@Z
	DD	FLAT:?__getIconDeprecated@AudioEffectX@@UAEPAXXZ
	DD	FLAT:?__setViewPositionDeprecated@AudioEffectX@@UAE_NHH@Z
	DD	FLAT:?__fxIdleDeprecated@AudioEffectX@@UAEHXZ
	DD	FLAT:?__keysRequiredDeprecated@AudioEffectX@@UAE_NXZ
	DD	FLAT:?__getChunkFileDeprecated@AudioEffectX@@UAE_NPAX@Z
CONST	ENDS
; Function compile flags: /Odtp /RTCsu
; File E:\FoxSuite\vst-2.4-sdk\vstsdk2.4\pluginterfaces\vst2.x\aeffect.h
;	COMDAT ??$FromVstPtr@X@@YAPAXAAH@Z
_TEXT	SEGMENT
_address$ = -4						; size = 4
_arg$ = 8						; size = 4
??$FromVstPtr@X@@YAPAXAAH@Z PROC			; FromVstPtr<void>, COMDAT

; 315  : {

	push	ebp
	mov	ebp, esp
	push	ecx

; 316  : 	T** address = (T**)&arg;

	mov	eax, DWORD PTR _arg$[ebp]
	mov	DWORD PTR _address$[ebp], eax

; 317  : 	return *address;

	mov	ecx, DWORD PTR _address$[ebp]
	mov	eax, DWORD PTR [ecx]

; 318  : }

	mov	esp, ebp
	pop	ebp
	ret	0
??$FromVstPtr@X@@YAPAXAAH@Z ENDP			; FromVstPtr<void>
_TEXT	ENDS
; Function compile flags: /Odtp /RTCsu
; File E:\FoxSuite\vst-2.4-sdk\vstsdk2.4\pluginterfaces\vst2.x\aeffect.h
;	COMDAT ??$FromVstPtr@UAEffect@@@@YAPAUAEffect@@AAH@Z
_TEXT	SEGMENT
_address$ = -4						; size = 4
_arg$ = 8						; size = 4
??$FromVstPtr@UAEffect@@@@YAPAUAEffect@@AAH@Z PROC	; FromVstPtr<AEffect>, COMDAT

; 315  : {

	push	ebp
	mov	ebp, esp
	push	ecx

; 316  : 	T** address = (T**)&arg;

	mov	eax, DWORD PTR _arg$[ebp]
	mov	DWORD PTR _address$[ebp], eax

; 317  : 	return *address;

	mov	ecx, DWORD PTR _address$[ebp]
	mov	eax, DWORD PTR [ecx]

; 318  : }

	mov	esp, ebp
	pop	ebp
	ret	0
??$FromVstPtr@UAEffect@@@@YAPAUAEffect@@AAH@Z ENDP	; FromVstPtr<AEffect>
_TEXT	ENDS
; Function compile flags: /Odtp /RTCsu
; File E:\FoxSuite\vst-2.4-sdk\vstsdk2.4\pluginterfaces\vst2.x\aeffect.h
;	COMDAT ??$FromVstPtr@UVstTimeInfo@@@@YAPAUVstTimeInfo@@AAH@Z
_TEXT	SEGMENT
_address$ = -4						; size = 4
_arg$ = 8						; size = 4
??$FromVstPtr@UVstTimeInfo@@@@YAPAUVstTimeInfo@@AAH@Z PROC ; FromVstPtr<VstTimeInfo>, COMDAT

; 315  : {

	push	ebp
	mov	ebp, esp
	push	ecx

; 316  : 	T** address = (T**)&arg;

	mov	eax, DWORD PTR _arg$[ebp]
	mov	DWORD PTR _address$[ebp], eax

; 317  : 	return *address;

	mov	ecx, DWORD PTR _address$[ebp]
	mov	eax, DWORD PTR [ecx]

; 318  : }

	mov	esp, ebp
	pop	ebp
	ret	0
??$FromVstPtr@UVstTimeInfo@@@@YAPAUVstTimeInfo@@AAH@Z ENDP ; FromVstPtr<VstTimeInfo>
_TEXT	ENDS
; Function compile flags: /Odtp /RTCsu
; File E:\FoxSuite\vst-2.4-sdk\vstsdk2.4\pluginterfaces\vst2.x\aeffect.h
;	COMDAT ??$FromVstPtr@PAUVstSpeakerArrangement@@@@YAPAPAUVstSpeakerArrangement@@AAH@Z
_TEXT	SEGMENT
_address$ = -4						; size = 4
_arg$ = 8						; size = 4
??$FromVstPtr@PAUVstSpeakerArrangement@@@@YAPAPAUVstSpeakerArrangement@@AAH@Z PROC ; FromVstPtr<VstSpeakerArrangement *>, COMDAT

; 315  : {

	push	ebp
	mov	ebp, esp
	push	ecx

; 316  : 	T** address = (T**)&arg;

	mov	eax, DWORD PTR _arg$[ebp]
	mov	DWORD PTR _address$[ebp], eax

; 317  : 	return *address;

	mov	ecx, DWORD PTR _address$[ebp]
	mov	eax, DWORD PTR [ecx]

; 318  : }

	mov	esp, ebp
	pop	ebp
	ret	0
??$FromVstPtr@PAUVstSpeakerArrangement@@@@YAPAPAUVstSpeakerArrangement@@AAH@Z ENDP ; FromVstPtr<VstSpeakerArrangement *>
_TEXT	ENDS
; Function compile flags: /Odtp /RTCsu
; File E:\FoxSuite\vst-2.4-sdk\vstsdk2.4\pluginterfaces\vst2.x\aeffect.h
;	COMDAT ??$FromVstPtr@UVstSpeakerArrangement@@@@YAPAUVstSpeakerArrangement@@AAH@Z
_TEXT	SEGMENT
_address$ = -4						; size = 4
_arg$ = 8						; size = 4
??$FromVstPtr@UVstSpeakerArrangement@@@@YAPAUVstSpeakerArrangement@@AAH@Z PROC ; FromVstPtr<VstSpeakerArrangement>, COMDAT

; 315  : {

	push	ebp
	mov	ebp, esp
	push	ecx

; 316  : 	T** address = (T**)&arg;

	mov	eax, DWORD PTR _arg$[ebp]
	mov	DWORD PTR _address$[ebp], eax

; 317  : 	return *address;

	mov	ecx, DWORD PTR _address$[ebp]
	mov	eax, DWORD PTR [ecx]

; 318  : }

	mov	esp, ebp
	pop	ebp
	ret	0
??$FromVstPtr@UVstSpeakerArrangement@@@@YAPAUVstSpeakerArrangement@@AAH@Z ENDP ; FromVstPtr<VstSpeakerArrangement>
_TEXT	ENDS
; Function compile flags: /Odtp /RTCsu
;	COMDAT ??_GAudioEffectX@@UAEPAXI@Z
_TEXT	SEGMENT
_this$ = -4						; size = 4
___flags$ = 8						; size = 4
??_GAudioEffectX@@UAEPAXI@Z PROC			; AudioEffectX::`scalar deleting destructor', COMDAT
; _this$ = ecx
	push	ebp
	mov	ebp, esp
	push	ecx
	mov	DWORD PTR [ebp-4], -858993460		; ccccccccH
	mov	DWORD PTR _this$[ebp], ecx
	mov	ecx, DWORD PTR _this$[ebp]
	call	??1AudioEffectX@@UAE@XZ
	mov	eax, DWORD PTR ___flags$[ebp]
	and	eax, 1
	je	SHORT $LN2@scalar
	push	176					; 000000b0H
	mov	ecx, DWORD PTR _this$[ebp]
	push	ecx
	call	??3@YAXPAXI@Z				; operator delete
	add	esp, 8
$LN2@scalar:
	mov	eax, DWORD PTR _this$[ebp]
	add	esp, 4
	cmp	ebp, esp
	call	__RTC_CheckEsp
	mov	esp, ebp
	pop	ebp
	ret	4
??_GAudioEffectX@@UAEPAXI@Z ENDP			; AudioEffectX::`scalar deleting destructor'
_TEXT	ENDS
; Function compile flags: /Odtp /RTCsu
;	COMDAT ??1AudioEffectX@@UAE@XZ
_TEXT	SEGMENT
_this$ = -4						; size = 4
??1AudioEffectX@@UAE@XZ PROC				; AudioEffectX::~AudioEffectX, COMDAT
; _this$ = ecx
	push	ebp
	mov	ebp, esp
	push	ecx
	mov	DWORD PTR [ebp-4], -858993460		; ccccccccH
	mov	DWORD PTR _this$[ebp], ecx
	mov	ecx, DWORD PTR _this$[ebp]
	call	??1AudioEffect@@UAE@XZ			; AudioEffect::~AudioEffect
	add	esp, 4
	cmp	ebp, esp
	call	__RTC_CheckEsp
	mov	esp, ebp
	pop	ebp
	ret	0
??1AudioEffectX@@UAE@XZ ENDP				; AudioEffectX::~AudioEffectX
_TEXT	ENDS
; Function compile flags: /Odtp /RTCsu
; File E:\FoxSuite\vst-2.4-sdk\vstsdk2.4\public.sdk\source\vst2.x\audioeffectx.cpp
_TEXT	SEGMENT
tv89 = -5						; size = 1
_this$ = -4						; size = 4
_nativePath$ = 8					; size = 4
?__getChunkFileDeprecated@AudioEffectX@@UAE_NPAX@Z PROC	; AudioEffectX::__getChunkFileDeprecated
; _this$ = ecx

; 1281 : {

	push	ebp
	mov	ebp, esp
	sub	esp, 8
	push	esi
	mov	DWORD PTR [ebp-8], -858993460		; ccccccccH
	mov	DWORD PTR [ebp-4], -858993460		; ccccccccH
	mov	DWORD PTR _this$[ebp], ecx

; 1282 : 	if (audioMaster && nativePath)

	mov	eax, DWORD PTR _this$[ebp]
	cmp	DWORD PTR [eax+4], 0
	je	SHORT $LN2@getChunkFi
	cmp	DWORD PTR _nativePath$[ebp], 0
	je	SHORT $LN2@getChunkFi

; 1283 : 		return (audioMaster (&cEffect, DECLARE_VST_DEPRECATED (audioMasterGetChunkFile), 0, 0, nativePath, 0)) ? true : false;

	mov	esi, esp
	push	ecx
	xorps	xmm0, xmm0
	movss	DWORD PTR [esp], xmm0
	mov	ecx, DWORD PTR _nativePath$[ebp]
	push	ecx
	push	0
	push	0
	push	48					; 00000030H
	mov	edx, DWORD PTR _this$[ebp]
	add	edx, 32					; 00000020H
	push	edx
	mov	eax, DWORD PTR _this$[ebp]
	mov	ecx, DWORD PTR [eax+4]
	call	ecx
	add	esp, 24					; 00000018H
	cmp	esi, esp
	call	__RTC_CheckEsp
	test	eax, eax
	je	SHORT $LN4@getChunkFi
	mov	BYTE PTR tv89[ebp], 1
	jmp	SHORT $LN5@getChunkFi
$LN4@getChunkFi:
	mov	BYTE PTR tv89[ebp], 0
$LN5@getChunkFi:
	mov	al, BYTE PTR tv89[ebp]
	jmp	SHORT $LN1@getChunkFi
$LN2@getChunkFi:

; 1284 : 	return 0;

	xor	al, al
$LN1@getChunkFi:

; 1285 : }

	pop	esi
	add	esp, 8
	cmp	ebp, esp
	call	__RTC_CheckEsp
	mov	esp, ebp
	pop	ebp
	ret	4
?__getChunkFileDeprecated@AudioEffectX@@UAE_NPAX@Z ENDP	; AudioEffectX::__getChunkFileDeprecated
_TEXT	ENDS
; Function compile flags: /Odtp /RTCsu
; File E:\FoxSuite\vst-2.4-sdk\vstsdk2.4\public.sdk\source\vst2.x\audioeffectx.h
;	COMDAT ?__keysRequiredDeprecated@AudioEffectX@@UAE_NXZ
_TEXT	SEGMENT
_this$ = -4						; size = 4
?__keysRequiredDeprecated@AudioEffectX@@UAE_NXZ PROC	; AudioEffectX::__keysRequiredDeprecated, COMDAT
; _this$ = ecx

; 243  : 	virtual bool DECLARE_VST_DEPRECATED (keysRequired) () { return false; }

	push	ebp
	mov	ebp, esp
	push	ecx
	mov	DWORD PTR _this$[ebp], ecx
	xor	al, al
	mov	esp, ebp
	pop	ebp
	ret	0
?__keysRequiredDeprecated@AudioEffectX@@UAE_NXZ ENDP	; AudioEffectX::__keysRequiredDeprecated
_TEXT	ENDS
; Function compile flags: /Odtp /RTCsu
; File E:\FoxSuite\vst-2.4-sdk\vstsdk2.4\public.sdk\source\vst2.x\audioeffectx.h
;	COMDAT ?__fxIdleDeprecated@AudioEffectX@@UAEHXZ
_TEXT	SEGMENT
_this$ = -4						; size = 4
?__fxIdleDeprecated@AudioEffectX@@UAEHXZ PROC		; AudioEffectX::__fxIdleDeprecated, COMDAT
; _this$ = ecx

; 242  : 	virtual VstInt32 DECLARE_VST_DEPRECATED (fxIdle) () { return 0; }

	push	ebp
	mov	ebp, esp
	push	ecx
	mov	DWORD PTR _this$[ebp], ecx
	xor	eax, eax
	mov	esp, ebp
	pop	ebp
	ret	0
?__fxIdleDeprecated@AudioEffectX@@UAEHXZ ENDP		; AudioEffectX::__fxIdleDeprecated
_TEXT	ENDS
; Function compile flags: /Odtp /RTCsu
; File E:\FoxSuite\vst-2.4-sdk\vstsdk2.4\public.sdk\source\vst2.x\audioeffectx.h
;	COMDAT ?__setViewPositionDeprecated@AudioEffectX@@UAE_NHH@Z
_TEXT	SEGMENT
_this$ = -4						; size = 4
_x$ = 8							; size = 4
_y$ = 12						; size = 4
?__setViewPositionDeprecated@AudioEffectX@@UAE_NHH@Z PROC ; AudioEffectX::__setViewPositionDeprecated, COMDAT
; _this$ = ecx

; 241  : 	virtual bool DECLARE_VST_DEPRECATED (setViewPosition) (VstInt32 x, VstInt32 y) { return false; }

	push	ebp
	mov	ebp, esp
	push	ecx
	mov	DWORD PTR _this$[ebp], ecx
	xor	al, al
	mov	esp, ebp
	pop	ebp
	ret	8
?__setViewPositionDeprecated@AudioEffectX@@UAE_NHH@Z ENDP ; AudioEffectX::__setViewPositionDeprecated
_TEXT	ENDS
; Function compile flags: /Odtp /RTCsu
; File E:\FoxSuite\vst-2.4-sdk\vstsdk2.4\public.sdk\source\vst2.x\audioeffectx.h
;	COMDAT ?__getIconDeprecated@AudioEffectX@@UAEPAXXZ
_TEXT	SEGMENT
_this$ = -4						; size = 4
?__getIconDeprecated@AudioEffectX@@UAEPAXXZ PROC	; AudioEffectX::__getIconDeprecated, COMDAT
; _this$ = ecx

; 240  : 	virtual void* DECLARE_VST_DEPRECATED (getIcon) () { return 0; }

	push	ebp
	mov	ebp, esp
	push	ecx
	mov	DWORD PTR _this$[ebp], ecx
	xor	eax, eax
	mov	esp, ebp
	pop	ebp
	ret	0
?__getIconDeprecated@AudioEffectX@@UAEPAXXZ ENDP	; AudioEffectX::__getIconDeprecated
_TEXT	ENDS
; Function compile flags: /Odtp /RTCsu
; File E:\FoxSuite\vst-2.4-sdk\vstsdk2.4\public.sdk\source\vst2.x\audioeffectx.h
;	COMDAT ?__getErrorTextDeprecated@AudioEffectX@@UAE_NPAD@Z
_TEXT	SEGMENT
_this$ = -4						; size = 4
_text$ = 8						; size = 4
?__getErrorTextDeprecated@AudioEffectX@@UAE_NPAD@Z PROC	; AudioEffectX::__getErrorTextDeprecated, COMDAT
; _this$ = ecx

; 239  : 	virtual bool DECLARE_VST_DEPRECATED (getErrorText) (char* text) { return false; }

	push	ebp
	mov	ebp, esp
	push	ecx
	mov	DWORD PTR _this$[ebp], ecx
	xor	al, al
	mov	esp, ebp
	pop	ebp
	ret	4
?__getErrorTextDeprecated@AudioEffectX@@UAE_NPAD@Z ENDP	; AudioEffectX::__getErrorTextDeprecated
_TEXT	ENDS
; Function compile flags: /Odtp /RTCsu
; File E:\FoxSuite\vst-2.4-sdk\vstsdk2.4\public.sdk\source\vst2.x\audioeffectx.h
;	COMDAT ?__setBlockSizeAndSampleRateDeprecated@AudioEffectX@@UAEXHM@Z
_TEXT	SEGMENT
_this$ = -4						; size = 4
__blockSize$ = 8					; size = 4
__sampleRate$ = 12					; size = 4
?__setBlockSizeAndSampleRateDeprecated@AudioEffectX@@UAEXHM@Z PROC ; AudioEffectX::__setBlockSizeAndSampleRateDeprecated, COMDAT
; _this$ = ecx

; 238  : 	virtual void DECLARE_VST_DEPRECATED (setBlockSizeAndSampleRate) (VstInt32 _blockSize, float _sampleRate) { blockSize = _blockSize; sampleRate = _sampleRate; }

	push	ebp
	mov	ebp, esp
	push	ecx
	mov	DWORD PTR _this$[ebp], ecx
	mov	eax, DWORD PTR _this$[ebp]
	mov	ecx, DWORD PTR __blockSize$[ebp]
	mov	DWORD PTR [eax+16], ecx
	mov	edx, DWORD PTR _this$[ebp]
	movss	xmm0, DWORD PTR __sampleRate$[ebp]
	movss	DWORD PTR [edx+12], xmm0
	mov	esp, ebp
	pop	ebp
	ret	8
?__setBlockSizeAndSampleRateDeprecated@AudioEffectX@@UAEXHM@Z ENDP ; AudioEffectX::__setBlockSizeAndSampleRateDeprecated
_TEXT	ENDS
; Function compile flags: /Odtp /RTCsu
; File E:\FoxSuite\vst-2.4-sdk\vstsdk2.4\public.sdk\source\vst2.x\audioeffectx.cpp
_TEXT	SEGMENT
tv88 = -8						; size = 4
_this$ = -4						; size = 4
_window$ = 8						; size = 4
?__closeWindowDeprecated@AudioEffectX@@UAE_NPAU__VstWindowDeprecated@@@Z PROC ; AudioEffectX::__closeWindowDeprecated
; _this$ = ecx

; 901  : {

	push	ebp
	mov	ebp, esp
	sub	esp, 8
	push	esi
	mov	DWORD PTR [ebp-8], -858993460		; ccccccccH
	mov	DWORD PTR [ebp-4], -858993460		; ccccccccH
	mov	DWORD PTR _this$[ebp], ecx

; 902  : 	if (audioMaster)

	mov	eax, DWORD PTR _this$[ebp]
	cmp	DWORD PTR [eax+4], 0
	je	SHORT $LN2@closeWindo

; 903  : 		return (audioMaster (&cEffect, DECLARE_VST_DEPRECATED (audioMasterCloseWindow), 0, 0, window, 0) != 0);

	mov	esi, esp
	push	ecx
	xorps	xmm0, xmm0
	movss	DWORD PTR [esp], xmm0
	mov	ecx, DWORD PTR _window$[ebp]
	push	ecx
	push	0
	push	0
	push	40					; 00000028H
	mov	edx, DWORD PTR _this$[ebp]
	add	edx, 32					; 00000020H
	push	edx
	mov	eax, DWORD PTR _this$[ebp]
	mov	ecx, DWORD PTR [eax+4]
	call	ecx
	add	esp, 24					; 00000018H
	cmp	esi, esp
	call	__RTC_CheckEsp
	test	eax, eax
	je	SHORT $LN4@closeWindo
	mov	DWORD PTR tv88[ebp], 1
	jmp	SHORT $LN5@closeWindo
$LN4@closeWindo:
	mov	DWORD PTR tv88[ebp], 0
$LN5@closeWindo:
	mov	al, BYTE PTR tv88[ebp]
	jmp	SHORT $LN1@closeWindo
$LN2@closeWindo:

; 904  : 	return false;

	xor	al, al
$LN1@closeWindo:

; 905  : }

	pop	esi
	add	esp, 8
	cmp	ebp, esp
	call	__RTC_CheckEsp
	mov	esp, ebp
	pop	ebp
	ret	4
?__closeWindowDeprecated@AudioEffectX@@UAE_NPAU__VstWindowDeprecated@@@Z ENDP ; AudioEffectX::__closeWindowDeprecated
_TEXT	ENDS
; Function compile flags: /Odtp /RTCsu
; File E:\FoxSuite\vst-2.4-sdk\vstsdk2.4\public.sdk\source\vst2.x\audioeffectx.cpp
_TEXT	SEGMENT
_ret$1 = -12						; size = 4
_this$ = -4						; size = 4
_window$ = 8						; size = 4
?__openWindowDeprecated@AudioEffectX@@UAEPAXPAU__VstWindowDeprecated@@@Z PROC ; AudioEffectX::__openWindowDeprecated
; _this$ = ecx

; 890  : {

	push	ebp
	mov	ebp, esp
	sub	esp, 16					; 00000010H
	push	esi
	mov	eax, -858993460				; ccccccccH
	mov	DWORD PTR [ebp-16], eax
	mov	DWORD PTR [ebp-12], eax
	mov	DWORD PTR [ebp-8], eax
	mov	DWORD PTR [ebp-4], eax
	mov	DWORD PTR _this$[ebp], ecx

; 891  : 	if (audioMaster)

	mov	eax, DWORD PTR _this$[ebp]
	cmp	DWORD PTR [eax+4], 0
	je	SHORT $LN2@openWindow

; 892  : 	{
; 893  : 		VstIntPtr ret = audioMaster (&cEffect, DECLARE_VST_DEPRECATED (audioMasterOpenWindow), 0, 0, window, 0);

	mov	esi, esp
	push	ecx
	xorps	xmm0, xmm0
	movss	DWORD PTR [esp], xmm0
	mov	ecx, DWORD PTR _window$[ebp]
	push	ecx
	push	0
	push	0
	push	39					; 00000027H
	mov	edx, DWORD PTR _this$[ebp]
	add	edx, 32					; 00000020H
	push	edx
	mov	eax, DWORD PTR _this$[ebp]
	mov	ecx, DWORD PTR [eax+4]
	call	ecx
	add	esp, 24					; 00000018H
	cmp	esi, esp
	call	__RTC_CheckEsp
	mov	DWORD PTR _ret$1[ebp], eax

; 894  : 		return FromVstPtr<void> (ret);

	lea	edx, DWORD PTR _ret$1[ebp]
	push	edx
	call	??$FromVstPtr@X@@YAPAXAAH@Z		; FromVstPtr<void>
	add	esp, 4
	jmp	SHORT $LN1@openWindow
$LN2@openWindow:

; 895  : 	}
; 896  : 	return 0;

	xor	eax, eax
$LN1@openWindow:

; 897  : }

	push	edx
	mov	ecx, ebp
	push	eax
	lea	edx, DWORD PTR $LN6@openWindow
	call	@_RTC_CheckStackVars@8
	pop	eax
	pop	edx
	pop	esi
	add	esp, 16					; 00000010H
	cmp	ebp, esp
	call	__RTC_CheckEsp
	mov	esp, ebp
	pop	ebp
	ret	4
	npad	1
$LN6@openWindow:
	DD	1
	DD	$LN5@openWindow
$LN5@openWindow:
	DD	-12					; fffffff4H
	DD	4
	DD	$LN4@openWindow
$LN4@openWindow:
	DB	114					; 00000072H
	DB	101					; 00000065H
	DB	116					; 00000074H
	DB	0
?__openWindowDeprecated@AudioEffectX@@UAEPAXPAU__VstWindowDeprecated@@@Z ENDP ; AudioEffectX::__openWindowDeprecated
_TEXT	ENDS
; Function compile flags: /Odtp /RTCsu
; File E:\FoxSuite\vst-2.4-sdk\vstsdk2.4\public.sdk\source\vst2.x\audioeffectx.cpp
_TEXT	SEGMENT
_ret$1 = -12						; size = 4
_this$ = -4						; size = 4
?__getOutputSpeakerArrangementDeprecated@AudioEffectX@@UAEPAUVstSpeakerArrangement@@XZ PROC ; AudioEffectX::__getOutputSpeakerArrangementDeprecated
; _this$ = ecx

; 777  : {

	push	ebp
	mov	ebp, esp
	sub	esp, 16					; 00000010H
	push	esi
	mov	eax, -858993460				; ccccccccH
	mov	DWORD PTR [ebp-16], eax
	mov	DWORD PTR [ebp-12], eax
	mov	DWORD PTR [ebp-8], eax
	mov	DWORD PTR [ebp-4], eax
	mov	DWORD PTR _this$[ebp], ecx

; 778  : 	if (audioMaster)

	mov	eax, DWORD PTR _this$[ebp]
	cmp	DWORD PTR [eax+4], 0
	je	SHORT $LN2@getOutputS

; 779  : 	{
; 780  : 		VstIntPtr ret = audioMaster (&cEffect, DECLARE_VST_DEPRECATED (audioMasterGetOutputSpeakerArrangement), 0, 0, 0, 0);

	mov	esi, esp
	push	ecx
	xorps	xmm0, xmm0
	movss	DWORD PTR [esp], xmm0
	push	0
	push	0
	push	0
	push	31					; 0000001fH
	mov	ecx, DWORD PTR _this$[ebp]
	add	ecx, 32					; 00000020H
	push	ecx
	mov	edx, DWORD PTR _this$[ebp]
	mov	eax, DWORD PTR [edx+4]
	call	eax
	add	esp, 24					; 00000018H
	cmp	esi, esp
	call	__RTC_CheckEsp
	mov	DWORD PTR _ret$1[ebp], eax

; 781  : 		return FromVstPtr<VstSpeakerArrangement> (ret);

	lea	ecx, DWORD PTR _ret$1[ebp]
	push	ecx
	call	??$FromVstPtr@UVstSpeakerArrangement@@@@YAPAUVstSpeakerArrangement@@AAH@Z ; FromVstPtr<VstSpeakerArrangement>
	add	esp, 4
	jmp	SHORT $LN1@getOutputS
$LN2@getOutputS:

; 782  : 	}
; 783  : 	return 0;

	xor	eax, eax
$LN1@getOutputS:

; 784  : }

	push	edx
	mov	ecx, ebp
	push	eax
	lea	edx, DWORD PTR $LN6@getOutputS
	call	@_RTC_CheckStackVars@8
	pop	eax
	pop	edx
	pop	esi
	add	esp, 16					; 00000010H
	cmp	ebp, esp
	call	__RTC_CheckEsp
	mov	esp, ebp
	pop	ebp
	ret	0
	npad	1
$LN6@getOutputS:
	DD	1
	DD	$LN5@getOutputS
$LN5@getOutputS:
	DD	-12					; fffffff4H
	DD	4
	DD	$LN4@getOutputS
$LN4@getOutputS:
	DB	114					; 00000072H
	DB	101					; 00000065H
	DB	116					; 00000074H
	DB	0
?__getOutputSpeakerArrangementDeprecated@AudioEffectX@@UAEPAUVstSpeakerArrangement@@XZ ENDP ; AudioEffectX::__getOutputSpeakerArrangementDeprecated
_TEXT	ENDS
; Function compile flags: /Odtp /RTCsu
; File E:\FoxSuite\vst-2.4-sdk\vstsdk2.4\public.sdk\source\vst2.x\audioeffectx.cpp
_TEXT	SEGMENT
_ret$1 = -12						; size = 4
_this$ = -4						; size = 4
?__getInputSpeakerArrangementDeprecated@AudioEffectX@@UAEPAUVstSpeakerArrangement@@XZ PROC ; AudioEffectX::__getInputSpeakerArrangementDeprecated
; _this$ = ecx

; 766  : {

	push	ebp
	mov	ebp, esp
	sub	esp, 16					; 00000010H
	push	esi
	mov	eax, -858993460				; ccccccccH
	mov	DWORD PTR [ebp-16], eax
	mov	DWORD PTR [ebp-12], eax
	mov	DWORD PTR [ebp-8], eax
	mov	DWORD PTR [ebp-4], eax
	mov	DWORD PTR _this$[ebp], ecx

; 767  : 	if (audioMaster)

	mov	eax, DWORD PTR _this$[ebp]
	cmp	DWORD PTR [eax+4], 0
	je	SHORT $LN2@getInputSp

; 768  : 	{
; 769  : 		VstIntPtr ret = audioMaster (&cEffect, DECLARE_VST_DEPRECATED (audioMasterGetInputSpeakerArrangement), 0, 0, 0, 0);

	mov	esi, esp
	push	ecx
	xorps	xmm0, xmm0
	movss	DWORD PTR [esp], xmm0
	push	0
	push	0
	push	0
	push	49					; 00000031H
	mov	ecx, DWORD PTR _this$[ebp]
	add	ecx, 32					; 00000020H
	push	ecx
	mov	edx, DWORD PTR _this$[ebp]
	mov	eax, DWORD PTR [edx+4]
	call	eax
	add	esp, 24					; 00000018H
	cmp	esi, esp
	call	__RTC_CheckEsp
	mov	DWORD PTR _ret$1[ebp], eax

; 770  : 		return FromVstPtr<VstSpeakerArrangement> (ret);

	lea	ecx, DWORD PTR _ret$1[ebp]
	push	ecx
	call	??$FromVstPtr@UVstSpeakerArrangement@@@@YAPAUVstSpeakerArrangement@@AAH@Z ; FromVstPtr<VstSpeakerArrangement>
	add	esp, 4
	jmp	SHORT $LN1@getInputSp
$LN2@getInputSp:

; 771  : 	}
; 772  : 	return 0;

	xor	eax, eax
$LN1@getInputSp:

; 773  : }

	push	edx
	mov	ecx, ebp
	push	eax
	lea	edx, DWORD PTR $LN6@getInputSp
	call	@_RTC_CheckStackVars@8
	pop	eax
	pop	edx
	pop	esi
	add	esp, 16					; 00000010H
	cmp	ebp, esp
	call	__RTC_CheckEsp
	mov	esp, ebp
	pop	ebp
	ret	0
	npad	1
$LN6@getInputSp:
	DD	1
	DD	$LN5@getInputSp
$LN5@getInputSp:
	DD	-12					; fffffff4H
	DD	4
	DD	$LN4@getInputSp
$LN4@getInputSp:
	DB	114					; 00000072H
	DB	101					; 00000065H
	DB	116					; 00000074H
	DB	0
?__getInputSpeakerArrangementDeprecated@AudioEffectX@@UAEPAUVstSpeakerArrangement@@XZ ENDP ; AudioEffectX::__getInputSpeakerArrangementDeprecated
_TEXT	ENDS
; Function compile flags: /Odtp /RTCsu
; File E:\FoxSuite\vst-2.4-sdk\vstsdk2.4\public.sdk\source\vst2.x\audioeffectx.cpp
_TEXT	SEGMENT
_this$ = -4						; size = 4
_sampleRate$ = 8					; size = 4
?__setOutputSamplerateDeprecated@AudioEffectX@@UAEXM@Z PROC ; AudioEffectX::__setOutputSamplerateDeprecated
; _this$ = ecx

; 759  : {

	push	ebp
	mov	ebp, esp
	push	ecx
	push	esi
	mov	DWORD PTR [ebp-4], -858993460		; ccccccccH
	mov	DWORD PTR _this$[ebp], ecx

; 760  : 	if (audioMaster)

	mov	eax, DWORD PTR _this$[ebp]
	cmp	DWORD PTR [eax+4], 0
	je	SHORT $LN2@setOutputS

; 761  : 		audioMaster (&cEffect, DECLARE_VST_DEPRECATED (audioMasterSetOutputSampleRate), 0, 0, 0, sampleRate);

	mov	esi, esp
	push	ecx
	movss	xmm0, DWORD PTR _sampleRate$[ebp]
	movss	DWORD PTR [esp], xmm0
	push	0
	push	0
	push	0
	push	30					; 0000001eH
	mov	ecx, DWORD PTR _this$[ebp]
	add	ecx, 32					; 00000020H
	push	ecx
	mov	edx, DWORD PTR _this$[ebp]
	mov	eax, DWORD PTR [edx+4]
	call	eax
	add	esp, 24					; 00000018H
	cmp	esi, esp
	call	__RTC_CheckEsp
$LN2@setOutputS:

; 762  : }

	pop	esi
	add	esp, 4
	cmp	ebp, esp
	call	__RTC_CheckEsp
	mov	esp, ebp
	pop	ebp
	ret	4
?__setOutputSamplerateDeprecated@AudioEffectX@@UAEXM@Z ENDP ; AudioEffectX::__setOutputSamplerateDeprecated
_TEXT	ENDS
; Function compile flags: /Odtp /RTCsu
; File E:\FoxSuite\vst-2.4-sdk\vstsdk2.4\public.sdk\source\vst2.x\audioeffectx.h
;	COMDAT ?__reportDestinationBufferDeprecated@AudioEffectX@@UAEPAMXZ
_TEXT	SEGMENT
_this$ = -4						; size = 4
?__reportDestinationBufferDeprecated@AudioEffectX@@UAEPAMXZ PROC ; AudioEffectX::__reportDestinationBufferDeprecated, COMDAT
; _this$ = ecx

; 232  : 	virtual float* DECLARE_VST_DEPRECATED (reportDestinationBuffer) () { return 0; }

	push	ebp
	mov	ebp, esp
	push	ecx
	mov	DWORD PTR _this$[ebp], ecx
	xor	eax, eax
	mov	esp, ebp
	pop	ebp
	ret	0
?__reportDestinationBufferDeprecated@AudioEffectX@@UAEPAMXZ ENDP ; AudioEffectX::__reportDestinationBufferDeprecated
_TEXT	ENDS
; Function compile flags: /Odtp /RTCsu
; File E:\FoxSuite\vst-2.4-sdk\vstsdk2.4\public.sdk\source\vst2.x\audioeffectx.h
;	COMDAT ?__reportCurrentPositionDeprecated@AudioEffectX@@UAEHXZ
_TEXT	SEGMENT
_this$ = -4						; size = 4
?__reportCurrentPositionDeprecated@AudioEffectX@@UAEHXZ PROC ; AudioEffectX::__reportCurrentPositionDeprecated, COMDAT
; _this$ = ecx

; 231  : 	virtual VstInt32 DECLARE_VST_DEPRECATED (reportCurrentPosition) () { return 0; }

	push	ebp
	mov	ebp, esp
	push	ecx
	mov	DWORD PTR _this$[ebp], ecx
	xor	eax, eax
	mov	esp, ebp
	pop	ebp
	ret	0
?__reportCurrentPositionDeprecated@AudioEffectX@@UAEHXZ ENDP ; AudioEffectX::__reportCurrentPositionDeprecated
_TEXT	ENDS
; Function compile flags: /Odtp /RTCsu
; File E:\FoxSuite\vst-2.4-sdk\vstsdk2.4\public.sdk\source\vst2.x\audioeffectx.cpp
_TEXT	SEGMENT
_this$ = -4						; size = 4
_state$ = 8						; size = 1
?__hasExternalBufferDeprecated@AudioEffectX@@UAEX_N@Z PROC ; AudioEffectX::__hasExternalBufferDeprecated
; _this$ = ecx

; 701  : {

	push	ebp
	mov	ebp, esp
	push	ecx
	mov	DWORD PTR _this$[ebp], ecx

; 702  : 	if (state)

	movzx	eax, BYTE PTR _state$[ebp]
	test	eax, eax
	je	SHORT $LN2@hasExterna

; 703  : 		cEffect.flags |= DECLARE_VST_DEPRECATED (effFlagsExtHasBuffer);

	mov	ecx, DWORD PTR _this$[ebp]
	mov	edx, DWORD PTR [ecx+68]
	or	edx, 2048				; 00000800H
	mov	eax, DWORD PTR _this$[ebp]
	mov	DWORD PTR [eax+68], edx
	jmp	SHORT $LN1@hasExterna
$LN2@hasExterna:

; 704  : 	else
; 705  : 		cEffect.flags &= ~DECLARE_VST_DEPRECATED (effFlagsExtHasBuffer);

	mov	ecx, DWORD PTR _this$[ebp]
	mov	edx, DWORD PTR [ecx+68]
	and	edx, -2049				; fffff7ffH
	mov	eax, DWORD PTR _this$[ebp]
	mov	DWORD PTR [eax+68], edx
$LN1@hasExterna:

; 706  : }

	mov	esp, ebp
	pop	ebp
	ret	4
?__hasExternalBufferDeprecated@AudioEffectX@@UAEX_N@Z ENDP ; AudioEffectX::__hasExternalBufferDeprecated
_TEXT	ENDS
; Function compile flags: /Odtp /RTCsu
; File E:\FoxSuite\vst-2.4-sdk\vstsdk2.4\public.sdk\source\vst2.x\audioeffectx.cpp
_TEXT	SEGMENT
_this$ = -4						; size = 4
_state$ = 8						; size = 1
?__wantAsyncOperationDeprecated@AudioEffectX@@UAEX_N@Z PROC ; AudioEffectX::__wantAsyncOperationDeprecated
; _this$ = ecx

; 692  : {

	push	ebp
	mov	ebp, esp
	push	ecx
	mov	DWORD PTR _this$[ebp], ecx

; 693  : 	if (state)

	movzx	eax, BYTE PTR _state$[ebp]
	test	eax, eax
	je	SHORT $LN2@wantAsyncO

; 694  : 		cEffect.flags |= DECLARE_VST_DEPRECATED (effFlagsExtIsAsync);

	mov	ecx, DWORD PTR _this$[ebp]
	mov	edx, DWORD PTR [ecx+68]
	or	edx, 1024				; 00000400H
	mov	eax, DWORD PTR _this$[ebp]
	mov	DWORD PTR [eax+68], edx
	jmp	SHORT $LN1@wantAsyncO
$LN2@wantAsyncO:

; 695  : 	else
; 696  : 		cEffect.flags &= ~DECLARE_VST_DEPRECATED (effFlagsExtIsAsync);

	mov	ecx, DWORD PTR _this$[ebp]
	mov	edx, DWORD PTR [ecx+68]
	and	edx, -1025				; fffffbffH
	mov	eax, DWORD PTR _this$[ebp]
	mov	DWORD PTR [eax+68], edx
$LN1@wantAsyncO:

; 697  : }

	mov	esp, ebp
	pop	ebp
	ret	4
?__wantAsyncOperationDeprecated@AudioEffectX@@UAEX_N@Z ENDP ; AudioEffectX::__wantAsyncOperationDeprecated
_TEXT	ENDS
; Function compile flags: /Odtp /RTCsu
; File E:\FoxSuite\vst-2.4-sdk\vstsdk2.4\public.sdk\source\vst2.x\audioeffectx.cpp
_TEXT	SEGMENT
_this$ = -4						; size = 4
?__willProcessReplacingDeprecated@AudioEffectX@@UAEHXZ PROC ; AudioEffectX::__willProcessReplacingDeprecated
; _this$ = ecx

; 657  : {

	push	ebp
	mov	ebp, esp
	push	ecx
	push	esi
	mov	DWORD PTR [ebp-4], -858993460		; ccccccccH
	mov	DWORD PTR _this$[ebp], ecx

; 658  : 	if (audioMaster)

	mov	eax, DWORD PTR _this$[ebp]
	cmp	DWORD PTR [eax+4], 0
	je	SHORT $LN2@willProces

; 659  : 		return (VstInt32)audioMaster (&cEffect, DECLARE_VST_DEPRECATED (audioMasterWillReplaceOrAccumulate), 0, 0, 0, 0);

	mov	esi, esp
	push	ecx
	xorps	xmm0, xmm0
	movss	DWORD PTR [esp], xmm0
	push	0
	push	0
	push	0
	push	22					; 00000016H
	mov	ecx, DWORD PTR _this$[ebp]
	add	ecx, 32					; 00000020H
	push	ecx
	mov	edx, DWORD PTR _this$[ebp]
	mov	eax, DWORD PTR [edx+4]
	call	eax
	add	esp, 24					; 00000018H
	cmp	esi, esp
	call	__RTC_CheckEsp
	jmp	SHORT $LN1@willProces
$LN2@willProces:

; 660  : 	return 0;

	xor	eax, eax
$LN1@willProces:

; 661  : }

	pop	esi
	add	esp, 4
	cmp	ebp, esp
	call	__RTC_CheckEsp
	mov	esp, ebp
	pop	ebp
	ret	0
?__willProcessReplacingDeprecated@AudioEffectX@@UAEHXZ ENDP ; AudioEffectX::__willProcessReplacingDeprecated
_TEXT	ENDS
; Function compile flags: /Odtp /RTCsu
; File E:\FoxSuite\vst-2.4-sdk\vstsdk2.4\public.sdk\source\vst2.x\audioeffectx.h
;	COMDAT ?__outputConnectedDeprecated@AudioEffectX@@UAEXH_N@Z
_TEXT	SEGMENT
_this$ = -4						; size = 4
_index$ = 8						; size = 4
_state$ = 12						; size = 1
?__outputConnectedDeprecated@AudioEffectX@@UAEXH_N@Z PROC ; AudioEffectX::__outputConnectedDeprecated, COMDAT
; _this$ = ecx

; 227  : 	virtual void DECLARE_VST_DEPRECATED (outputConnected) (VstInt32 index, bool state) {}

	push	ebp
	mov	ebp, esp
	push	ecx
	mov	DWORD PTR _this$[ebp], ecx
	mov	esp, ebp
	pop	ebp
	ret	8
?__outputConnectedDeprecated@AudioEffectX@@UAEXH_N@Z ENDP ; AudioEffectX::__outputConnectedDeprecated
_TEXT	ENDS
; Function compile flags: /Odtp /RTCsu
; File E:\FoxSuite\vst-2.4-sdk\vstsdk2.4\public.sdk\source\vst2.x\audioeffectx.h
;	COMDAT ?__inputConnectedDeprecated@AudioEffectX@@UAEXH_N@Z
_TEXT	SEGMENT
_this$ = -4						; size = 4
_index$ = 8						; size = 4
_state$ = 12						; size = 1
?__inputConnectedDeprecated@AudioEffectX@@UAEXH_N@Z PROC ; AudioEffectX::__inputConnectedDeprecated, COMDAT
; _this$ = ecx

; 226  : 	virtual void DECLARE_VST_DEPRECATED (inputConnected) (VstInt32 index, bool state) {}

	push	ebp
	mov	ebp, esp
	push	ecx
	mov	DWORD PTR _this$[ebp], ecx
	mov	esp, ebp
	pop	ebp
	ret	8
?__inputConnectedDeprecated@AudioEffectX@@UAEXH_N@Z ENDP ; AudioEffectX::__inputConnectedDeprecated
_TEXT	ENDS
; Function compile flags: /Odtp /RTCsu
; File E:\FoxSuite\vst-2.4-sdk\vstsdk2.4\public.sdk\source\vst2.x\audioeffectx.cpp
_TEXT	SEGMENT
_ret$1 = -12						; size = 4
_this$ = -4						; size = 4
_output$ = 8						; size = 4
?__getNextPlugDeprecated@AudioEffectX@@UAEPAUAEffect@@H@Z PROC ; AudioEffectX::__getNextPlugDeprecated
; _this$ = ecx

; 635  : {

	push	ebp
	mov	ebp, esp
	sub	esp, 16					; 00000010H
	push	esi
	mov	eax, -858993460				; ccccccccH
	mov	DWORD PTR [ebp-16], eax
	mov	DWORD PTR [ebp-12], eax
	mov	DWORD PTR [ebp-8], eax
	mov	DWORD PTR [ebp-4], eax
	mov	DWORD PTR _this$[ebp], ecx

; 636  : 	if (audioMaster)

	mov	eax, DWORD PTR _this$[ebp]
	cmp	DWORD PTR [eax+4], 0
	je	SHORT $LN2@getNextPlu

; 637  : 	{
; 638  : 		VstIntPtr ret = audioMaster (&cEffect, DECLARE_VST_DEPRECATED (audioMasterGetNextPlug), 0, 0, 0, 0);

	mov	esi, esp
	push	ecx
	xorps	xmm0, xmm0
	movss	DWORD PTR [esp], xmm0
	push	0
	push	0
	push	0
	push	21					; 00000015H
	mov	ecx, DWORD PTR _this$[ebp]
	add	ecx, 32					; 00000020H
	push	ecx
	mov	edx, DWORD PTR _this$[ebp]
	mov	eax, DWORD PTR [edx+4]
	call	eax
	add	esp, 24					; 00000018H
	cmp	esi, esp
	call	__RTC_CheckEsp
	mov	DWORD PTR _ret$1[ebp], eax

; 639  : 		return FromVstPtr<AEffect> (ret);

	lea	ecx, DWORD PTR _ret$1[ebp]
	push	ecx
	call	??$FromVstPtr@UAEffect@@@@YAPAUAEffect@@AAH@Z ; FromVstPtr<AEffect>
	add	esp, 4
	jmp	SHORT $LN1@getNextPlu
$LN2@getNextPlu:

; 640  : 	}
; 641  : 	return 0;

	xor	eax, eax
$LN1@getNextPlu:

; 642  : }

	push	edx
	mov	ecx, ebp
	push	eax
	lea	edx, DWORD PTR $LN6@getNextPlu
	call	@_RTC_CheckStackVars@8
	pop	eax
	pop	edx
	pop	esi
	add	esp, 16					; 00000010H
	cmp	ebp, esp
	call	__RTC_CheckEsp
	mov	esp, ebp
	pop	ebp
	ret	4
	npad	3
$LN6@getNextPlu:
	DD	1
	DD	$LN5@getNextPlu
$LN5@getNextPlu:
	DD	-12					; fffffff4H
	DD	4
	DD	$LN4@getNextPlu
$LN4@getNextPlu:
	DB	114					; 00000072H
	DB	101					; 00000065H
	DB	116					; 00000074H
	DB	0
?__getNextPlugDeprecated@AudioEffectX@@UAEPAUAEffect@@H@Z ENDP ; AudioEffectX::__getNextPlugDeprecated
_TEXT	ENDS
; Function compile flags: /Odtp /RTCsu
; File E:\FoxSuite\vst-2.4-sdk\vstsdk2.4\public.sdk\source\vst2.x\audioeffectx.cpp
_TEXT	SEGMENT
_ret$1 = -12						; size = 4
_this$ = -4						; size = 4
_input$ = 8						; size = 4
?__getPreviousPlugDeprecated@AudioEffectX@@UAEPAUAEffect@@H@Z PROC ; AudioEffectX::__getPreviousPlugDeprecated
; _this$ = ecx

; 624  : {

	push	ebp
	mov	ebp, esp
	sub	esp, 16					; 00000010H
	push	esi
	mov	eax, -858993460				; ccccccccH
	mov	DWORD PTR [ebp-16], eax
	mov	DWORD PTR [ebp-12], eax
	mov	DWORD PTR [ebp-8], eax
	mov	DWORD PTR [ebp-4], eax
	mov	DWORD PTR _this$[ebp], ecx

; 625  : 	if (audioMaster)

	mov	eax, DWORD PTR _this$[ebp]
	cmp	DWORD PTR [eax+4], 0
	je	SHORT $LN2@getPreviou

; 626  : 	{
; 627  : 		VstIntPtr ret = audioMaster (&cEffect, DECLARE_VST_DEPRECATED (audioMasterGetPreviousPlug), 0, 0, 0, 0);

	mov	esi, esp
	push	ecx
	xorps	xmm0, xmm0
	movss	DWORD PTR [esp], xmm0
	push	0
	push	0
	push	0
	push	20					; 00000014H
	mov	ecx, DWORD PTR _this$[ebp]
	add	ecx, 32					; 00000020H
	push	ecx
	mov	edx, DWORD PTR _this$[ebp]
	mov	eax, DWORD PTR [edx+4]
	call	eax
	add	esp, 24					; 00000018H
	cmp	esi, esp
	call	__RTC_CheckEsp
	mov	DWORD PTR _ret$1[ebp], eax

; 628  : 		return FromVstPtr<AEffect> (ret);

	lea	ecx, DWORD PTR _ret$1[ebp]
	push	ecx
	call	??$FromVstPtr@UAEffect@@@@YAPAUAEffect@@AAH@Z ; FromVstPtr<AEffect>
	add	esp, 4
	jmp	SHORT $LN1@getPreviou
$LN2@getPreviou:

; 629  : 	}
; 630  : 	return 0;

	xor	eax, eax
$LN1@getPreviou:

; 631  : }

	push	edx
	mov	ecx, ebp
	push	eax
	lea	edx, DWORD PTR $LN6@getPreviou
	call	@_RTC_CheckStackVars@8
	pop	eax
	pop	edx
	pop	esi
	add	esp, 16					; 00000010H
	cmp	ebp, esp
	call	__RTC_CheckEsp
	mov	esp, ebp
	pop	ebp
	ret	4
	npad	3
$LN6@getPreviou:
	DD	1
	DD	$LN5@getPreviou
$LN5@getPreviou:
	DD	-12					; fffffff4H
	DD	4
	DD	$LN4@getPreviou
$LN4@getPreviou:
	DB	114					; 00000072H
	DB	101					; 00000065H
	DB	116					; 00000074H
	DB	0
?__getPreviousPlugDeprecated@AudioEffectX@@UAEPAUAEffect@@H@Z ENDP ; AudioEffectX::__getPreviousPlugDeprecated
_TEXT	ENDS
; Function compile flags: /Odtp /RTCsu
; File E:\FoxSuite\vst-2.4-sdk\vstsdk2.4\public.sdk\source\vst2.x\audioeffectx.cpp
_TEXT	SEGMENT
tv88 = -8						; size = 4
_this$ = -4						; size = 4
?__needIdleDeprecated@AudioEffectX@@UAE_NXZ PROC	; AudioEffectX::__needIdleDeprecated
; _this$ = ecx

; 455  : {

	push	ebp
	mov	ebp, esp
	sub	esp, 8
	push	esi
	mov	DWORD PTR [ebp-8], -858993460		; ccccccccH
	mov	DWORD PTR [ebp-4], -858993460		; ccccccccH
	mov	DWORD PTR _this$[ebp], ecx

; 456  : 	if (audioMaster)

	mov	eax, DWORD PTR _this$[ebp]
	cmp	DWORD PTR [eax+4], 0
	je	SHORT $LN2@needIdleDe

; 457  : 		return (audioMaster (&cEffect, DECLARE_VST_DEPRECATED (audioMasterNeedIdle), 0, 0, 0, 0) != 0);

	mov	esi, esp
	push	ecx
	xorps	xmm0, xmm0
	movss	DWORD PTR [esp], xmm0
	push	0
	push	0
	push	0
	push	14					; 0000000eH
	mov	ecx, DWORD PTR _this$[ebp]
	add	ecx, 32					; 00000020H
	push	ecx
	mov	edx, DWORD PTR _this$[ebp]
	mov	eax, DWORD PTR [edx+4]
	call	eax
	add	esp, 24					; 00000018H
	cmp	esi, esp
	call	__RTC_CheckEsp
	test	eax, eax
	je	SHORT $LN4@needIdleDe
	mov	DWORD PTR tv88[ebp], 1
	jmp	SHORT $LN5@needIdleDe
$LN4@needIdleDe:
	mov	DWORD PTR tv88[ebp], 0
$LN5@needIdleDe:
	mov	al, BYTE PTR tv88[ebp]
	jmp	SHORT $LN1@needIdleDe
$LN2@needIdleDe:

; 458  : 	return false;

	xor	al, al
$LN1@needIdleDe:

; 459  : }

	pop	esi
	add	esp, 8
	cmp	ebp, esp
	call	__RTC_CheckEsp
	mov	esp, ebp
	pop	ebp
	ret	0
?__needIdleDeprecated@AudioEffectX@@UAE_NXZ ENDP	; AudioEffectX::__needIdleDeprecated
_TEXT	ENDS
; Function compile flags: /Odtp /RTCsu
; File E:\FoxSuite\vst-2.4-sdk\vstsdk2.4\public.sdk\source\vst2.x\audioeffectx.h
;	COMDAT ?__copyProgramDeprecated@AudioEffectX@@UAE_NH@Z
_TEXT	SEGMENT
_this$ = -4						; size = 4
_destination$ = 8					; size = 4
?__copyProgramDeprecated@AudioEffectX@@UAE_NH@Z PROC	; AudioEffectX::__copyProgramDeprecated, COMDAT
; _this$ = ecx

; 222  : 	virtual bool DECLARE_VST_DEPRECATED (copyProgram) (VstInt32 destination) { return false; }

	push	ebp
	mov	ebp, esp
	push	ecx
	mov	DWORD PTR _this$[ebp], ecx
	xor	al, al
	mov	esp, ebp
	pop	ebp
	ret	4
?__copyProgramDeprecated@AudioEffectX@@UAE_NH@Z ENDP	; AudioEffectX::__copyProgramDeprecated
_TEXT	ENDS
; Function compile flags: /Odtp /RTCsu
; File E:\FoxSuite\vst-2.4-sdk\vstsdk2.4\public.sdk\source\vst2.x\audioeffectx.h
;	COMDAT ?__getNumCategoriesDeprecated@AudioEffectX@@UAEHXZ
_TEXT	SEGMENT
_this$ = -4						; size = 4
?__getNumCategoriesDeprecated@AudioEffectX@@UAEHXZ PROC	; AudioEffectX::__getNumCategoriesDeprecated, COMDAT
; _this$ = ecx

; 221  : 	virtual VstInt32 DECLARE_VST_DEPRECATED (getNumCategories) () { return 1L; }

	push	ebp
	mov	ebp, esp
	push	ecx
	mov	DWORD PTR _this$[ebp], ecx
	mov	eax, 1
	mov	esp, ebp
	pop	ebp
	ret	0
?__getNumCategoriesDeprecated@AudioEffectX@@UAEHXZ ENDP	; AudioEffectX::__getNumCategoriesDeprecated
_TEXT	ENDS
; Function compile flags: /Odtp /RTCsu
; File E:\FoxSuite\vst-2.4-sdk\vstsdk2.4\public.sdk\source\vst2.x\audioeffectx.cpp
_TEXT	SEGMENT
_this$ = -4						; size = 4
?__getParameterQuantizationDeprecated@AudioEffectX@@UAEHXZ PROC ; AudioEffectX::__getParameterQuantizationDeprecated
; _this$ = ecx

; 426  : {

	push	ebp
	mov	ebp, esp
	push	ecx
	push	esi
	mov	DWORD PTR [ebp-4], -858993460		; ccccccccH
	mov	DWORD PTR _this$[ebp], ecx

; 427  : 	if (audioMaster)

	mov	eax, DWORD PTR _this$[ebp]
	cmp	DWORD PTR [eax+4], 0
	je	SHORT $LN2@getParamet

; 428  : 		return (VstInt32)audioMaster (&cEffect, DECLARE_VST_DEPRECATED (audioMasterGetParameterQuantization), 0, 0, 0, 0);

	mov	esi, esp
	push	ecx
	xorps	xmm0, xmm0
	movss	DWORD PTR [esp], xmm0
	push	0
	push	0
	push	0
	push	12					; 0000000cH
	mov	ecx, DWORD PTR _this$[ebp]
	add	ecx, 32					; 00000020H
	push	ecx
	mov	edx, DWORD PTR _this$[ebp]
	mov	eax, DWORD PTR [edx+4]
	call	eax
	add	esp, 24					; 00000018H
	cmp	esi, esp
	call	__RTC_CheckEsp
	jmp	SHORT $LN1@getParamet
$LN2@getParamet:

; 429  : 	return 0;

	xor	eax, eax
$LN1@getParamet:

; 430  : }

	pop	esi
	add	esp, 4
	cmp	ebp, esp
	call	__RTC_CheckEsp
	mov	esp, ebp
	pop	ebp
	ret	0
?__getParameterQuantizationDeprecated@AudioEffectX@@UAEHXZ ENDP ; AudioEffectX::__getParameterQuantizationDeprecated
_TEXT	ENDS
; Function compile flags: /Odtp /RTCsu
; File E:\FoxSuite\vst-2.4-sdk\vstsdk2.4\public.sdk\source\vst2.x\audioeffectx.cpp
_TEXT	SEGMENT
_this$ = -4						; size = 4
?__getNumAutomatableParametersDeprecated@AudioEffectX@@UAEHXZ PROC ; AudioEffectX::__getNumAutomatableParametersDeprecated
; _this$ = ecx

; 418  : {

	push	ebp
	mov	ebp, esp
	push	ecx
	push	esi
	mov	DWORD PTR [ebp-4], -858993460		; ccccccccH
	mov	DWORD PTR _this$[ebp], ecx

; 419  : 	if (audioMaster)

	mov	eax, DWORD PTR _this$[ebp]
	cmp	DWORD PTR [eax+4], 0
	je	SHORT $LN2@getNumAuto

; 420  : 		return (VstInt32)audioMaster (&cEffect, DECLARE_VST_DEPRECATED (audioMasterGetNumAutomatableParameters), 0, 0, 0, 0);

	mov	esi, esp
	push	ecx
	xorps	xmm0, xmm0
	movss	DWORD PTR [esp], xmm0
	push	0
	push	0
	push	0
	push	11					; 0000000bH
	mov	ecx, DWORD PTR _this$[ebp]
	add	ecx, 32					; 00000020H
	push	ecx
	mov	edx, DWORD PTR _this$[ebp]
	mov	eax, DWORD PTR [edx+4]
	call	eax
	add	esp, 24					; 00000018H
	cmp	esi, esp
	call	__RTC_CheckEsp
	jmp	SHORT $LN1@getNumAuto
$LN2@getNumAuto:

; 421  : 	return 0;

	xor	eax, eax
$LN1@getNumAuto:

; 422  : }

	pop	esi
	add	esp, 4
	cmp	ebp, esp
	call	__RTC_CheckEsp
	mov	esp, ebp
	pop	ebp
	ret	0
?__getNumAutomatableParametersDeprecated@AudioEffectX@@UAEHXZ ENDP ; AudioEffectX::__getNumAutomatableParametersDeprecated
_TEXT	ENDS
; Function compile flags: /Odtp /RTCsu
; File E:\FoxSuite\vst-2.4-sdk\vstsdk2.4\public.sdk\source\vst2.x\audioeffectx.cpp
_TEXT	SEGMENT
_this$ = -4						; size = 4
_pos$ = 8						; size = 4
?__tempoAtDeprecated@AudioEffectX@@UAEHH@Z PROC		; AudioEffectX::__tempoAtDeprecated
; _this$ = ecx

; 346  : {

	push	ebp
	mov	ebp, esp
	push	ecx
	push	esi
	mov	DWORD PTR [ebp-4], -858993460		; ccccccccH
	mov	DWORD PTR _this$[ebp], ecx

; 347  : 	if (audioMaster)

	mov	eax, DWORD PTR _this$[ebp]
	cmp	DWORD PTR [eax+4], 0
	je	SHORT $LN2@tempoAtDep

; 348  : 		return (VstInt32)audioMaster (&cEffect, DECLARE_VST_DEPRECATED (audioMasterTempoAt), 0, pos, 0, 0);

	mov	esi, esp
	push	ecx
	xorps	xmm0, xmm0
	movss	DWORD PTR [esp], xmm0
	push	0
	mov	ecx, DWORD PTR _pos$[ebp]
	push	ecx
	push	0
	push	10					; 0000000aH
	mov	edx, DWORD PTR _this$[ebp]
	add	edx, 32					; 00000020H
	push	edx
	mov	eax, DWORD PTR _this$[ebp]
	mov	ecx, DWORD PTR [eax+4]
	call	ecx
	add	esp, 24					; 00000018H
	cmp	esi, esp
	call	__RTC_CheckEsp
	jmp	SHORT $LN1@tempoAtDep
$LN2@tempoAtDep:

; 349  : 	return 0;

	xor	eax, eax
$LN1@tempoAtDep:

; 350  : }

	pop	esi
	add	esp, 4
	cmp	ebp, esp
	call	__RTC_CheckEsp
	mov	esp, ebp
	pop	ebp
	ret	4
?__tempoAtDeprecated@AudioEffectX@@UAEHH@Z ENDP		; AudioEffectX::__tempoAtDeprecated
_TEXT	ENDS
; Function compile flags: /Odtp /RTCsu
; File E:\FoxSuite\vst-2.4-sdk\vstsdk2.4\public.sdk\source\vst2.x\audioeffectx.cpp
_TEXT	SEGMENT
_this$ = -4						; size = 4
_filter$ = 8						; size = 4
?__wantEventsDeprecated@AudioEffectX@@UAEXH@Z PROC	; AudioEffectX::__wantEventsDeprecated
; _this$ = ecx

; 313  : {

	push	ebp
	mov	ebp, esp
	push	ecx
	push	esi
	mov	DWORD PTR [ebp-4], -858993460		; ccccccccH
	mov	DWORD PTR _this$[ebp], ecx

; 314  : 	if (audioMaster)

	mov	eax, DWORD PTR _this$[ebp]
	cmp	DWORD PTR [eax+4], 0
	je	SHORT $LN2@wantEvents

; 315  : 		audioMaster (&cEffect, DECLARE_VST_DEPRECATED (audioMasterWantMidi), 0, filter, 0, 0);

	mov	esi, esp
	push	ecx
	xorps	xmm0, xmm0
	movss	DWORD PTR [esp], xmm0
	push	0
	mov	ecx, DWORD PTR _filter$[ebp]
	push	ecx
	push	0
	push	6
	mov	edx, DWORD PTR _this$[ebp]
	add	edx, 32					; 00000020H
	push	edx
	mov	eax, DWORD PTR _this$[ebp]
	mov	ecx, DWORD PTR [eax+4]
	call	ecx
	add	esp, 24					; 00000018H
	cmp	esi, esp
	call	__RTC_CheckEsp
$LN2@wantEvents:

; 316  : }

	pop	esi
	add	esp, 4
	cmp	ebp, esp
	call	__RTC_CheckEsp
	mov	esp, ebp
	pop	ebp
	ret	4
?__wantEventsDeprecated@AudioEffectX@@UAEXH@Z ENDP	; AudioEffectX::__wantEventsDeprecated
_TEXT	ENDS
; Function compile flags: /Odtp /RTCsu
; File E:\FoxSuite\vst-2.4-sdk\vstsdk2.4\public.sdk\source\vst2.x\audioeffectx.cpp
_TEXT	SEGMENT
_this$ = -4						; size = 4
?resume@AudioEffectX@@UAEXXZ PROC			; AudioEffectX::resume
; _this$ = ecx

; 306  : {

	push	ebp
	mov	ebp, esp
	push	ecx
	push	esi
	mov	DWORD PTR [ebp-4], -858993460		; ccccccccH
	mov	DWORD PTR _this$[ebp], ecx

; 307  : 	if (cEffect.flags & effFlagsIsSynth || canDo ("receiveVstMidiEvent") == 1)

	mov	eax, DWORD PTR _this$[ebp]
	mov	ecx, DWORD PTR [eax+68]
	and	ecx, 256				; 00000100H
	jne	SHORT $LN3@resume
	mov	esi, esp
	push	OFFSET $SG5356
	mov	edx, DWORD PTR _this$[ebp]
	mov	eax, DWORD PTR [edx]
	mov	ecx, DWORD PTR _this$[ebp]
	mov	edx, DWORD PTR [eax+388]
	call	edx
	cmp	esi, esp
	call	__RTC_CheckEsp
	cmp	eax, 1
	jne	SHORT $LN1@resume
$LN3@resume:

; 308  : 		DECLARE_VST_DEPRECATED (wantEvents) ();

	mov	esi, esp
	push	1
	mov	eax, DWORD PTR _this$[ebp]
	mov	edx, DWORD PTR [eax]
	mov	ecx, DWORD PTR _this$[ebp]
	mov	eax, DWORD PTR [edx+496]
	call	eax
	cmp	esi, esp
	call	__RTC_CheckEsp
$LN1@resume:

; 309  : }

	pop	esi
	add	esp, 4
	cmp	ebp, esp
	call	__RTC_CheckEsp
	mov	esp, ebp
	pop	ebp
	ret	0
?resume@AudioEffectX@@UAEXXZ ENDP			; AudioEffectX::resume
_TEXT	ENDS
; Function compile flags: /Odtp /RTCsu
; File E:\FoxSuite\vst-2.4-sdk\vstsdk2.4\public.sdk\source\vst2.x\audioeffectx.cpp
_TEXT	SEGMENT
tv434 = -140						; size = 4
tv416 = -136						; size = 4
tv389 = -132						; size = 4
tv378 = -128						; size = 4
tv371 = -124						; size = 4
tv364 = -120						; size = 4
tv355 = -116						; size = 4
tv329 = -112						; size = 4
tv307 = -108						; size = 4
tv284 = -104						; size = 4
tv257 = -100						; size = 4
tv227 = -96						; size = 4
tv219 = -92						; size = 4
tv211 = -88						; size = 4
tv203 = -84						; size = 4
tv199 = -77						; size = 1
tv193 = -76						; size = 4
tv185 = -72						; size = 4
tv156 = -65						; size = 1
tv146 = -64						; size = 4
tv137 = -60						; size = 4
tv128 = -56						; size = 4
tv86 = -52						; size = 4
tv77 = -48						; size = 4
tv64 = -44						; size = 4
_keyCode$1 = -36					; size = 8
_keyCode$2 = -20					; size = 8
_v$ = -8						; size = 4
_this$ = -4						; size = 4
_opcode$ = 8						; size = 4
_index$ = 12						; size = 4
_value$ = 16						; size = 4
_ptr$ = 20						; size = 4
_opt$ = 24						; size = 4
?dispatcher@AudioEffectX@@UAEHHHHPAXM@Z PROC		; AudioEffectX::dispatcher
; _this$ = ecx

; 63   : {

	push	ebp
	mov	ebp, esp
	sub	esp, 140				; 0000008cH
	push	esi
	push	edi
	push	ecx
	lea	edi, DWORD PTR [ebp-140]
	mov	ecx, 35					; 00000023H
	mov	eax, -858993460				; ccccccccH
	rep stosd
	pop	ecx
	mov	DWORD PTR _this$[ebp], ecx

; 64   : 	VstIntPtr v = 0;

	mov	DWORD PTR _v$[ebp], 0

; 65   : 	switch (opcode)

	mov	eax, DWORD PTR _opcode$[ebp]
	mov	DWORD PTR tv64[ebp], eax
	mov	ecx, DWORD PTR tv64[ebp]
	sub	ecx, 25					; 00000019H
	mov	DWORD PTR tv64[ebp], ecx
	cmp	DWORD PTR tv64[ebp], 54			; 00000036H
	ja	$LN50@dispatcher
	mov	edx, DWORD PTR tv64[ebp]
	jmp	DWORD PTR $LN100@dispatcher[edx*4]
$LN4@dispatcher:

; 66   : 	{
; 67   : 		//---VstEvents----------------------
; 68   : 		case effProcessEvents:
; 69   : 			v = processEvents ((VstEvents*)ptr);

	mov	esi, esp
	mov	eax, DWORD PTR _ptr$[ebp]
	push	eax
	mov	ecx, DWORD PTR _this$[ebp]
	mov	edx, DWORD PTR [ecx]
	mov	ecx, DWORD PTR _this$[ebp]
	mov	eax, DWORD PTR [edx+308]
	call	eax
	cmp	esi, esp
	call	__RTC_CheckEsp
	mov	DWORD PTR _v$[ebp], eax

; 70   : 			break;

	jmp	$LN2@dispatcher
$LN5@dispatcher:

; 71   : 
; 72   : 		//---Parameters and Programs----------------------
; 73   : 		case effCanBeAutomated:
; 74   : 			v = canParameterBeAutomated (index) ? 1 : 0;

	mov	esi, esp
	mov	ecx, DWORD PTR _index$[ebp]
	push	ecx
	mov	edx, DWORD PTR _this$[ebp]
	mov	eax, DWORD PTR [edx]
	mov	ecx, DWORD PTR _this$[ebp]
	mov	edx, DWORD PTR [eax+200]
	call	edx
	cmp	esi, esp
	call	__RTC_CheckEsp
	movzx	eax, al
	test	eax, eax
	je	SHORT $LN52@dispatcher
	mov	DWORD PTR tv77[ebp], 1
	jmp	SHORT $LN53@dispatcher
$LN52@dispatcher:
	mov	DWORD PTR tv77[ebp], 0
$LN53@dispatcher:
	mov	ecx, DWORD PTR tv77[ebp]
	mov	DWORD PTR _v$[ebp], ecx

; 75   : 			break;

	jmp	$LN2@dispatcher
$LN6@dispatcher:

; 76   : 		case effString2Parameter:
; 77   : 			v = string2parameter (index, (char*)ptr) ? 1 : 0;

	mov	esi, esp
	mov	edx, DWORD PTR _ptr$[ebp]
	push	edx
	mov	eax, DWORD PTR _index$[ebp]
	push	eax
	mov	ecx, DWORD PTR _this$[ebp]
	mov	edx, DWORD PTR [ecx]
	mov	ecx, DWORD PTR _this$[ebp]
	mov	eax, DWORD PTR [edx+204]
	call	eax
	cmp	esi, esp
	call	__RTC_CheckEsp
	movzx	ecx, al
	test	ecx, ecx
	je	SHORT $LN54@dispatcher
	mov	DWORD PTR tv86[ebp], 1
	jmp	SHORT $LN55@dispatcher
$LN54@dispatcher:
	mov	DWORD PTR tv86[ebp], 0
$LN55@dispatcher:
	mov	edx, DWORD PTR tv86[ebp]
	mov	DWORD PTR _v$[ebp], edx

; 78   : 			break;

	jmp	$LN2@dispatcher
$LN7@dispatcher:

; 79   : 
; 80   : 		case effGetProgramNameIndexed:
; 81   : 			v = getProgramNameIndexed ((VstInt32)value, index, (char*)ptr) ? 1 : 0;

	mov	esi, esp
	mov	eax, DWORD PTR _ptr$[ebp]
	push	eax
	mov	ecx, DWORD PTR _index$[ebp]
	push	ecx
	mov	edx, DWORD PTR _value$[ebp]
	push	edx
	mov	eax, DWORD PTR _this$[ebp]
	mov	edx, DWORD PTR [eax]
	mov	ecx, DWORD PTR _this$[ebp]
	mov	eax, DWORD PTR [edx+220]
	call	eax
	cmp	esi, esp
	call	__RTC_CheckEsp
	movzx	ecx, al
	test	ecx, ecx
	je	SHORT $LN56@dispatcher
	mov	DWORD PTR tv128[ebp], 1
	jmp	SHORT $LN57@dispatcher
$LN56@dispatcher:
	mov	DWORD PTR tv128[ebp], 0
$LN57@dispatcher:
	mov	edx, DWORD PTR tv128[ebp]
	mov	DWORD PTR _v$[ebp], edx

; 82   : 			break;

	jmp	$LN2@dispatcher
$LN8@dispatcher:

; 83   : 	#if !VST_FORCE_DEPRECATED
; 84   : 		case effGetNumProgramCategories:
; 85   : 			v = getNumCategories ();
; 86   : 			break;
; 87   : 		case effCopyProgram:
; 88   : 			v = copyProgram (index) ? 1 : 0;
; 89   : 			break;
; 90   : 
; 91   : 		//---Connections, Configuration----------------------
; 92   : 		case effConnectInput:
; 93   : 			inputConnected (index, value ? true : false);
; 94   : 			v = 1;
; 95   : 			break;	
; 96   : 		case effConnectOutput:
; 97   : 			outputConnected (index, value ? true : false);
; 98   : 			v = 1;
; 99   : 			break;	
; 100  : 	#endif // !VST_FORCE_DEPRECATED
; 101  : 
; 102  : 		case effGetInputProperties:
; 103  : 			v = getInputProperties (index, (VstPinProperties*)ptr) ? 1 : 0;

	mov	esi, esp
	mov	eax, DWORD PTR _ptr$[ebp]
	push	eax
	mov	ecx, DWORD PTR _index$[ebp]
	push	ecx
	mov	edx, DWORD PTR _this$[ebp]
	mov	eax, DWORD PTR [edx]
	mov	ecx, DWORD PTR _this$[ebp]
	mov	edx, DWORD PTR [eax+260]
	call	edx
	cmp	esi, esp
	call	__RTC_CheckEsp
	movzx	eax, al
	test	eax, eax
	je	SHORT $LN58@dispatcher
	mov	DWORD PTR tv137[ebp], 1
	jmp	SHORT $LN59@dispatcher
$LN58@dispatcher:
	mov	DWORD PTR tv137[ebp], 0
$LN59@dispatcher:
	mov	ecx, DWORD PTR tv137[ebp]
	mov	DWORD PTR _v$[ebp], ecx

; 104  : 			break;

	jmp	$LN2@dispatcher
$LN9@dispatcher:

; 105  : 		case effGetOutputProperties:
; 106  : 			v = getOutputProperties (index, (VstPinProperties*)ptr) ? 1 : 0;

	mov	esi, esp
	mov	edx, DWORD PTR _ptr$[ebp]
	push	edx
	mov	eax, DWORD PTR _index$[ebp]
	push	eax
	mov	ecx, DWORD PTR _this$[ebp]
	mov	edx, DWORD PTR [ecx]
	mov	ecx, DWORD PTR _this$[ebp]
	mov	eax, DWORD PTR [edx+264]
	call	eax
	cmp	esi, esp
	call	__RTC_CheckEsp
	movzx	ecx, al
	test	ecx, ecx
	je	SHORT $LN60@dispatcher
	mov	DWORD PTR tv146[ebp], 1
	jmp	SHORT $LN61@dispatcher
$LN60@dispatcher:
	mov	DWORD PTR tv146[ebp], 0
$LN61@dispatcher:
	mov	edx, DWORD PTR tv146[ebp]
	mov	DWORD PTR _v$[ebp], edx

; 107  : 			break;

	jmp	$LN2@dispatcher
$LN10@dispatcher:

; 108  : 		case effGetPlugCategory:
; 109  : 			v = (VstIntPtr)getPlugCategory ();

	mov	eax, DWORD PTR _this$[ebp]
	mov	edx, DWORD PTR [eax]
	mov	esi, esp
	mov	ecx, DWORD PTR _this$[ebp]
	mov	eax, DWORD PTR [edx+396]
	call	eax
	cmp	esi, esp
	call	__RTC_CheckEsp
	mov	DWORD PTR _v$[ebp], eax

; 110  : 			break;

	jmp	$LN2@dispatcher
$LN11@dispatcher:

; 111  : 
; 112  : 	#if !VST_FORCE_DEPRECATED
; 113  : 		//---Realtime----------------------
; 114  : 		case effGetCurrentPosition:
; 115  : 			v = reportCurrentPosition ();
; 116  : 			break;
; 117  : 			
; 118  : 		case effGetDestinationBuffer:
; 119  : 			v = ToVstPtr<float> (reportDestinationBuffer ());
; 120  : 			break;
; 121  : 	#endif // !VST_FORCE_DEPRECATED
; 122  : 
; 123  : 		//---Offline----------------------
; 124  : 		case effOfflineNotify:
; 125  : 			v = offlineNotify ((VstAudioFile*)ptr, (VstInt32)value, index != 0);

	cmp	DWORD PTR _index$[ebp], 0
	je	SHORT $LN62@dispatcher
	mov	BYTE PTR tv156[ebp], 1
	jmp	SHORT $LN63@dispatcher
$LN62@dispatcher:
	mov	BYTE PTR tv156[ebp], 0
$LN63@dispatcher:
	mov	esi, esp
	movzx	ecx, BYTE PTR tv156[ebp]
	push	ecx
	mov	edx, DWORD PTR _value$[ebp]
	push	edx
	mov	eax, DWORD PTR _ptr$[ebp]
	push	eax
	mov	ecx, DWORD PTR _this$[ebp]
	mov	edx, DWORD PTR [ecx]
	mov	ecx, DWORD PTR _this$[ebp]
	mov	eax, DWORD PTR [edx+476]
	call	eax
	cmp	esi, esp
	call	__RTC_CheckEsp
	movzx	ecx, al
	mov	DWORD PTR _v$[ebp], ecx

; 126  : 			break;

	jmp	$LN2@dispatcher
$LN12@dispatcher:

; 127  : 		case effOfflinePrepare:
; 128  : 			v = offlinePrepare ((VstOfflineTask*)ptr, (VstInt32)value);

	mov	esi, esp
	mov	edx, DWORD PTR _value$[ebp]
	push	edx
	mov	eax, DWORD PTR _ptr$[ebp]
	push	eax
	mov	ecx, DWORD PTR _this$[ebp]
	mov	edx, DWORD PTR [ecx]
	mov	ecx, DWORD PTR _this$[ebp]
	mov	eax, DWORD PTR [edx+480]
	call	eax
	cmp	esi, esp
	call	__RTC_CheckEsp
	movzx	ecx, al
	mov	DWORD PTR _v$[ebp], ecx

; 129  : 			break;

	jmp	$LN2@dispatcher
$LN13@dispatcher:

; 130  : 		case effOfflineRun:
; 131  : 			v = offlineRun ((VstOfflineTask*)ptr, (VstInt32)value);

	mov	esi, esp
	mov	edx, DWORD PTR _value$[ebp]
	push	edx
	mov	eax, DWORD PTR _ptr$[ebp]
	push	eax
	mov	ecx, DWORD PTR _this$[ebp]
	mov	edx, DWORD PTR [ecx]
	mov	ecx, DWORD PTR _this$[ebp]
	mov	eax, DWORD PTR [edx+484]
	call	eax
	cmp	esi, esp
	call	__RTC_CheckEsp
	movzx	ecx, al
	mov	DWORD PTR _v$[ebp], ecx

; 132  : 			break;

	jmp	$LN2@dispatcher
$LN14@dispatcher:

; 133  : 
; 134  : 		//---Others----------------------
; 135  : 		case effSetSpeakerArrangement:
; 136  : 			v = setSpeakerArrangement (FromVstPtr<VstSpeakerArrangement> (value), (VstSpeakerArrangement*)ptr) ? 1 : 0;

	mov	esi, esp
	mov	edx, DWORD PTR _ptr$[ebp]
	push	edx
	lea	eax, DWORD PTR _value$[ebp]
	push	eax
	call	??$FromVstPtr@UVstSpeakerArrangement@@@@YAPAUVstSpeakerArrangement@@AAH@Z ; FromVstPtr<VstSpeakerArrangement>
	add	esp, 4
	push	eax
	mov	ecx, DWORD PTR _this$[ebp]
	mov	edx, DWORD PTR [ecx]
	mov	ecx, DWORD PTR _this$[ebp]
	mov	eax, DWORD PTR [edx+268]
	call	eax
	cmp	esi, esp
	call	__RTC_CheckEsp
	movzx	ecx, al
	test	ecx, ecx
	je	SHORT $LN64@dispatcher
	mov	DWORD PTR tv185[ebp], 1
	jmp	SHORT $LN65@dispatcher
$LN64@dispatcher:
	mov	DWORD PTR tv185[ebp], 0
$LN65@dispatcher:
	mov	edx, DWORD PTR tv185[ebp]
	mov	DWORD PTR _v$[ebp], edx

; 137  : 			break;

	jmp	$LN2@dispatcher
$LN15@dispatcher:

; 138  : 		case effProcessVarIo:
; 139  : 			v = processVariableIo ((VstVariableIo*)ptr) ? 1 : 0;

	mov	esi, esp
	mov	eax, DWORD PTR _ptr$[ebp]
	push	eax
	mov	ecx, DWORD PTR _this$[ebp]
	mov	edx, DWORD PTR [ecx]
	mov	ecx, DWORD PTR _this$[ebp]
	mov	eax, DWORD PTR [edx+320]
	call	eax
	cmp	esi, esp
	call	__RTC_CheckEsp
	movzx	ecx, al
	test	ecx, ecx
	je	SHORT $LN66@dispatcher
	mov	DWORD PTR tv193[ebp], 1
	jmp	SHORT $LN67@dispatcher
$LN66@dispatcher:
	mov	DWORD PTR tv193[ebp], 0
$LN67@dispatcher:
	mov	edx, DWORD PTR tv193[ebp]
	mov	DWORD PTR _v$[ebp], edx

; 140  : 			break;

	jmp	$LN2@dispatcher
$LN16@dispatcher:

; 141  : 	#if !VST_FORCE_DEPRECATED
; 142  : 		case effSetBlockSizeAndSampleRate:
; 143  : 			setBlockSizeAndSampleRate ((VstInt32)value, opt);
; 144  : 			v = 1;
; 145  : 			break;
; 146  : 	#endif // !VST_FORCE_DEPRECATED
; 147  : 		case effSetBypass:
; 148  : 			v = setBypass (value ? true : false) ? 1 : 0;

	cmp	DWORD PTR _value$[ebp], 0
	je	SHORT $LN68@dispatcher
	mov	BYTE PTR tv199[ebp], 1
	jmp	SHORT $LN69@dispatcher
$LN68@dispatcher:
	mov	BYTE PTR tv199[ebp], 0
$LN69@dispatcher:
	mov	esi, esp
	movzx	eax, BYTE PTR tv199[ebp]
	push	eax
	mov	ecx, DWORD PTR _this$[ebp]
	mov	edx, DWORD PTR [ecx]
	mov	ecx, DWORD PTR _this$[ebp]
	mov	eax, DWORD PTR [edx+276]
	call	eax
	cmp	esi, esp
	call	__RTC_CheckEsp
	movzx	ecx, al
	test	ecx, ecx
	je	SHORT $LN70@dispatcher
	mov	DWORD PTR tv203[ebp], 1
	jmp	SHORT $LN71@dispatcher
$LN70@dispatcher:
	mov	DWORD PTR tv203[ebp], 0
$LN71@dispatcher:
	mov	edx, DWORD PTR tv203[ebp]
	mov	DWORD PTR _v$[ebp], edx

; 149  : 			break;

	jmp	$LN2@dispatcher
$LN17@dispatcher:

; 150  : 		case effGetEffectName:
; 151  : 			v = getEffectName ((char*)ptr) ? 1 : 0;

	mov	esi, esp
	mov	eax, DWORD PTR _ptr$[ebp]
	push	eax
	mov	ecx, DWORD PTR _this$[ebp]
	mov	edx, DWORD PTR [ecx]
	mov	ecx, DWORD PTR _this$[ebp]
	mov	eax, DWORD PTR [edx+368]
	call	eax
	cmp	esi, esp
	call	__RTC_CheckEsp
	movzx	ecx, al
	test	ecx, ecx
	je	SHORT $LN72@dispatcher
	mov	DWORD PTR tv211[ebp], 1
	jmp	SHORT $LN73@dispatcher
$LN72@dispatcher:
	mov	DWORD PTR tv211[ebp], 0
$LN73@dispatcher:
	mov	edx, DWORD PTR tv211[ebp]
	mov	DWORD PTR _v$[ebp], edx

; 152  : 			break;

	jmp	$LN2@dispatcher
$LN18@dispatcher:

; 153  : 		case effGetVendorString:
; 154  : 			v = getVendorString ((char*)ptr) ? 1 : 0;

	mov	esi, esp
	mov	eax, DWORD PTR _ptr$[ebp]
	push	eax
	mov	ecx, DWORD PTR _this$[ebp]
	mov	edx, DWORD PTR [ecx]
	mov	ecx, DWORD PTR _this$[ebp]
	mov	eax, DWORD PTR [edx+372]
	call	eax
	cmp	esi, esp
	call	__RTC_CheckEsp
	movzx	ecx, al
	test	ecx, ecx
	je	SHORT $LN74@dispatcher
	mov	DWORD PTR tv219[ebp], 1
	jmp	SHORT $LN75@dispatcher
$LN74@dispatcher:
	mov	DWORD PTR tv219[ebp], 0
$LN75@dispatcher:
	mov	edx, DWORD PTR tv219[ebp]
	mov	DWORD PTR _v$[ebp], edx

; 155  : 			break;

	jmp	$LN2@dispatcher
$LN19@dispatcher:

; 156  : 		case effGetProductString:
; 157  : 			v = getProductString ((char*)ptr) ? 1 : 0;

	mov	esi, esp
	mov	eax, DWORD PTR _ptr$[ebp]
	push	eax
	mov	ecx, DWORD PTR _this$[ebp]
	mov	edx, DWORD PTR [ecx]
	mov	ecx, DWORD PTR _this$[ebp]
	mov	eax, DWORD PTR [edx+376]
	call	eax
	cmp	esi, esp
	call	__RTC_CheckEsp
	movzx	ecx, al
	test	ecx, ecx
	je	SHORT $LN76@dispatcher
	mov	DWORD PTR tv227[ebp], 1
	jmp	SHORT $LN77@dispatcher
$LN76@dispatcher:
	mov	DWORD PTR tv227[ebp], 0
$LN77@dispatcher:
	mov	edx, DWORD PTR tv227[ebp]
	mov	DWORD PTR _v$[ebp], edx

; 158  : 			break;

	jmp	$LN2@dispatcher
$LN20@dispatcher:

; 159  : 		case effGetVendorVersion:
; 160  : 			v = getVendorVersion ();

	mov	eax, DWORD PTR _this$[ebp]
	mov	edx, DWORD PTR [eax]
	mov	esi, esp
	mov	ecx, DWORD PTR _this$[ebp]
	mov	eax, DWORD PTR [edx+380]
	call	eax
	cmp	esi, esp
	call	__RTC_CheckEsp
	mov	DWORD PTR _v$[ebp], eax

; 161  : 			break;

	jmp	$LN2@dispatcher
$LN21@dispatcher:

; 162  : 		case effVendorSpecific:
; 163  : 			v = vendorSpecific (index, value, ptr, opt);

	mov	esi, esp
	push	ecx
	movss	xmm0, DWORD PTR _opt$[ebp]
	movss	DWORD PTR [esp], xmm0
	mov	ecx, DWORD PTR _ptr$[ebp]
	push	ecx
	mov	edx, DWORD PTR _value$[ebp]
	push	edx
	mov	eax, DWORD PTR _index$[ebp]
	push	eax
	mov	ecx, DWORD PTR _this$[ebp]
	mov	edx, DWORD PTR [ecx]
	mov	ecx, DWORD PTR _this$[ebp]
	mov	eax, DWORD PTR [edx+384]
	call	eax
	cmp	esi, esp
	call	__RTC_CheckEsp
	mov	DWORD PTR _v$[ebp], eax

; 164  : 			break;

	jmp	$LN2@dispatcher
$LN22@dispatcher:

; 165  : 		case effCanDo:
; 166  : 			v = canDo ((char*)ptr);

	mov	esi, esp
	mov	ecx, DWORD PTR _ptr$[ebp]
	push	ecx
	mov	edx, DWORD PTR _this$[ebp]
	mov	eax, DWORD PTR [edx]
	mov	ecx, DWORD PTR _this$[ebp]
	mov	edx, DWORD PTR [eax+388]
	call	edx
	cmp	esi, esp
	call	__RTC_CheckEsp
	mov	DWORD PTR _v$[ebp], eax

; 167  : 			break;

	jmp	$LN2@dispatcher
$LN23@dispatcher:

; 168  : 
; 169  : 		case effGetTailSize:
; 170  : 			v = getGetTailSize ();

	mov	eax, DWORD PTR _this$[ebp]
	mov	edx, DWORD PTR [eax]
	mov	esi, esp
	mov	ecx, DWORD PTR _this$[ebp]
	mov	eax, DWORD PTR [edx+360]
	call	eax
	cmp	esi, esp
	call	__RTC_CheckEsp
	mov	DWORD PTR _v$[ebp], eax

; 171  : 			break;

	jmp	$LN2@dispatcher
$LN24@dispatcher:

; 172  : 
; 173  : 	#if !VST_FORCE_DEPRECATED
; 174  : 		case effGetErrorText:
; 175  : 			v = getErrorText ((char*)ptr) ? 1 : 0;
; 176  : 			break;
; 177  : 
; 178  : 		case effGetIcon:
; 179  : 			v = ToVstPtr<void> (getIcon ());
; 180  : 			break;
; 181  : 
; 182  : 		case effSetViewPosition:
; 183  : 			v = setViewPosition (index, (VstInt32)value) ? 1 : 0;
; 184  : 			break;		
; 185  : 
; 186  : 		case effIdle:
; 187  : 			v = fxIdle ();
; 188  : 			break;
; 189  : 
; 190  : 		case effKeysRequired:
; 191  : 			v = (keysRequired () ? 0 : 1);	// reversed to keep v1 compatibility
; 192  : 			break;
; 193  : 	#endif // !VST_FORCE_DEPRECATED
; 194  : 
; 195  : 		case effGetParameterProperties:
; 196  : 			v = getParameterProperties (index, (VstParameterProperties*)ptr) ? 1 : 0;

	mov	esi, esp
	mov	ecx, DWORD PTR _ptr$[ebp]
	push	ecx
	mov	edx, DWORD PTR _index$[ebp]
	push	edx
	mov	eax, DWORD PTR _this$[ebp]
	mov	edx, DWORD PTR [eax]
	mov	ecx, DWORD PTR _this$[ebp]
	mov	eax, DWORD PTR [edx+208]
	call	eax
	cmp	esi, esp
	call	__RTC_CheckEsp
	movzx	ecx, al
	test	ecx, ecx
	je	SHORT $LN78@dispatcher
	mov	DWORD PTR tv257[ebp], 1
	jmp	SHORT $LN79@dispatcher
$LN78@dispatcher:
	mov	DWORD PTR tv257[ebp], 0
$LN79@dispatcher:
	mov	edx, DWORD PTR tv257[ebp]
	mov	DWORD PTR _v$[ebp], edx

; 197  : 			break;

	jmp	$LN2@dispatcher
$LN25@dispatcher:

; 198  : 
; 199  : 		case effGetVstVersion:
; 200  : 			v = getVstVersion ();

	mov	eax, DWORD PTR _this$[ebp]
	mov	edx, DWORD PTR [eax]
	mov	esi, esp
	mov	ecx, DWORD PTR _this$[ebp]
	mov	eax, DWORD PTR [edx+392]
	call	eax
	cmp	esi, esp
	call	__RTC_CheckEsp
	mov	DWORD PTR _v$[ebp], eax

; 201  : 			break;

	jmp	$LN2@dispatcher
$LN26@dispatcher:

; 202  : 
; 203  : 		//---Others----------------------
; 204  : 	#if VST_2_1_EXTENSIONS
; 205  : 		case effEditKeyDown:
; 206  : 			if (editor)

	mov	ecx, DWORD PTR _this$[ebp]
	cmp	DWORD PTR [ecx+8], 0
	je	SHORT $LN27@dispatcher

; 207  : 			{
; 208  : 				VstKeyCode keyCode = {index, (unsigned char)value, (unsigned char)opt};

	mov	edx, DWORD PTR _index$[ebp]
	mov	DWORD PTR _keyCode$2[ebp], edx
	mov	al, BYTE PTR _value$[ebp]
	mov	BYTE PTR _keyCode$2[ebp+4], al
	cvttss2si ecx, DWORD PTR _opt$[ebp]
	mov	BYTE PTR _keyCode$2[ebp+5], cl

; 209  : 				v = editor->onKeyDown (keyCode) ? 1 : 0;

	mov	esi, esp
	lea	edx, DWORD PTR _keyCode$2[ebp]
	push	edx
	mov	eax, DWORD PTR _this$[ebp]
	mov	ecx, DWORD PTR [eax+8]
	mov	edx, DWORD PTR _this$[ebp]
	mov	eax, DWORD PTR [ecx]
	mov	ecx, DWORD PTR [edx+8]
	mov	edx, DWORD PTR [eax+28]
	call	edx
	cmp	esi, esp
	call	__RTC_CheckEsp
	movzx	eax, al
	test	eax, eax
	je	SHORT $LN80@dispatcher
	mov	DWORD PTR tv284[ebp], 1
	jmp	SHORT $LN81@dispatcher
$LN80@dispatcher:
	mov	DWORD PTR tv284[ebp], 0
$LN81@dispatcher:
	mov	ecx, DWORD PTR tv284[ebp]
	mov	DWORD PTR _v$[ebp], ecx
$LN27@dispatcher:

; 210  : 			}
; 211  : 			break;

	jmp	$LN2@dispatcher
$LN28@dispatcher:

; 212  : 
; 213  : 		case effEditKeyUp:
; 214  : 			if (editor)

	mov	edx, DWORD PTR _this$[ebp]
	cmp	DWORD PTR [edx+8], 0
	je	SHORT $LN29@dispatcher

; 215  : 			{
; 216  : 				VstKeyCode keyCode = {index, (unsigned char)value, (unsigned char)opt};

	mov	eax, DWORD PTR _index$[ebp]
	mov	DWORD PTR _keyCode$1[ebp], eax
	mov	cl, BYTE PTR _value$[ebp]
	mov	BYTE PTR _keyCode$1[ebp+4], cl
	cvttss2si edx, DWORD PTR _opt$[ebp]
	mov	BYTE PTR _keyCode$1[ebp+5], dl

; 217  : 				v = editor->onKeyUp (keyCode) ? 1 : 0;

	mov	esi, esp
	lea	eax, DWORD PTR _keyCode$1[ebp]
	push	eax
	mov	ecx, DWORD PTR _this$[ebp]
	mov	edx, DWORD PTR [ecx+8]
	mov	eax, DWORD PTR _this$[ebp]
	mov	edx, DWORD PTR [edx]
	mov	ecx, DWORD PTR [eax+8]
	mov	eax, DWORD PTR [edx+32]
	call	eax
	cmp	esi, esp
	call	__RTC_CheckEsp
	movzx	ecx, al
	test	ecx, ecx
	je	SHORT $LN82@dispatcher
	mov	DWORD PTR tv307[ebp], 1
	jmp	SHORT $LN83@dispatcher
$LN82@dispatcher:
	mov	DWORD PTR tv307[ebp], 0
$LN83@dispatcher:
	mov	edx, DWORD PTR tv307[ebp]
	mov	DWORD PTR _v$[ebp], edx
$LN29@dispatcher:

; 218  : 			}
; 219  : 			break;

	jmp	$LN2@dispatcher
$LN30@dispatcher:

; 220  : 
; 221  : 		case effSetEditKnobMode:
; 222  : 			if (editor)

	mov	eax, DWORD PTR _this$[ebp]
	cmp	DWORD PTR [eax+8], 0
	je	SHORT $LN31@dispatcher

; 223  : 				v = editor->setKnobMode ((VstInt32)value) ? 1 : 0;

	mov	esi, esp
	mov	ecx, DWORD PTR _value$[ebp]
	push	ecx
	mov	edx, DWORD PTR _this$[ebp]
	mov	eax, DWORD PTR [edx+8]
	mov	ecx, DWORD PTR _this$[ebp]
	mov	edx, DWORD PTR [eax]
	mov	ecx, DWORD PTR [ecx+8]
	mov	eax, DWORD PTR [edx+40]
	call	eax
	cmp	esi, esp
	call	__RTC_CheckEsp
	movzx	ecx, al
	test	ecx, ecx
	je	SHORT $LN84@dispatcher
	mov	DWORD PTR tv329[ebp], 1
	jmp	SHORT $LN85@dispatcher
$LN84@dispatcher:
	mov	DWORD PTR tv329[ebp], 0
$LN85@dispatcher:
	mov	edx, DWORD PTR tv329[ebp]
	mov	DWORD PTR _v$[ebp], edx
$LN31@dispatcher:

; 224  : 			break;

	jmp	$LN2@dispatcher
$LN32@dispatcher:

; 225  : 
; 226  : 		case effGetMidiProgramName:
; 227  : 			v = getMidiProgramName (index, (MidiProgramName*)ptr);

	mov	esi, esp
	mov	eax, DWORD PTR _ptr$[ebp]
	push	eax
	mov	ecx, DWORD PTR _index$[ebp]
	push	ecx
	mov	edx, DWORD PTR _this$[ebp]
	mov	eax, DWORD PTR [edx]
	mov	ecx, DWORD PTR _this$[ebp]
	mov	edx, DWORD PTR [eax+400]
	call	edx
	cmp	esi, esp
	call	__RTC_CheckEsp
	mov	DWORD PTR _v$[ebp], eax

; 228  : 			break;

	jmp	$LN2@dispatcher
$LN33@dispatcher:

; 229  : 		case effGetCurrentMidiProgram:
; 230  : 			v = getCurrentMidiProgram (index, (MidiProgramName*)ptr);

	mov	esi, esp
	mov	eax, DWORD PTR _ptr$[ebp]
	push	eax
	mov	ecx, DWORD PTR _index$[ebp]
	push	ecx
	mov	edx, DWORD PTR _this$[ebp]
	mov	eax, DWORD PTR [edx]
	mov	ecx, DWORD PTR _this$[ebp]
	mov	edx, DWORD PTR [eax+404]
	call	edx
	cmp	esi, esp
	call	__RTC_CheckEsp
	mov	DWORD PTR _v$[ebp], eax

; 231  : 			break;

	jmp	$LN2@dispatcher
$LN34@dispatcher:

; 232  : 		case effGetMidiProgramCategory:
; 233  : 			v = getMidiProgramCategory (index, (MidiProgramCategory*)ptr);

	mov	esi, esp
	mov	eax, DWORD PTR _ptr$[ebp]
	push	eax
	mov	ecx, DWORD PTR _index$[ebp]
	push	ecx
	mov	edx, DWORD PTR _this$[ebp]
	mov	eax, DWORD PTR [edx]
	mov	ecx, DWORD PTR _this$[ebp]
	mov	edx, DWORD PTR [eax+408]
	call	edx
	cmp	esi, esp
	call	__RTC_CheckEsp
	mov	DWORD PTR _v$[ebp], eax

; 234  : 			break;

	jmp	$LN2@dispatcher
$LN35@dispatcher:

; 235  : 		case effHasMidiProgramsChanged:
; 236  : 			v = hasMidiProgramsChanged (index) ? 1 : 0;

	mov	esi, esp
	mov	eax, DWORD PTR _index$[ebp]
	push	eax
	mov	ecx, DWORD PTR _this$[ebp]
	mov	edx, DWORD PTR [ecx]
	mov	ecx, DWORD PTR _this$[ebp]
	mov	eax, DWORD PTR [edx+412]
	call	eax
	cmp	esi, esp
	call	__RTC_CheckEsp
	movzx	ecx, al
	test	ecx, ecx
	je	SHORT $LN86@dispatcher
	mov	DWORD PTR tv355[ebp], 1
	jmp	SHORT $LN87@dispatcher
$LN86@dispatcher:
	mov	DWORD PTR tv355[ebp], 0
$LN87@dispatcher:
	mov	edx, DWORD PTR tv355[ebp]
	mov	DWORD PTR _v$[ebp], edx

; 237  : 			break;

	jmp	$LN2@dispatcher
$LN36@dispatcher:

; 238  : 		case effGetMidiKeyName:
; 239  : 			v = getMidiKeyName (index, (MidiKeyName*)ptr) ? 1 : 0;

	mov	esi, esp
	mov	eax, DWORD PTR _ptr$[ebp]
	push	eax
	mov	ecx, DWORD PTR _index$[ebp]
	push	ecx
	mov	edx, DWORD PTR _this$[ebp]
	mov	eax, DWORD PTR [edx]
	mov	ecx, DWORD PTR _this$[ebp]
	mov	edx, DWORD PTR [eax+416]
	call	edx
	cmp	esi, esp
	call	__RTC_CheckEsp
	movzx	eax, al
	test	eax, eax
	je	SHORT $LN88@dispatcher
	mov	DWORD PTR tv364[ebp], 1
	jmp	SHORT $LN89@dispatcher
$LN88@dispatcher:
	mov	DWORD PTR tv364[ebp], 0
$LN89@dispatcher:
	mov	ecx, DWORD PTR tv364[ebp]
	mov	DWORD PTR _v$[ebp], ecx

; 240  : 			break;

	jmp	$LN2@dispatcher
$LN37@dispatcher:

; 241  : 		case effBeginSetProgram:
; 242  : 			v = beginSetProgram () ? 1 : 0;

	mov	edx, DWORD PTR _this$[ebp]
	mov	eax, DWORD PTR [edx]
	mov	esi, esp
	mov	ecx, DWORD PTR _this$[ebp]
	mov	edx, DWORD PTR [eax+224]
	call	edx
	cmp	esi, esp
	call	__RTC_CheckEsp
	movzx	eax, al
	test	eax, eax
	je	SHORT $LN90@dispatcher
	mov	DWORD PTR tv371[ebp], 1
	jmp	SHORT $LN91@dispatcher
$LN90@dispatcher:
	mov	DWORD PTR tv371[ebp], 0
$LN91@dispatcher:
	mov	ecx, DWORD PTR tv371[ebp]
	mov	DWORD PTR _v$[ebp], ecx

; 243  : 			break;

	jmp	$LN2@dispatcher
$LN38@dispatcher:

; 244  : 		case effEndSetProgram:
; 245  : 			v = endSetProgram () ? 1 : 0;

	mov	edx, DWORD PTR _this$[ebp]
	mov	eax, DWORD PTR [edx]
	mov	esi, esp
	mov	ecx, DWORD PTR _this$[ebp]
	mov	edx, DWORD PTR [eax+228]
	call	edx
	cmp	esi, esp
	call	__RTC_CheckEsp
	movzx	eax, al
	test	eax, eax
	je	SHORT $LN92@dispatcher
	mov	DWORD PTR tv378[ebp], 1
	jmp	SHORT $LN93@dispatcher
$LN92@dispatcher:
	mov	DWORD PTR tv378[ebp], 0
$LN93@dispatcher:
	mov	ecx, DWORD PTR tv378[ebp]
	mov	DWORD PTR _v$[ebp], ecx

; 246  : 			break;	

	jmp	$LN2@dispatcher
$LN39@dispatcher:

; 247  : 	#endif // VST_2_1_EXTENSIONS
; 248  : 
; 249  : 	#if VST_2_3_EXTENSIONS
; 250  : 		case effGetSpeakerArrangement:
; 251  : 			v = getSpeakerArrangement (FromVstPtr<VstSpeakerArrangement*> (value), (VstSpeakerArrangement**)ptr) ? 1 : 0;

	mov	esi, esp
	mov	edx, DWORD PTR _ptr$[ebp]
	push	edx
	lea	eax, DWORD PTR _value$[ebp]
	push	eax
	call	??$FromVstPtr@PAUVstSpeakerArrangement@@@@YAPAPAUVstSpeakerArrangement@@AAH@Z ; FromVstPtr<VstSpeakerArrangement *>
	add	esp, 4
	push	eax
	mov	ecx, DWORD PTR _this$[ebp]
	mov	edx, DWORD PTR [ecx]
	mov	ecx, DWORD PTR _this$[ebp]
	mov	eax, DWORD PTR [edx+272]
	call	eax
	cmp	esi, esp
	call	__RTC_CheckEsp
	movzx	ecx, al
	test	ecx, ecx
	je	SHORT $LN94@dispatcher
	mov	DWORD PTR tv389[ebp], 1
	jmp	SHORT $LN95@dispatcher
$LN94@dispatcher:
	mov	DWORD PTR tv389[ebp], 0
$LN95@dispatcher:
	mov	edx, DWORD PTR tv389[ebp]
	mov	DWORD PTR _v$[ebp], edx

; 252  : 			break;

	jmp	$LN2@dispatcher
$LN40@dispatcher:

; 253  : 
; 254  : 		case effSetTotalSampleToProcess:
; 255  : 			v = setTotalSampleToProcess ((VstInt32)value);

	mov	esi, esp
	mov	eax, DWORD PTR _value$[ebp]
	push	eax
	mov	ecx, DWORD PTR _this$[ebp]
	mov	edx, DWORD PTR [ecx]
	mov	ecx, DWORD PTR _this$[ebp]
	mov	eax, DWORD PTR [edx+324]
	call	eax
	cmp	esi, esp
	call	__RTC_CheckEsp
	mov	DWORD PTR _v$[ebp], eax

; 256  : 			break;

	jmp	$LN2@dispatcher
$LN41@dispatcher:

; 257  : 
; 258  : 		case effShellGetNextPlugin:
; 259  : 			v = getNextShellPlugin ((char*)ptr);

	mov	esi, esp
	mov	ecx, DWORD PTR _ptr$[ebp]
	push	ecx
	mov	edx, DWORD PTR _this$[ebp]
	mov	eax, DWORD PTR [edx]
	mov	ecx, DWORD PTR _this$[ebp]
	mov	edx, DWORD PTR [eax+436]
	call	edx
	cmp	esi, esp
	call	__RTC_CheckEsp
	mov	DWORD PTR _v$[ebp], eax

; 260  : 			break;

	jmp	$LN2@dispatcher
$LN42@dispatcher:

; 261  : 
; 262  : 		case effStartProcess:
; 263  : 			v = startProcess ();

	mov	eax, DWORD PTR _this$[ebp]
	mov	edx, DWORD PTR [eax]
	mov	esi, esp
	mov	ecx, DWORD PTR _this$[ebp]
	mov	eax, DWORD PTR [edx+312]
	call	eax
	cmp	esi, esp
	call	__RTC_CheckEsp
	mov	DWORD PTR _v$[ebp], eax

; 264  : 			break;

	jmp	$LN2@dispatcher
$LN43@dispatcher:

; 265  : 		case effStopProcess:
; 266  : 			v = stopProcess ();

	mov	ecx, DWORD PTR _this$[ebp]
	mov	edx, DWORD PTR [ecx]
	mov	esi, esp
	mov	ecx, DWORD PTR _this$[ebp]
	mov	eax, DWORD PTR [edx+316]
	call	eax
	cmp	esi, esp
	call	__RTC_CheckEsp
	mov	DWORD PTR _v$[ebp], eax

; 267  : 			break;

	jmp	$LN2@dispatcher
$LN44@dispatcher:

; 268  : 
; 269  : 		case effSetPanLaw:
; 270  : 			v = setPanLaw ((VstInt32)value, opt) ? 1 : 0;

	mov	esi, esp
	push	ecx
	movss	xmm0, DWORD PTR _opt$[ebp]
	movss	DWORD PTR [esp], xmm0
	mov	ecx, DWORD PTR _value$[ebp]
	push	ecx
	mov	edx, DWORD PTR _this$[ebp]
	mov	eax, DWORD PTR [edx]
	mov	ecx, DWORD PTR _this$[ebp]
	mov	edx, DWORD PTR [eax+280]
	call	edx
	cmp	esi, esp
	call	__RTC_CheckEsp
	movzx	eax, al
	test	eax, eax
	je	SHORT $LN96@dispatcher
	mov	DWORD PTR tv416[ebp], 1
	jmp	SHORT $LN97@dispatcher
$LN96@dispatcher:
	mov	DWORD PTR tv416[ebp], 0
$LN97@dispatcher:
	mov	ecx, DWORD PTR tv416[ebp]
	mov	DWORD PTR _v$[ebp], ecx

; 271  : 			break;

	jmp	$LN2@dispatcher
$LN45@dispatcher:

; 272  : 
; 273  : 		case effBeginLoadBank:
; 274  : 			v = beginLoadBank ((VstPatchChunkInfo*)ptr);

	mov	esi, esp
	mov	edx, DWORD PTR _ptr$[ebp]
	push	edx
	mov	eax, DWORD PTR _this$[ebp]
	mov	edx, DWORD PTR [eax]
	mov	ecx, DWORD PTR _this$[ebp]
	mov	eax, DWORD PTR [edx+232]
	call	eax
	cmp	esi, esp
	call	__RTC_CheckEsp
	mov	DWORD PTR _v$[ebp], eax

; 275  : 			break;

	jmp	$LN2@dispatcher
$LN46@dispatcher:

; 276  : 		case effBeginLoadProgram:
; 277  : 			v = beginLoadProgram ((VstPatchChunkInfo*)ptr);

	mov	esi, esp
	mov	ecx, DWORD PTR _ptr$[ebp]
	push	ecx
	mov	edx, DWORD PTR _this$[ebp]
	mov	eax, DWORD PTR [edx]
	mov	ecx, DWORD PTR _this$[ebp]
	mov	edx, DWORD PTR [eax+236]
	call	edx
	cmp	esi, esp
	call	__RTC_CheckEsp
	mov	DWORD PTR _v$[ebp], eax

; 278  : 			break;

	jmp	$LN2@dispatcher
$LN47@dispatcher:

; 279  : 	#endif // VST_2_3_EXTENSIONS
; 280  : 
; 281  : 	#if VST_2_4_EXTENSIONS
; 282  : 		case effSetProcessPrecision :
; 283  : 			v = setProcessPrecision ((VstInt32)value) ? 1 : 0;

	mov	esi, esp
	mov	eax, DWORD PTR _value$[ebp]
	push	eax
	mov	ecx, DWORD PTR _this$[ebp]
	mov	edx, DWORD PTR [ecx]
	mov	ecx, DWORD PTR _this$[ebp]
	mov	eax, DWORD PTR [edx+284]
	call	eax
	cmp	esi, esp
	call	__RTC_CheckEsp
	movzx	ecx, al
	test	ecx, ecx
	je	SHORT $LN98@dispatcher
	mov	DWORD PTR tv434[ebp], 1
	jmp	SHORT $LN99@dispatcher
$LN98@dispatcher:
	mov	DWORD PTR tv434[ebp], 0
$LN99@dispatcher:
	mov	edx, DWORD PTR tv434[ebp]
	mov	DWORD PTR _v$[ebp], edx

; 284  : 			break;

	jmp	SHORT $LN2@dispatcher
$LN48@dispatcher:

; 285  : 
; 286  : 		case effGetNumMidiInputChannels :
; 287  : 			v = getNumMidiInputChannels ();

	mov	eax, DWORD PTR _this$[ebp]
	mov	edx, DWORD PTR [eax]
	mov	esi, esp
	mov	ecx, DWORD PTR _this$[ebp]
	mov	eax, DWORD PTR [edx+288]
	call	eax
	cmp	esi, esp
	call	__RTC_CheckEsp
	mov	DWORD PTR _v$[ebp], eax

; 288  : 			break;

	jmp	SHORT $LN2@dispatcher
$LN49@dispatcher:

; 289  : 
; 290  : 		case effGetNumMidiOutputChannels :
; 291  : 			v = getNumMidiOutputChannels ();

	mov	ecx, DWORD PTR _this$[ebp]
	mov	edx, DWORD PTR [ecx]
	mov	esi, esp
	mov	ecx, DWORD PTR _this$[ebp]
	mov	eax, DWORD PTR [edx+292]
	call	eax
	cmp	esi, esp
	call	__RTC_CheckEsp
	mov	DWORD PTR _v$[ebp], eax

; 292  : 			break;

	jmp	SHORT $LN2@dispatcher
$LN50@dispatcher:

; 293  : 	#endif // VST_2_4_EXTENSIONS
; 294  : 
; 295  : 		//---Version 1.0 or unknown-----------------
; 296  : 		default:
; 297  : 			v = AudioEffect::dispatcher (opcode, index, value, ptr, opt);

	push	ecx
	movss	xmm0, DWORD PTR _opt$[ebp]
	movss	DWORD PTR [esp], xmm0
	mov	ecx, DWORD PTR _ptr$[ebp]
	push	ecx
	mov	edx, DWORD PTR _value$[ebp]
	push	edx
	mov	eax, DWORD PTR _index$[ebp]
	push	eax
	mov	ecx, DWORD PTR _opcode$[ebp]
	push	ecx
	mov	ecx, DWORD PTR _this$[ebp]
	call	?dispatcher@AudioEffect@@UAEHHHHPAXM@Z	; AudioEffect::dispatcher
	mov	DWORD PTR _v$[ebp], eax
$LN2@dispatcher:

; 298  : 	}
; 299  : 	return v;

	mov	eax, DWORD PTR _v$[ebp]

; 300  : }

	push	edx
	mov	ecx, ebp
	push	eax
	lea	edx, DWORD PTR $LN104@dispatcher
	call	@_RTC_CheckStackVars@8
	pop	eax
	pop	edx
	pop	edi
	pop	esi
	add	esp, 140				; 0000008cH
	cmp	ebp, esp
	call	__RTC_CheckEsp
	mov	esp, ebp
	pop	ebp
	ret	20					; 00000014H
	npad	1
$LN104@dispatcher:
	DD	2
	DD	$LN103@dispatcher
$LN103@dispatcher:
	DD	-20					; ffffffecH
	DD	8
	DD	$LN101@dispatcher
	DD	-36					; ffffffdcH
	DD	8
	DD	$LN102@dispatcher
$LN102@dispatcher:
	DB	107					; 0000006bH
	DB	101					; 00000065H
	DB	121					; 00000079H
	DB	67					; 00000043H
	DB	111					; 0000006fH
	DB	100					; 00000064H
	DB	101					; 00000065H
	DB	0
$LN101@dispatcher:
	DB	107					; 0000006bH
	DB	101					; 00000065H
	DB	121					; 00000079H
	DB	67					; 00000043H
	DB	111					; 0000006fH
	DB	100					; 00000064H
	DB	101					; 00000065H
	DB	0
$LN100@dispatcher:
	DD	$LN4@dispatcher
	DD	$LN5@dispatcher
	DD	$LN6@dispatcher
	DD	$LN50@dispatcher
	DD	$LN7@dispatcher
	DD	$LN50@dispatcher
	DD	$LN50@dispatcher
	DD	$LN50@dispatcher
	DD	$LN8@dispatcher
	DD	$LN9@dispatcher
	DD	$LN10@dispatcher
	DD	$LN50@dispatcher
	DD	$LN50@dispatcher
	DD	$LN11@dispatcher
	DD	$LN12@dispatcher
	DD	$LN13@dispatcher
	DD	$LN15@dispatcher
	DD	$LN14@dispatcher
	DD	$LN50@dispatcher
	DD	$LN16@dispatcher
	DD	$LN17@dispatcher
	DD	$LN50@dispatcher
	DD	$LN18@dispatcher
	DD	$LN19@dispatcher
	DD	$LN20@dispatcher
	DD	$LN21@dispatcher
	DD	$LN22@dispatcher
	DD	$LN23@dispatcher
	DD	$LN50@dispatcher
	DD	$LN50@dispatcher
	DD	$LN50@dispatcher
	DD	$LN24@dispatcher
	DD	$LN50@dispatcher
	DD	$LN25@dispatcher
	DD	$LN26@dispatcher
	DD	$LN28@dispatcher
	DD	$LN30@dispatcher
	DD	$LN32@dispatcher
	DD	$LN33@dispatcher
	DD	$LN34@dispatcher
	DD	$LN35@dispatcher
	DD	$LN36@dispatcher
	DD	$LN37@dispatcher
	DD	$LN38@dispatcher
	DD	$LN39@dispatcher
	DD	$LN41@dispatcher
	DD	$LN42@dispatcher
	DD	$LN43@dispatcher
	DD	$LN40@dispatcher
	DD	$LN44@dispatcher
	DD	$LN45@dispatcher
	DD	$LN46@dispatcher
	DD	$LN47@dispatcher
	DD	$LN48@dispatcher
	DD	$LN49@dispatcher
?dispatcher@AudioEffectX@@UAEHHHHPAXM@Z ENDP		; AudioEffectX::dispatcher
_TEXT	ENDS
; Function compile flags: /Odtp /RTCsu
; File E:\FoxSuite\vst-2.4-sdk\vstsdk2.4\public.sdk\source\vst2.x\audioeffectx.h
;	COMDAT ?offlineGetNumMetaPasses@AudioEffectX@@UAEHXZ
_TEXT	SEGMENT
_this$ = -4						; size = 4
?offlineGetNumMetaPasses@AudioEffectX@@UAEHXZ PROC	; AudioEffectX::offlineGetNumMetaPasses, COMDAT
; _this$ = ecx

; 206  : 	virtual VstInt32 offlineGetNumMetaPasses () { return 0; }

	push	ebp
	mov	ebp, esp
	push	ecx
	mov	DWORD PTR _this$[ebp], ecx
	xor	eax, eax
	mov	esp, ebp
	pop	ebp
	ret	0
?offlineGetNumMetaPasses@AudioEffectX@@UAEHXZ ENDP	; AudioEffectX::offlineGetNumMetaPasses
_TEXT	ENDS
; Function compile flags: /Odtp /RTCsu
; File E:\FoxSuite\vst-2.4-sdk\vstsdk2.4\public.sdk\source\vst2.x\audioeffectx.h
;	COMDAT ?offlineGetNumPasses@AudioEffectX@@UAEHXZ
_TEXT	SEGMENT
_this$ = -4						; size = 4
?offlineGetNumPasses@AudioEffectX@@UAEHXZ PROC		; AudioEffectX::offlineGetNumPasses, COMDAT
; _this$ = ecx

; 205  : 	virtual VstInt32 offlineGetNumPasses () { return 0; }

	push	ebp
	mov	ebp, esp
	push	ecx
	mov	DWORD PTR _this$[ebp], ecx
	xor	eax, eax
	mov	esp, ebp
	pop	ebp
	ret	0
?offlineGetNumPasses@AudioEffectX@@UAEHXZ ENDP		; AudioEffectX::offlineGetNumPasses
_TEXT	ENDS
; Function compile flags: /Odtp /RTCsu
; File E:\FoxSuite\vst-2.4-sdk\vstsdk2.4\public.sdk\source\vst2.x\audioeffectx.h
;	COMDAT ?offlineRun@AudioEffectX@@UAE_NPAUVstOfflineTask@@H@Z
_TEXT	SEGMENT
_this$ = -4						; size = 4
_offline$ = 8						; size = 4
_count$ = 12						; size = 4
?offlineRun@AudioEffectX@@UAE_NPAUVstOfflineTask@@H@Z PROC ; AudioEffectX::offlineRun, COMDAT
; _this$ = ecx

; 204  : 	virtual bool offlineRun (VstOfflineTask* offline, VstInt32 count) { return false; }

	push	ebp
	mov	ebp, esp
	push	ecx
	mov	DWORD PTR _this$[ebp], ecx
	xor	al, al
	mov	esp, ebp
	pop	ebp
	ret	8
?offlineRun@AudioEffectX@@UAE_NPAUVstOfflineTask@@H@Z ENDP ; AudioEffectX::offlineRun
_TEXT	ENDS
; Function compile flags: /Odtp /RTCsu
; File E:\FoxSuite\vst-2.4-sdk\vstsdk2.4\public.sdk\source\vst2.x\audioeffectx.h
;	COMDAT ?offlinePrepare@AudioEffectX@@UAE_NPAUVstOfflineTask@@H@Z
_TEXT	SEGMENT
_this$ = -4						; size = 4
_offline$ = 8						; size = 4
_count$ = 12						; size = 4
?offlinePrepare@AudioEffectX@@UAE_NPAUVstOfflineTask@@H@Z PROC ; AudioEffectX::offlinePrepare, COMDAT
; _this$ = ecx

; 203  : 	virtual bool offlinePrepare (VstOfflineTask* offline, VstInt32 count) { return false; }

	push	ebp
	mov	ebp, esp
	push	ecx
	mov	DWORD PTR _this$[ebp], ecx
	xor	al, al
	mov	esp, ebp
	pop	ebp
	ret	8
?offlinePrepare@AudioEffectX@@UAE_NPAUVstOfflineTask@@H@Z ENDP ; AudioEffectX::offlinePrepare
_TEXT	ENDS
; Function compile flags: /Odtp /RTCsu
; File E:\FoxSuite\vst-2.4-sdk\vstsdk2.4\public.sdk\source\vst2.x\audioeffectx.h
;	COMDAT ?offlineNotify@AudioEffectX@@UAE_NPAUVstAudioFile@@H_N@Z
_TEXT	SEGMENT
_this$ = -4						; size = 4
_ptr$ = 8						; size = 4
_numAudioFiles$ = 12					; size = 4
_start$ = 16						; size = 1
?offlineNotify@AudioEffectX@@UAE_NPAUVstAudioFile@@H_N@Z PROC ; AudioEffectX::offlineNotify, COMDAT
; _this$ = ecx

; 202  : 	virtual bool offlineNotify (VstAudioFile* ptr, VstInt32 numAudioFiles, bool start) { return false; }

	push	ebp
	mov	ebp, esp
	push	ecx
	mov	DWORD PTR _this$[ebp], ecx
	xor	al, al
	mov	esp, ebp
	pop	ebp
	ret	12					; 0000000cH
?offlineNotify@AudioEffectX@@UAE_NPAUVstAudioFile@@H_N@Z ENDP ; AudioEffectX::offlineNotify
_TEXT	ENDS
; Function compile flags: /Odtp /RTCsu
; File E:\FoxSuite\vst-2.4-sdk\vstsdk2.4\public.sdk\source\vst2.x\audioeffectx.cpp
_TEXT	SEGMENT
tv88 = -8						; size = 4
_this$ = -4						; size = 4
?offlineGetCurrentMetaPass@AudioEffectX@@UAEHXZ PROC	; AudioEffectX::offlineGetCurrentMetaPass
; _this$ = ecx

; 747  : {

	push	ebp
	mov	ebp, esp
	sub	esp, 8
	push	esi
	mov	DWORD PTR [ebp-8], -858993460		; ccccccccH
	mov	DWORD PTR [ebp-4], -858993460		; ccccccccH
	mov	DWORD PTR _this$[ebp], ecx

; 748  : 	if (audioMaster)

	mov	eax, DWORD PTR _this$[ebp]
	cmp	DWORD PTR [eax+4], 0
	je	SHORT $LN2@offlineGet

; 749  : 		return (audioMaster (&cEffect, audioMasterOfflineGetCurrentMetaPass, 0, 0, 0, 0) != 0);

	mov	esi, esp
	push	ecx
	xorps	xmm0, xmm0
	movss	DWORD PTR [esp], xmm0
	push	0
	push	0
	push	0
	push	29					; 0000001dH
	mov	ecx, DWORD PTR _this$[ebp]
	add	ecx, 32					; 00000020H
	push	ecx
	mov	edx, DWORD PTR _this$[ebp]
	mov	eax, DWORD PTR [edx+4]
	call	eax
	add	esp, 24					; 00000018H
	cmp	esi, esp
	call	__RTC_CheckEsp
	test	eax, eax
	je	SHORT $LN4@offlineGet
	mov	DWORD PTR tv88[ebp], 1
	jmp	SHORT $LN5@offlineGet
$LN4@offlineGet:
	mov	DWORD PTR tv88[ebp], 0
$LN5@offlineGet:
	mov	eax, DWORD PTR tv88[ebp]
	jmp	SHORT $LN1@offlineGet
$LN2@offlineGet:

; 750  : 	return false;

	xor	eax, eax
$LN1@offlineGet:

; 751  : }

	pop	esi
	add	esp, 8
	cmp	ebp, esp
	call	__RTC_CheckEsp
	mov	esp, ebp
	pop	ebp
	ret	0
?offlineGetCurrentMetaPass@AudioEffectX@@UAEHXZ ENDP	; AudioEffectX::offlineGetCurrentMetaPass
_TEXT	ENDS
; Function compile flags: /Odtp /RTCsu
; File E:\FoxSuite\vst-2.4-sdk\vstsdk2.4\public.sdk\source\vst2.x\audioeffectx.cpp
_TEXT	SEGMENT
tv88 = -8						; size = 4
_this$ = -4						; size = 4
?offlineGetCurrentPass@AudioEffectX@@UAEHXZ PROC	; AudioEffectX::offlineGetCurrentPass
; _this$ = ecx

; 739  : {

	push	ebp
	mov	ebp, esp
	sub	esp, 8
	push	esi
	mov	DWORD PTR [ebp-8], -858993460		; ccccccccH
	mov	DWORD PTR [ebp-4], -858993460		; ccccccccH
	mov	DWORD PTR _this$[ebp], ecx

; 740  : 	if (audioMaster)

	mov	eax, DWORD PTR _this$[ebp]
	cmp	DWORD PTR [eax+4], 0
	je	SHORT $LN2@offlineGet

; 741  : 		return (audioMaster (&cEffect, audioMasterOfflineGetCurrentPass, 0, 0, 0, 0) != 0);

	mov	esi, esp
	push	ecx
	xorps	xmm0, xmm0
	movss	DWORD PTR [esp], xmm0
	push	0
	push	0
	push	0
	push	28					; 0000001cH
	mov	ecx, DWORD PTR _this$[ebp]
	add	ecx, 32					; 00000020H
	push	ecx
	mov	edx, DWORD PTR _this$[ebp]
	mov	eax, DWORD PTR [edx+4]
	call	eax
	add	esp, 24					; 00000018H
	cmp	esi, esp
	call	__RTC_CheckEsp
	test	eax, eax
	je	SHORT $LN4@offlineGet
	mov	DWORD PTR tv88[ebp], 1
	jmp	SHORT $LN5@offlineGet
$LN4@offlineGet:
	mov	DWORD PTR tv88[ebp], 0
$LN5@offlineGet:
	mov	eax, DWORD PTR tv88[ebp]
	jmp	SHORT $LN1@offlineGet
$LN2@offlineGet:

; 742  : 	return false;

	xor	eax, eax
$LN1@offlineGet:

; 743  : }

	pop	esi
	add	esp, 8
	cmp	ebp, esp
	call	__RTC_CheckEsp
	mov	esp, ebp
	pop	ebp
	ret	0
?offlineGetCurrentPass@AudioEffectX@@UAEHXZ ENDP	; AudioEffectX::offlineGetCurrentPass
_TEXT	ENDS
; Function compile flags: /Odtp /RTCsu
; File E:\FoxSuite\vst-2.4-sdk\vstsdk2.4\public.sdk\source\vst2.x\audioeffectx.cpp
_TEXT	SEGMENT
tv88 = -8						; size = 4
_this$ = -4						; size = 4
_audioFiles$ = 8					; size = 4
_numAudioFiles$ = 12					; size = 4
_numNewAudioFiles$ = 16					; size = 4
?offlineStart@AudioEffectX@@UAE_NPAUVstAudioFile@@HH@Z PROC ; AudioEffectX::offlineStart
; _this$ = ecx

; 731  : {

	push	ebp
	mov	ebp, esp
	sub	esp, 8
	push	esi
	mov	DWORD PTR [ebp-8], -858993460		; ccccccccH
	mov	DWORD PTR [ebp-4], -858993460		; ccccccccH
	mov	DWORD PTR _this$[ebp], ecx

; 732  : 	if (audioMaster)

	mov	eax, DWORD PTR _this$[ebp]
	cmp	DWORD PTR [eax+4], 0
	je	SHORT $LN2@offlineSta

; 733  : 		return (audioMaster (&cEffect, audioMasterOfflineStart, numNewAudioFiles, numAudioFiles, audioFiles, 0) != 0);

	mov	esi, esp
	push	ecx
	xorps	xmm0, xmm0
	movss	DWORD PTR [esp], xmm0
	mov	ecx, DWORD PTR _audioFiles$[ebp]
	push	ecx
	mov	edx, DWORD PTR _numAudioFiles$[ebp]
	push	edx
	mov	eax, DWORD PTR _numNewAudioFiles$[ebp]
	push	eax
	push	25					; 00000019H
	mov	ecx, DWORD PTR _this$[ebp]
	add	ecx, 32					; 00000020H
	push	ecx
	mov	edx, DWORD PTR _this$[ebp]
	mov	eax, DWORD PTR [edx+4]
	call	eax
	add	esp, 24					; 00000018H
	cmp	esi, esp
	call	__RTC_CheckEsp
	test	eax, eax
	je	SHORT $LN4@offlineSta
	mov	DWORD PTR tv88[ebp], 1
	jmp	SHORT $LN5@offlineSta
$LN4@offlineSta:
	mov	DWORD PTR tv88[ebp], 0
$LN5@offlineSta:
	mov	al, BYTE PTR tv88[ebp]
	jmp	SHORT $LN1@offlineSta
$LN2@offlineSta:

; 734  : 	return false;

	xor	al, al
$LN1@offlineSta:

; 735  : }

	pop	esi
	add	esp, 8
	cmp	ebp, esp
	call	__RTC_CheckEsp
	mov	esp, ebp
	pop	ebp
	ret	12					; 0000000cH
?offlineStart@AudioEffectX@@UAE_NPAUVstAudioFile@@HH@Z ENDP ; AudioEffectX::offlineStart
_TEXT	ENDS
; Function compile flags: /Odtp /RTCsu
; File E:\FoxSuite\vst-2.4-sdk\vstsdk2.4\public.sdk\source\vst2.x\audioeffectx.cpp
_TEXT	SEGMENT
tv88 = -8						; size = 4
_this$ = -4						; size = 4
_offline$ = 8						; size = 4
_option$ = 12						; size = 4
?offlineWrite@AudioEffectX@@UAE_NPAUVstOfflineTask@@W4VstOfflineOption@@@Z PROC ; AudioEffectX::offlineWrite
; _this$ = ecx

; 723  : {

	push	ebp
	mov	ebp, esp
	sub	esp, 8
	push	esi
	mov	DWORD PTR [ebp-8], -858993460		; ccccccccH
	mov	DWORD PTR [ebp-4], -858993460		; ccccccccH
	mov	DWORD PTR _this$[ebp], ecx

; 724  : 	if (audioMaster)

	mov	eax, DWORD PTR _this$[ebp]
	cmp	DWORD PTR [eax+4], 0
	je	SHORT $LN2@offlineWri

; 725  : 		return (audioMaster (&cEffect, audioMasterOfflineWrite, 0, option, offline, 0) != 0);

	mov	esi, esp
	push	ecx
	xorps	xmm0, xmm0
	movss	DWORD PTR [esp], xmm0
	mov	ecx, DWORD PTR _offline$[ebp]
	push	ecx
	mov	edx, DWORD PTR _option$[ebp]
	push	edx
	push	0
	push	27					; 0000001bH
	mov	eax, DWORD PTR _this$[ebp]
	add	eax, 32					; 00000020H
	push	eax
	mov	ecx, DWORD PTR _this$[ebp]
	mov	edx, DWORD PTR [ecx+4]
	call	edx
	add	esp, 24					; 00000018H
	cmp	esi, esp
	call	__RTC_CheckEsp
	test	eax, eax
	je	SHORT $LN4@offlineWri
	mov	DWORD PTR tv88[ebp], 1
	jmp	SHORT $LN5@offlineWri
$LN4@offlineWri:
	mov	DWORD PTR tv88[ebp], 0
$LN5@offlineWri:
	mov	al, BYTE PTR tv88[ebp]
	jmp	SHORT $LN1@offlineWri
$LN2@offlineWri:

; 726  : 	return false;

	xor	al, al
$LN1@offlineWri:

; 727  : }

	pop	esi
	add	esp, 8
	cmp	ebp, esp
	call	__RTC_CheckEsp
	mov	esp, ebp
	pop	ebp
	ret	8
?offlineWrite@AudioEffectX@@UAE_NPAUVstOfflineTask@@W4VstOfflineOption@@@Z ENDP ; AudioEffectX::offlineWrite
_TEXT	ENDS
; Function compile flags: /Odtp /RTCsu
; File E:\FoxSuite\vst-2.4-sdk\vstsdk2.4\public.sdk\source\vst2.x\audioeffectx.cpp
_TEXT	SEGMENT
tv89 = -8						; size = 4
_this$ = -4						; size = 4
_offline$ = 8						; size = 4
_option$ = 12						; size = 4
_readSource$ = 16					; size = 1
?offlineRead@AudioEffectX@@UAE_NPAUVstOfflineTask@@W4VstOfflineOption@@_N@Z PROC ; AudioEffectX::offlineRead
; _this$ = ecx

; 715  : {

	push	ebp
	mov	ebp, esp
	sub	esp, 8
	push	esi
	mov	DWORD PTR [ebp-8], -858993460		; ccccccccH
	mov	DWORD PTR [ebp-4], -858993460		; ccccccccH
	mov	DWORD PTR _this$[ebp], ecx

; 716  : 	if (audioMaster)

	mov	eax, DWORD PTR _this$[ebp]
	cmp	DWORD PTR [eax+4], 0
	je	SHORT $LN2@offlineRea

; 717  : 		return (audioMaster (&cEffect, audioMasterOfflineRead, readSource, option, offline, 0) != 0);

	mov	esi, esp
	push	ecx
	xorps	xmm0, xmm0
	movss	DWORD PTR [esp], xmm0
	mov	ecx, DWORD PTR _offline$[ebp]
	push	ecx
	mov	edx, DWORD PTR _option$[ebp]
	push	edx
	movzx	eax, BYTE PTR _readSource$[ebp]
	push	eax
	push	26					; 0000001aH
	mov	ecx, DWORD PTR _this$[ebp]
	add	ecx, 32					; 00000020H
	push	ecx
	mov	edx, DWORD PTR _this$[ebp]
	mov	eax, DWORD PTR [edx+4]
	call	eax
	add	esp, 24					; 00000018H
	cmp	esi, esp
	call	__RTC_CheckEsp
	test	eax, eax
	je	SHORT $LN4@offlineRea
	mov	DWORD PTR tv89[ebp], 1
	jmp	SHORT $LN5@offlineRea
$LN4@offlineRea:
	mov	DWORD PTR tv89[ebp], 0
$LN5@offlineRea:
	mov	al, BYTE PTR tv89[ebp]
	jmp	SHORT $LN1@offlineRea
$LN2@offlineRea:

; 718  : 	return false;

	xor	al, al
$LN1@offlineRea:

; 719  : }

	pop	esi
	add	esp, 8
	cmp	ebp, esp
	call	__RTC_CheckEsp
	mov	esp, ebp
	pop	ebp
	ret	12					; 0000000cH
?offlineRead@AudioEffectX@@UAE_NPAUVstOfflineTask@@W4VstOfflineOption@@_N@Z ENDP ; AudioEffectX::offlineRead
_TEXT	ENDS
; Function compile flags: /Odtp /RTCsu
; File E:\FoxSuite\vst-2.4-sdk\vstsdk2.4\public.sdk\source\vst2.x\audioeffectx.cpp
_TEXT	SEGMENT
_i$1 = -8						; size = 4
_this$ = -4						; size = 4
_to$ = 8						; size = 4
_from$ = 12						; size = 4
?matchArrangement@AudioEffectX@@UAE_NPAPAUVstSpeakerArrangement@@PAU2@@Z PROC ; AudioEffectX::matchArrangement
; _this$ = ecx

; 1483 : {

	push	ebp
	mov	ebp, esp
	sub	esp, 8
	push	esi
	mov	DWORD PTR [ebp-8], -858993460		; ccccccccH
	mov	DWORD PTR [ebp-4], -858993460		; ccccccccH
	mov	DWORD PTR _this$[ebp], ecx

; 1484 : 	if (from == NULL)

	cmp	DWORD PTR _from$[ebp], 0
	jne	SHORT $LN5@matchArran

; 1485 : 		return false;

	xor	al, al
	jmp	$LN1@matchArran
$LN5@matchArran:

; 1486 : 
; 1487 : 	if ((!deallocateArrangement (to)) || (!allocateArrangement (to, from->numChannels)))

	mov	esi, esp
	mov	eax, DWORD PTR _to$[ebp]
	push	eax
	mov	ecx, DWORD PTR _this$[ebp]
	mov	edx, DWORD PTR [ecx]
	mov	ecx, DWORD PTR _this$[ebp]
	mov	eax, DWORD PTR [edx+444]
	call	eax
	cmp	esi, esp
	call	__RTC_CheckEsp
	movzx	ecx, al
	test	ecx, ecx
	je	SHORT $LN7@matchArran
	mov	esi, esp
	mov	edx, DWORD PTR _from$[ebp]
	mov	eax, DWORD PTR [edx+4]
	push	eax
	mov	ecx, DWORD PTR _to$[ebp]
	push	ecx
	mov	edx, DWORD PTR _this$[ebp]
	mov	eax, DWORD PTR [edx]
	mov	ecx, DWORD PTR _this$[ebp]
	mov	edx, DWORD PTR [eax+440]
	call	edx
	cmp	esi, esp
	call	__RTC_CheckEsp
	movzx	eax, al
	test	eax, eax
	jne	SHORT $LN6@matchArran
$LN7@matchArran:

; 1488 : 		return false;

	xor	al, al
	jmp	SHORT $LN1@matchArran
$LN6@matchArran:

; 1489 : 	
; 1490 : 	(*to)->type = from->type;

	mov	ecx, DWORD PTR _to$[ebp]
	mov	edx, DWORD PTR [ecx]
	mov	eax, DWORD PTR _from$[ebp]
	mov	ecx, DWORD PTR [eax]
	mov	DWORD PTR [edx], ecx

; 1491 : 	for (VstInt32 i = 0; i < (*to)->numChannels; i++)

	mov	DWORD PTR _i$1[ebp], 0
	jmp	SHORT $LN4@matchArran
$LN2@matchArran:
	mov	edx, DWORD PTR _i$1[ebp]
	add	edx, 1
	mov	DWORD PTR _i$1[ebp], edx
$LN4@matchArran:
	mov	eax, DWORD PTR _to$[ebp]
	mov	ecx, DWORD PTR [eax]
	mov	edx, DWORD PTR _i$1[ebp]
	cmp	edx, DWORD PTR [ecx+4]
	jge	SHORT $LN3@matchArran

; 1492 : 	{
; 1493 : 		if (!copySpeaker (&((*to)->speakers[i]), &(from->speakers[i])))

	imul	eax, DWORD PTR _i$1[ebp], 112
	mov	ecx, DWORD PTR _from$[ebp]
	lea	edx, DWORD PTR [ecx+eax+8]
	mov	esi, esp
	push	edx
	mov	eax, DWORD PTR _to$[ebp]
	mov	ecx, DWORD PTR [eax]
	imul	edx, DWORD PTR _i$1[ebp], 112
	lea	eax, DWORD PTR [ecx+edx+8]
	push	eax
	mov	ecx, DWORD PTR _this$[ebp]
	mov	edx, DWORD PTR [ecx]
	mov	ecx, DWORD PTR _this$[ebp]
	mov	eax, DWORD PTR [edx+448]
	call	eax
	cmp	esi, esp
	call	__RTC_CheckEsp
	movzx	ecx, al
	test	ecx, ecx
	jne	SHORT $LN8@matchArran

; 1494 : 			return false;

	xor	al, al
	jmp	SHORT $LN1@matchArran
$LN8@matchArran:

; 1495 : 	}

	jmp	SHORT $LN2@matchArran
$LN3@matchArran:

; 1496 : 
; 1497 : 	return true;

	mov	al, 1
$LN1@matchArran:

; 1498 : }

	pop	esi
	add	esp, 8
	cmp	ebp, esp
	call	__RTC_CheckEsp
	mov	esp, ebp
	pop	ebp
	ret	8
?matchArrangement@AudioEffectX@@UAE_NPAPAUVstSpeakerArrangement@@PAU2@@Z ENDP ; AudioEffectX::matchArrangement
_TEXT	ENDS
; Function compile flags: /Odtp /RTCsu
; File E:\FoxSuite\vst-2.4-sdk\vstsdk2.4\public.sdk\source\vst2.x\audioeffectx.cpp
_TEXT	SEGMENT
_this$ = -4						; size = 4
_to$ = 8						; size = 4
_from$ = 12						; size = 4
?copySpeaker@AudioEffectX@@UAE_NPAUVstSpeakerProperties@@0@Z PROC ; AudioEffectX::copySpeaker
; _this$ = ecx

; 1455 : {

	push	ebp
	mov	ebp, esp
	push	ecx
	mov	DWORD PTR [ebp-4], -858993460		; ccccccccH
	mov	DWORD PTR _this$[ebp], ecx

; 1456 : 	if ((from == NULL) || (to == NULL))

	cmp	DWORD PTR _from$[ebp], 0
	je	SHORT $LN3@copySpeake
	cmp	DWORD PTR _to$[ebp], 0
	jne	SHORT $LN2@copySpeake
$LN3@copySpeake:

; 1457 : 		return false;

	xor	al, al
	jmp	SHORT $LN1@copySpeake
$LN2@copySpeake:

; 1458 : 	
; 1459 : 	vst_strncpy (to->name, from->name, 63);

	push	63					; 0000003fH
	mov	eax, DWORD PTR _from$[ebp]
	add	eax, 16					; 00000010H
	push	eax
	mov	ecx, DWORD PTR _to$[ebp]
	add	ecx, 16					; 00000010H
	push	ecx
	call	?vst_strncpy@@YAPADPADPBDI@Z		; vst_strncpy
	add	esp, 12					; 0000000cH

; 1460 : 	to->type      = from->type;

	mov	edx, DWORD PTR _to$[ebp]
	mov	eax, DWORD PTR _from$[ebp]
	mov	ecx, DWORD PTR [eax+80]
	mov	DWORD PTR [edx+80], ecx

; 1461 : 	to->azimuth   = from->azimuth;

	mov	edx, DWORD PTR _to$[ebp]
	mov	eax, DWORD PTR _from$[ebp]
	mov	ecx, DWORD PTR [eax]
	mov	DWORD PTR [edx], ecx

; 1462 : 	to->elevation = from->elevation;

	mov	edx, DWORD PTR _to$[ebp]
	mov	eax, DWORD PTR _from$[ebp]
	mov	ecx, DWORD PTR [eax+4]
	mov	DWORD PTR [edx+4], ecx

; 1463 : 	to->radius    = from->radius;

	mov	edx, DWORD PTR _to$[ebp]
	mov	eax, DWORD PTR _from$[ebp]
	mov	ecx, DWORD PTR [eax+8]
	mov	DWORD PTR [edx+8], ecx

; 1464 : 	to->reserved  = from->reserved;

	mov	edx, DWORD PTR _to$[ebp]
	mov	eax, DWORD PTR _from$[ebp]
	mov	ecx, DWORD PTR [eax+12]
	mov	DWORD PTR [edx+12], ecx

; 1465 : 	memcpy (to->future, from->future, 28);

	push	28					; 0000001cH
	mov	edx, DWORD PTR _from$[ebp]
	add	edx, 84					; 00000054H
	push	edx
	mov	eax, DWORD PTR _to$[ebp]
	add	eax, 84					; 00000054H
	push	eax
	call	_memcpy
	add	esp, 12					; 0000000cH

; 1466 : 	
; 1467 : 	return true;

	mov	al, 1
$LN1@copySpeake:

; 1468 : }

	add	esp, 4
	cmp	ebp, esp
	call	__RTC_CheckEsp
	mov	esp, ebp
	pop	ebp
	ret	8
?copySpeaker@AudioEffectX@@UAE_NPAUVstSpeakerProperties@@0@Z ENDP ; AudioEffectX::copySpeaker
_TEXT	ENDS
; Function compile flags: /Odtp /RTCsu
; File E:\FoxSuite\vst-2.4-sdk\vstsdk2.4\public.sdk\source\vst2.x\audioeffectx.cpp
_TEXT	SEGMENT
$T1 = -12						; size = 4
_ptr$2 = -8						; size = 4
_this$ = -4						; size = 4
_arrangement$ = 8					; size = 4
?deallocateArrangement@AudioEffectX@@UAE_NPAPAUVstSpeakerArrangement@@@Z PROC ; AudioEffectX::deallocateArrangement
; _this$ = ecx

; 1430 : {

	push	ebp
	mov	ebp, esp
	sub	esp, 12					; 0000000cH
	mov	DWORD PTR [ebp-12], -858993460		; ccccccccH
	mov	DWORD PTR [ebp-8], -858993460		; ccccccccH
	mov	DWORD PTR [ebp-4], -858993460		; ccccccccH
	mov	DWORD PTR _this$[ebp], ecx

; 1431 : 	if (*arrangement) 

	mov	eax, DWORD PTR _arrangement$[ebp]
	cmp	DWORD PTR [eax], 0
	je	SHORT $LN2@deallocate

; 1432 : 	{ 
; 1433 : 		char *ptr = (char*)(*arrangement); 

	mov	ecx, DWORD PTR _arrangement$[ebp]
	mov	edx, DWORD PTR [ecx]
	mov	DWORD PTR _ptr$2[ebp], edx

; 1434 : 		delete [] ptr; 

	mov	eax, DWORD PTR _ptr$2[ebp]
	mov	DWORD PTR $T1[ebp], eax
	mov	ecx, DWORD PTR $T1[ebp]
	push	ecx
	call	??_V@YAXPAX@Z				; operator delete[]
	add	esp, 4

; 1435 : 		*arrangement = 0;

	mov	edx, DWORD PTR _arrangement$[ebp]
	mov	DWORD PTR [edx], 0
$LN2@deallocate:

; 1436 : 	}
; 1437 : 	return true;

	mov	al, 1

; 1438 : }

	add	esp, 12					; 0000000cH
	cmp	ebp, esp
	call	__RTC_CheckEsp
	mov	esp, ebp
	pop	ebp
	ret	4
?deallocateArrangement@AudioEffectX@@UAE_NPAPAUVstSpeakerArrangement@@@Z ENDP ; AudioEffectX::deallocateArrangement
_TEXT	ENDS
; Function compile flags: /Odtp /RTCsu
; File E:\FoxSuite\vst-2.4-sdk\vstsdk2.4\public.sdk\source\vst2.x\audioeffectx.cpp
_TEXT	SEGMENT
$T1 = -24						; size = 4
$T2 = -20						; size = 4
_ptr$ = -16						; size = 4
_size$ = -12						; size = 4
_ptr$3 = -8						; size = 4
_this$ = -4						; size = 4
_arrangement$ = 8					; size = 4
_nbChannels$ = 12					; size = 4
?allocateArrangement@AudioEffectX@@UAE_NPAPAUVstSpeakerArrangement@@H@Z PROC ; AudioEffectX::allocateArrangement
; _this$ = ecx

; 1404 : {

	push	ebp
	mov	ebp, esp
	sub	esp, 24					; 00000018H
	mov	eax, -858993460				; ccccccccH
	mov	DWORD PTR [ebp-24], eax
	mov	DWORD PTR [ebp-20], eax
	mov	DWORD PTR [ebp-16], eax
	mov	DWORD PTR [ebp-12], eax
	mov	DWORD PTR [ebp-8], eax
	mov	DWORD PTR [ebp-4], eax
	mov	DWORD PTR _this$[ebp], ecx

; 1405 : 	if (*arrangement) 

	mov	eax, DWORD PTR _arrangement$[ebp]
	cmp	DWORD PTR [eax], 0
	je	SHORT $LN2@allocateAr

; 1406 : 	{ 
; 1407 : 		char *ptr = (char*)(*arrangement); 

	mov	ecx, DWORD PTR _arrangement$[ebp]
	mov	edx, DWORD PTR [ecx]
	mov	DWORD PTR _ptr$3[ebp], edx

; 1408 : 		delete [] ptr;

	mov	eax, DWORD PTR _ptr$3[ebp]
	mov	DWORD PTR $T2[ebp], eax
	mov	ecx, DWORD PTR $T2[ebp]
	push	ecx
	call	??_V@YAXPAX@Z				; operator delete[]
	add	esp, 4
$LN2@allocateAr:

; 1409 : 	}
; 1410 : 
; 1411 : 	VstInt32 size = 2 * sizeof (VstInt32) + nbChannels * sizeof (VstSpeakerProperties);

	imul	edx, DWORD PTR _nbChannels$[ebp], 112
	add	edx, 8
	mov	DWORD PTR _size$[ebp], edx

; 1412 : 	char* ptr = new char[size];

	mov	eax, DWORD PTR _size$[ebp]
	push	eax
	call	??_U@YAPAXI@Z				; operator new[]
	add	esp, 4
	mov	DWORD PTR $T1[ebp], eax
	mov	ecx, DWORD PTR $T1[ebp]
	mov	DWORD PTR _ptr$[ebp], ecx

; 1413 : 	if (!ptr)

	cmp	DWORD PTR _ptr$[ebp], 0
	jne	SHORT $LN3@allocateAr

; 1414 : 		return false;

	xor	al, al
	jmp	SHORT $LN1@allocateAr
$LN3@allocateAr:

; 1415 : 
; 1416 : 	memset (ptr, 0, size);

	mov	edx, DWORD PTR _size$[ebp]
	push	edx
	push	0
	mov	eax, DWORD PTR _ptr$[ebp]
	push	eax
	call	_memset
	add	esp, 12					; 0000000cH

; 1417 : 	*arrangement = (VstSpeakerArrangement*)ptr;

	mov	ecx, DWORD PTR _arrangement$[ebp]
	mov	edx, DWORD PTR _ptr$[ebp]
	mov	DWORD PTR [ecx], edx

; 1418 : 	(*arrangement)->numChannels = nbChannels;

	mov	eax, DWORD PTR _arrangement$[ebp]
	mov	ecx, DWORD PTR [eax]
	mov	edx, DWORD PTR _nbChannels$[ebp]
	mov	DWORD PTR [ecx+4], edx

; 1419 : 	return true;

	mov	al, 1
$LN1@allocateAr:

; 1420 : }

	add	esp, 24					; 00000018H
	cmp	ebp, esp
	call	__RTC_CheckEsp
	mov	esp, ebp
	pop	ebp
	ret	8
?allocateArrangement@AudioEffectX@@UAE_NPAPAUVstSpeakerArrangement@@H@Z ENDP ; AudioEffectX::allocateArrangement
_TEXT	ENDS
; Function compile flags: /Odtp /RTCsu
; File E:\FoxSuite\vst-2.4-sdk\vstsdk2.4\public.sdk\source\vst2.x\audioeffectx.h
;	COMDAT ?getNextShellPlugin@AudioEffectX@@UAEHPAD@Z
_TEXT	SEGMENT
_this$ = -4						; size = 4
_name$ = 8						; size = 4
?getNextShellPlugin@AudioEffectX@@UAEHPAD@Z PROC	; AudioEffectX::getNextShellPlugin, COMDAT
; _this$ = ecx

; 177  : 	virtual VstInt32 getNextShellPlugin (char* name) { return 0; }	 ///< This opcode is only called, if the plug-in is of type #kPlugCategShell, in order to extract all included sub-plugins names.

	push	ebp
	mov	ebp, esp
	push	ecx
	mov	DWORD PTR _this$[ebp], ecx
	xor	eax, eax
	mov	esp, ebp
	pop	ebp
	ret	4
?getNextShellPlugin@AudioEffectX@@UAEHPAD@Z ENDP	; AudioEffectX::getNextShellPlugin
_TEXT	ENDS
; Function compile flags: /Odtp /RTCsu
; File E:\FoxSuite\vst-2.4-sdk\vstsdk2.4\public.sdk\source\vst2.x\audioeffectx.cpp
_TEXT	SEGMENT
tv89 = -5						; size = 1
_this$ = -4						; size = 4
_ptr$ = 8						; size = 4
?closeFileSelector@AudioEffectX@@UAE_NPAUVstFileSelect@@@Z PROC ; AudioEffectX::closeFileSelector
; _this$ = ecx

; 1265 : {

	push	ebp
	mov	ebp, esp
	sub	esp, 8
	push	esi
	mov	DWORD PTR [ebp-8], -858993460		; ccccccccH
	mov	DWORD PTR [ebp-4], -858993460		; ccccccccH
	mov	DWORD PTR _this$[ebp], ecx

; 1266 : 	if (audioMaster && ptr)

	mov	eax, DWORD PTR _this$[ebp]
	cmp	DWORD PTR [eax+4], 0
	je	SHORT $LN2@closeFileS
	cmp	DWORD PTR _ptr$[ebp], 0
	je	SHORT $LN2@closeFileS

; 1267 : 		return (audioMaster (&cEffect, audioMasterCloseFileSelector, 0, 0, ptr, 0)) ? true : false;

	mov	esi, esp
	push	ecx
	xorps	xmm0, xmm0
	movss	DWORD PTR [esp], xmm0
	mov	ecx, DWORD PTR _ptr$[ebp]
	push	ecx
	push	0
	push	0
	push	46					; 0000002eH
	mov	edx, DWORD PTR _this$[ebp]
	add	edx, 32					; 00000020H
	push	edx
	mov	eax, DWORD PTR _this$[ebp]
	mov	ecx, DWORD PTR [eax+4]
	call	ecx
	add	esp, 24					; 00000018H
	cmp	esi, esp
	call	__RTC_CheckEsp
	test	eax, eax
	je	SHORT $LN4@closeFileS
	mov	BYTE PTR tv89[ebp], 1
	jmp	SHORT $LN5@closeFileS
$LN4@closeFileS:
	mov	BYTE PTR tv89[ebp], 0
$LN5@closeFileS:
	mov	al, BYTE PTR tv89[ebp]
	jmp	SHORT $LN1@closeFileS
$LN2@closeFileS:

; 1268 : 	return 0;

	xor	al, al
$LN1@closeFileS:

; 1269 : }

	pop	esi
	add	esp, 8
	cmp	ebp, esp
	call	__RTC_CheckEsp
	mov	esp, ebp
	pop	ebp
	ret	4
?closeFileSelector@AudioEffectX@@UAE_NPAUVstFileSelect@@@Z ENDP ; AudioEffectX::closeFileSelector
_TEXT	ENDS
; Function compile flags: /Odtp /RTCsu
; File E:\FoxSuite\vst-2.4-sdk\vstsdk2.4\public.sdk\source\vst2.x\audioeffectx.cpp
_TEXT	SEGMENT
tv89 = -5						; size = 1
_this$ = -4						; size = 4
_ptr$ = 8						; size = 4
?openFileSelector@AudioEffectX@@UAE_NPAUVstFileSelect@@@Z PROC ; AudioEffectX::openFileSelector
; _this$ = ecx

; 1249 : {

	push	ebp
	mov	ebp, esp
	sub	esp, 8
	push	esi
	mov	DWORD PTR [ebp-8], -858993460		; ccccccccH
	mov	DWORD PTR [ebp-4], -858993460		; ccccccccH
	mov	DWORD PTR _this$[ebp], ecx

; 1250 : 	if (audioMaster && ptr)

	mov	eax, DWORD PTR _this$[ebp]
	cmp	DWORD PTR [eax+4], 0
	je	SHORT $LN2@openFileSe
	cmp	DWORD PTR _ptr$[ebp], 0
	je	SHORT $LN2@openFileSe

; 1251 : 		return (audioMaster (&cEffect, audioMasterOpenFileSelector, 0, 0, ptr, 0)) ? true : false;

	mov	esi, esp
	push	ecx
	xorps	xmm0, xmm0
	movss	DWORD PTR [esp], xmm0
	mov	ecx, DWORD PTR _ptr$[ebp]
	push	ecx
	push	0
	push	0
	push	45					; 0000002dH
	mov	edx, DWORD PTR _this$[ebp]
	add	edx, 32					; 00000020H
	push	edx
	mov	eax, DWORD PTR _this$[ebp]
	mov	ecx, DWORD PTR [eax+4]
	call	ecx
	add	esp, 24					; 00000018H
	cmp	esi, esp
	call	__RTC_CheckEsp
	test	eax, eax
	je	SHORT $LN4@openFileSe
	mov	BYTE PTR tv89[ebp], 1
	jmp	SHORT $LN5@openFileSe
$LN4@openFileSe:
	mov	BYTE PTR tv89[ebp], 0
$LN5@openFileSe:
	mov	al, BYTE PTR tv89[ebp]
	jmp	SHORT $LN1@openFileSe
$LN2@openFileSe:

; 1252 : 	return 0;

	xor	al, al
$LN1@openFileSe:

; 1253 : }

	pop	esi
	add	esp, 8
	cmp	ebp, esp
	call	__RTC_CheckEsp
	mov	esp, ebp
	pop	ebp
	ret	4
?openFileSelector@AudioEffectX@@UAE_NPAUVstFileSelect@@@Z ENDP ; AudioEffectX::openFileSelector
_TEXT	ENDS
; Function compile flags: /Odtp /RTCsu
; File E:\FoxSuite\vst-2.4-sdk\vstsdk2.4\public.sdk\source\vst2.x\audioeffectx.cpp
_TEXT	SEGMENT
tv88 = -8						; size = 4
_this$ = -4						; size = 4
_width$ = 8						; size = 4
_height$ = 12						; size = 4
?sizeWindow@AudioEffectX@@UAE_NHH@Z PROC		; AudioEffectX::sizeWindow
; _this$ = ecx

; 468  : {

	push	ebp
	mov	ebp, esp
	sub	esp, 8
	push	esi
	mov	DWORD PTR [ebp-8], -858993460		; ccccccccH
	mov	DWORD PTR [ebp-4], -858993460		; ccccccccH
	mov	DWORD PTR _this$[ebp], ecx

; 469  : 	if (audioMaster)

	mov	eax, DWORD PTR _this$[ebp]
	cmp	DWORD PTR [eax+4], 0
	je	SHORT $LN2@sizeWindow

; 470  : 		return (audioMaster (&cEffect, audioMasterSizeWindow, width, height, 0, 0) != 0);

	mov	esi, esp
	push	ecx
	xorps	xmm0, xmm0
	movss	DWORD PTR [esp], xmm0
	push	0
	mov	ecx, DWORD PTR _height$[ebp]
	push	ecx
	mov	edx, DWORD PTR _width$[ebp]
	push	edx
	push	15					; 0000000fH
	mov	eax, DWORD PTR _this$[ebp]
	add	eax, 32					; 00000020H
	push	eax
	mov	ecx, DWORD PTR _this$[ebp]
	mov	edx, DWORD PTR [ecx+4]
	call	edx
	add	esp, 24					; 00000018H
	cmp	esi, esp
	call	__RTC_CheckEsp
	test	eax, eax
	je	SHORT $LN4@sizeWindow
	mov	DWORD PTR tv88[ebp], 1
	jmp	SHORT $LN5@sizeWindow
$LN4@sizeWindow:
	mov	DWORD PTR tv88[ebp], 0
$LN5@sizeWindow:
	mov	al, BYTE PTR tv88[ebp]
	jmp	SHORT $LN1@sizeWindow
$LN2@sizeWindow:

; 471  : 	return false;

	xor	al, al
$LN1@sizeWindow:

; 472  : }

	pop	esi
	add	esp, 8
	cmp	ebp, esp
	call	__RTC_CheckEsp
	mov	esp, ebp
	pop	ebp
	ret	8
?sizeWindow@AudioEffectX@@UAE_NHH@Z ENDP		; AudioEffectX::sizeWindow
_TEXT	ENDS
; Function compile flags: /Odtp /RTCsu
; File E:\FoxSuite\vst-2.4-sdk\vstsdk2.4\public.sdk\source\vst2.x\audioeffectx.cpp
_TEXT	SEGMENT
tv88 = -5						; size = 1
_this$ = -4						; size = 4
?updateDisplay@AudioEffectX@@UAE_NXZ PROC		; AudioEffectX::updateDisplay
; _this$ = ecx

; 926  : {

	push	ebp
	mov	ebp, esp
	sub	esp, 8
	push	esi
	mov	DWORD PTR [ebp-8], -858993460		; ccccccccH
	mov	DWORD PTR [ebp-4], -858993460		; ccccccccH
	mov	DWORD PTR _this$[ebp], ecx

; 927  : 	if (audioMaster)

	mov	eax, DWORD PTR _this$[ebp]
	cmp	DWORD PTR [eax+4], 0
	je	SHORT $LN2@updateDisp

; 928  : 		return (audioMaster (&cEffect, audioMasterUpdateDisplay, 0, 0, 0, 0)) ? true : false;

	mov	esi, esp
	push	ecx
	xorps	xmm0, xmm0
	movss	DWORD PTR [esp], xmm0
	push	0
	push	0
	push	0
	push	42					; 0000002aH
	mov	ecx, DWORD PTR _this$[ebp]
	add	ecx, 32					; 00000020H
	push	ecx
	mov	edx, DWORD PTR _this$[ebp]
	mov	eax, DWORD PTR [edx+4]
	call	eax
	add	esp, 24					; 00000018H
	cmp	esi, esp
	call	__RTC_CheckEsp
	test	eax, eax
	je	SHORT $LN4@updateDisp
	mov	BYTE PTR tv88[ebp], 1
	jmp	SHORT $LN5@updateDisp
$LN4@updateDisp:
	mov	BYTE PTR tv88[ebp], 0
$LN5@updateDisp:
	mov	al, BYTE PTR tv88[ebp]
	jmp	SHORT $LN1@updateDisp
$LN2@updateDisp:

; 929  : 	return 0;

	xor	al, al
$LN1@updateDisp:

; 930  : }

	pop	esi
	add	esp, 8
	cmp	ebp, esp
	call	__RTC_CheckEsp
	mov	esp, ebp
	pop	ebp
	ret	0
?updateDisplay@AudioEffectX@@UAE_NXZ ENDP		; AudioEffectX::updateDisplay
_TEXT	ENDS
; Function compile flags: /Odtp /RTCsu
; File E:\FoxSuite\vst-2.4-sdk\vstsdk2.4\public.sdk\source\vst2.x\audioeffectx.h
;	COMDAT ?getMidiKeyName@AudioEffectX@@UAE_NHPAUMidiKeyName@@@Z
_TEXT	SEGMENT
_this$ = -4						; size = 4
_channel$ = 8						; size = 4
_keyName$ = 12						; size = 4
?getMidiKeyName@AudioEffectX@@UAE_NHPAUMidiKeyName@@@Z PROC ; AudioEffectX::getMidiKeyName, COMDAT
; _this$ = ecx

; 157  : 	virtual bool getMidiKeyName (VstInt32 channel, MidiKeyName* keyName) { return false; } ///< Fill \e keyName with information for 'thisProgramIndex' and 'thisKeyNumber'

	push	ebp
	mov	ebp, esp
	push	ecx
	mov	DWORD PTR _this$[ebp], ecx
	xor	al, al
	mov	esp, ebp
	pop	ebp
	ret	8
?getMidiKeyName@AudioEffectX@@UAE_NHPAUMidiKeyName@@@Z ENDP ; AudioEffectX::getMidiKeyName
_TEXT	ENDS
; Function compile flags: /Odtp /RTCsu
; File E:\FoxSuite\vst-2.4-sdk\vstsdk2.4\public.sdk\source\vst2.x\audioeffectx.h
;	COMDAT ?hasMidiProgramsChanged@AudioEffectX@@UAE_NH@Z
_TEXT	SEGMENT
_this$ = -4						; size = 4
_channel$ = 8						; size = 4
?hasMidiProgramsChanged@AudioEffectX@@UAE_NH@Z PROC	; AudioEffectX::hasMidiProgramsChanged, COMDAT
; _this$ = ecx

; 156  : 	virtual bool hasMidiProgramsChanged (VstInt32 channel) { return false; } ///< Return true if the #MidiProgramNames, #MidiKeyNames or #MidiControllerNames had changed on this MIDI channel.

	push	ebp
	mov	ebp, esp
	push	ecx
	mov	DWORD PTR _this$[ebp], ecx
	xor	al, al
	mov	esp, ebp
	pop	ebp
	ret	4
?hasMidiProgramsChanged@AudioEffectX@@UAE_NH@Z ENDP	; AudioEffectX::hasMidiProgramsChanged
_TEXT	ENDS
; Function compile flags: /Odtp /RTCsu
; File E:\FoxSuite\vst-2.4-sdk\vstsdk2.4\public.sdk\source\vst2.x\audioeffectx.h
;	COMDAT ?getMidiProgramCategory@AudioEffectX@@UAEHHPAUMidiProgramCategory@@@Z
_TEXT	SEGMENT
_this$ = -4						; size = 4
_channel$ = 8						; size = 4
_category$ = 12						; size = 4
?getMidiProgramCategory@AudioEffectX@@UAEHHPAUMidiProgramCategory@@@Z PROC ; AudioEffectX::getMidiProgramCategory, COMDAT
; _this$ = ecx

; 155  : 	virtual VstInt32 getMidiProgramCategory (VstInt32 channel, MidiProgramCategory* category) { return 0; }		///< Fill \e category with information for 'thisCategoryIndex'.

	push	ebp
	mov	ebp, esp
	push	ecx
	mov	DWORD PTR _this$[ebp], ecx
	xor	eax, eax
	mov	esp, ebp
	pop	ebp
	ret	8
?getMidiProgramCategory@AudioEffectX@@UAEHHPAUMidiProgramCategory@@@Z ENDP ; AudioEffectX::getMidiProgramCategory
_TEXT	ENDS
; Function compile flags: /Odtp /RTCsu
; File E:\FoxSuite\vst-2.4-sdk\vstsdk2.4\public.sdk\source\vst2.x\audioeffectx.h
;	COMDAT ?getCurrentMidiProgram@AudioEffectX@@UAEHHPAUMidiProgramName@@@Z
_TEXT	SEGMENT
_this$ = -4						; size = 4
_channel$ = 8						; size = 4
_currentProgram$ = 12					; size = 4
?getCurrentMidiProgram@AudioEffectX@@UAEHHPAUMidiProgramName@@@Z PROC ; AudioEffectX::getCurrentMidiProgram, COMDAT
; _this$ = ecx

; 154  : 	virtual VstInt32 getCurrentMidiProgram (VstInt32 channel, MidiProgramName* currentProgram) { return -1; }	///< Fill \e currentProgram with information for the current MIDI program.

	push	ebp
	mov	ebp, esp
	push	ecx
	mov	DWORD PTR _this$[ebp], ecx
	or	eax, -1
	mov	esp, ebp
	pop	ebp
	ret	8
?getCurrentMidiProgram@AudioEffectX@@UAEHHPAUMidiProgramName@@@Z ENDP ; AudioEffectX::getCurrentMidiProgram
_TEXT	ENDS
; Function compile flags: /Odtp /RTCsu
; File E:\FoxSuite\vst-2.4-sdk\vstsdk2.4\public.sdk\source\vst2.x\audioeffectx.h
;	COMDAT ?getMidiProgramName@AudioEffectX@@UAEHHPAUMidiProgramName@@@Z
_TEXT	SEGMENT
_this$ = -4						; size = 4
_channel$ = 8						; size = 4
_midiProgramName$ = 12					; size = 4
?getMidiProgramName@AudioEffectX@@UAEHHPAUMidiProgramName@@@Z PROC ; AudioEffectX::getMidiProgramName, COMDAT
; _this$ = ecx

; 153  : 	virtual VstInt32 getMidiProgramName (VstInt32 channel, MidiProgramName* midiProgramName) { return 0; }		///< Fill \e midiProgramName with information for 'thisProgramIndex'.

	push	ebp
	mov	ebp, esp
	push	ecx
	mov	DWORD PTR _this$[ebp], ecx
	xor	eax, eax
	mov	esp, ebp
	pop	ebp
	ret	8
?getMidiProgramName@AudioEffectX@@UAEHHPAUMidiProgramName@@@Z ENDP ; AudioEffectX::getMidiProgramName
_TEXT	ENDS
; Function compile flags: /Odtp /RTCsu
; File E:\FoxSuite\vst-2.4-sdk\vstsdk2.4\public.sdk\source\vst2.x\audioeffectx.cpp
_TEXT	SEGMENT
_this$ = -4						; size = 4
?getPlugCategory@AudioEffectX@@UAE?AW4VstPlugCategory@@XZ PROC ; AudioEffectX::getPlugCategory
; _this$ = ecx

; 649  : { 

	push	ebp
	mov	ebp, esp
	push	ecx
	mov	DWORD PTR _this$[ebp], ecx

; 650  : 	if (cEffect.flags & effFlagsIsSynth)

	mov	eax, DWORD PTR _this$[ebp]
	mov	ecx, DWORD PTR [eax+68]
	and	ecx, 256				; 00000100H
	je	SHORT $LN2@getPlugCat

; 651  : 		return kPlugCategSynth;

	mov	eax, 2
	jmp	SHORT $LN1@getPlugCat
$LN2@getPlugCat:

; 652  : 	return kPlugCategUnknown; 

	xor	eax, eax
$LN1@getPlugCat:

; 653  : }

	mov	esp, ebp
	pop	ebp
	ret	0
?getPlugCategory@AudioEffectX@@UAE?AW4VstPlugCategory@@XZ ENDP ; AudioEffectX::getPlugCategory
_TEXT	ENDS
; Function compile flags: /Odtp /RTCsu
; File E:\FoxSuite\vst-2.4-sdk\vstsdk2.4\public.sdk\source\vst2.x\audioeffectx.h
;	COMDAT ?getVstVersion@AudioEffectX@@UAEHXZ
_TEXT	SEGMENT
_this$ = -4						; size = 4
?getVstVersion@AudioEffectX@@UAEHXZ PROC		; AudioEffectX::getVstVersion, COMDAT
; _this$ = ecx

; 144  : 	virtual VstInt32 getVstVersion () { return kVstVersion; }	///< Returns the current VST Version (#kVstVersion)

	push	ebp
	mov	ebp, esp
	push	ecx
	mov	DWORD PTR _this$[ebp], ecx
	mov	eax, 2400				; 00000960H
	mov	esp, ebp
	pop	ebp
	ret	0
?getVstVersion@AudioEffectX@@UAEHXZ ENDP		; AudioEffectX::getVstVersion
_TEXT	ENDS
; Function compile flags: /Odtp /RTCsu
; File E:\FoxSuite\vst-2.4-sdk\vstsdk2.4\public.sdk\source\vst2.x\audioeffectx.h
;	COMDAT ?canDo@AudioEffectX@@UAEHPAD@Z
_TEXT	SEGMENT
_this$ = -4						; size = 4
_text$ = 8						; size = 4
?canDo@AudioEffectX@@UAEHPAD@Z PROC			; AudioEffectX::canDo, COMDAT
; _this$ = ecx

; 143  : 	virtual VstInt32 canDo (char* text) { return 0; }			///< Reports what the plug-in is able to do (#plugCanDos in audioeffectx.cpp)

	push	ebp
	mov	ebp, esp
	push	ecx
	mov	DWORD PTR _this$[ebp], ecx
	xor	eax, eax
	mov	esp, ebp
	pop	ebp
	ret	4
?canDo@AudioEffectX@@UAEHPAD@Z ENDP			; AudioEffectX::canDo
_TEXT	ENDS
; Function compile flags: /Odtp /RTCsu
; File E:\FoxSuite\vst-2.4-sdk\vstsdk2.4\public.sdk\source\vst2.x\audioeffectx.h
;	COMDAT ?vendorSpecific@AudioEffectX@@UAEHHHPAXM@Z
_TEXT	SEGMENT
_this$ = -4						; size = 4
_lArg$ = 8						; size = 4
_lArg2$ = 12						; size = 4
_ptrArg$ = 16						; size = 4
_floatArg$ = 20						; size = 4
?vendorSpecific@AudioEffectX@@UAEHHHPAXM@Z PROC		; AudioEffectX::vendorSpecific, COMDAT
; _this$ = ecx

; 142  : 	virtual VstIntPtr vendorSpecific (VstInt32 lArg, VstIntPtr lArg2, void* ptrArg, float floatArg) { return 0; } ///< No definition, vendor specific handling

	push	ebp
	mov	ebp, esp
	push	ecx
	mov	DWORD PTR _this$[ebp], ecx
	xor	eax, eax
	mov	esp, ebp
	pop	ebp
	ret	16					; 00000010H
?vendorSpecific@AudioEffectX@@UAEHHHPAXM@Z ENDP		; AudioEffectX::vendorSpecific
_TEXT	ENDS
; Function compile flags: /Odtp /RTCsu
; File E:\FoxSuite\vst-2.4-sdk\vstsdk2.4\public.sdk\source\vst2.x\audioeffectx.h
;	COMDAT ?getVendorVersion@AudioEffectX@@UAEHXZ
_TEXT	SEGMENT
_this$ = -4						; size = 4
?getVendorVersion@AudioEffectX@@UAEHXZ PROC		; AudioEffectX::getVendorVersion, COMDAT
; _this$ = ecx

; 141  : 	virtual VstInt32 getVendorVersion () { return 0; }			///< Return vendor-specific version

	push	ebp
	mov	ebp, esp
	push	ecx
	mov	DWORD PTR _this$[ebp], ecx
	xor	eax, eax
	mov	esp, ebp
	pop	ebp
	ret	0
?getVendorVersion@AudioEffectX@@UAEHXZ ENDP		; AudioEffectX::getVendorVersion
_TEXT	ENDS
; Function compile flags: /Odtp /RTCsu
; File E:\FoxSuite\vst-2.4-sdk\vstsdk2.4\public.sdk\source\vst2.x\audioeffectx.h
;	COMDAT ?getProductString@AudioEffectX@@UAE_NPAD@Z
_TEXT	SEGMENT
_this$ = -4						; size = 4
_text$ = 8						; size = 4
?getProductString@AudioEffectX@@UAE_NPAD@Z PROC		; AudioEffectX::getProductString, COMDAT
; _this$ = ecx

; 140  : 	virtual bool getProductString (char* text) { return false; }///< Fill \e text with a string identifying the product name

	push	ebp
	mov	ebp, esp
	push	ecx
	mov	DWORD PTR _this$[ebp], ecx
	xor	al, al
	mov	esp, ebp
	pop	ebp
	ret	4
?getProductString@AudioEffectX@@UAE_NPAD@Z ENDP		; AudioEffectX::getProductString
_TEXT	ENDS
; Function compile flags: /Odtp /RTCsu
; File E:\FoxSuite\vst-2.4-sdk\vstsdk2.4\public.sdk\source\vst2.x\audioeffectx.h
;	COMDAT ?getVendorString@AudioEffectX@@UAE_NPAD@Z
_TEXT	SEGMENT
_this$ = -4						; size = 4
_text$ = 8						; size = 4
?getVendorString@AudioEffectX@@UAE_NPAD@Z PROC		; AudioEffectX::getVendorString, COMDAT
; _this$ = ecx

; 139  : 	virtual bool getVendorString (char* text) { return false; }	///< Fill \e text with a string identifying the vendor

	push	ebp
	mov	ebp, esp
	push	ecx
	mov	DWORD PTR _this$[ebp], ecx
	xor	al, al
	mov	esp, ebp
	pop	ebp
	ret	4
?getVendorString@AudioEffectX@@UAE_NPAD@Z ENDP		; AudioEffectX::getVendorString
_TEXT	ENDS
; Function compile flags: /Odtp /RTCsu
; File E:\FoxSuite\vst-2.4-sdk\vstsdk2.4\public.sdk\source\vst2.x\audioeffectx.h
;	COMDAT ?getEffectName@AudioEffectX@@UAE_NPAD@Z
_TEXT	SEGMENT
_this$ = -4						; size = 4
_name$ = 8						; size = 4
?getEffectName@AudioEffectX@@UAE_NPAD@Z PROC		; AudioEffectX::getEffectName, COMDAT
; _this$ = ecx

; 138  : 	virtual bool getEffectName (char* name) { return false; }	///< Fill \e text with a string identifying the effect

	push	ebp
	mov	ebp, esp
	push	ecx
	mov	DWORD PTR _this$[ebp], ecx
	xor	al, al
	mov	esp, ebp
	pop	ebp
	ret	4
?getEffectName@AudioEffectX@@UAE_NPAD@Z ENDP		; AudioEffectX::getEffectName
_TEXT	ENDS
; Function compile flags: /Odtp /RTCsu
; File E:\FoxSuite\vst-2.4-sdk\vstsdk2.4\public.sdk\source\vst2.x\audioeffectx.cpp
_TEXT	SEGMENT
_ret$1 = -12						; size = 4
_this$ = -4						; size = 4
?getDirectory@AudioEffectX@@UAEPAXXZ PROC		; AudioEffectX::getDirectory
; _this$ = ecx

; 912  : {

	push	ebp
	mov	ebp, esp
	sub	esp, 16					; 00000010H
	push	esi
	mov	eax, -858993460				; ccccccccH
	mov	DWORD PTR [ebp-16], eax
	mov	DWORD PTR [ebp-12], eax
	mov	DWORD PTR [ebp-8], eax
	mov	DWORD PTR [ebp-4], eax
	mov	DWORD PTR _this$[ebp], ecx

; 913  : 	if (audioMaster)

	mov	eax, DWORD PTR _this$[ebp]
	cmp	DWORD PTR [eax+4], 0
	je	SHORT $LN2@getDirecto

; 914  : 	{
; 915  : 		VstIntPtr ret = (audioMaster (&cEffect, audioMasterGetDirectory, 0, 0, 0, 0));

	mov	esi, esp
	push	ecx
	xorps	xmm0, xmm0
	movss	DWORD PTR [esp], xmm0
	push	0
	push	0
	push	0
	push	41					; 00000029H
	mov	ecx, DWORD PTR _this$[ebp]
	add	ecx, 32					; 00000020H
	push	ecx
	mov	edx, DWORD PTR _this$[ebp]
	mov	eax, DWORD PTR [edx+4]
	call	eax
	add	esp, 24					; 00000018H
	cmp	esi, esp
	call	__RTC_CheckEsp
	mov	DWORD PTR _ret$1[ebp], eax

; 916  : 		return FromVstPtr<void> (ret);

	lea	ecx, DWORD PTR _ret$1[ebp]
	push	ecx
	call	??$FromVstPtr@X@@YAPAXAAH@Z		; FromVstPtr<void>
	add	esp, 4
	jmp	SHORT $LN1@getDirecto
$LN2@getDirecto:

; 917  : 	}
; 918  : 	return 0;

	xor	eax, eax
$LN1@getDirecto:

; 919  : }

	push	edx
	mov	ecx, ebp
	push	eax
	lea	edx, DWORD PTR $LN6@getDirecto
	call	@_RTC_CheckStackVars@8
	pop	eax
	pop	edx
	pop	esi
	add	esp, 16					; 00000010H
	cmp	ebp, esp
	call	__RTC_CheckEsp
	mov	esp, ebp
	pop	ebp
	ret	0
	npad	1
$LN6@getDirecto:
	DD	1
	DD	$LN5@getDirecto
$LN5@getDirecto:
	DD	-12					; fffffff4H
	DD	4
	DD	$LN4@getDirecto
$LN4@getDirecto:
	DB	114					; 00000072H
	DB	101					; 00000065H
	DB	116					; 00000074H
	DB	0
?getDirectory@AudioEffectX@@UAEPAXXZ ENDP		; AudioEffectX::getDirectory
_TEXT	ENDS
; Function compile flags: /Odtp /RTCsu
; File E:\FoxSuite\vst-2.4-sdk\vstsdk2.4\public.sdk\source\vst2.x\audioeffectx.h
;	COMDAT ?getGetTailSize@AudioEffectX@@UAEHXZ
_TEXT	SEGMENT
_this$ = -4						; size = 4
?getGetTailSize@AudioEffectX@@UAEHXZ PROC		; AudioEffectX::getGetTailSize, COMDAT
; _this$ = ecx

; 136  : 	virtual VstInt32 getGetTailSize () { return 0; }///< Returns tail size; 0 is default (return 1 for 'no tail'), used in offline processing too

	push	ebp
	mov	ebp, esp
	push	ecx
	mov	DWORD PTR _this$[ebp], ecx
	xor	eax, eax
	mov	esp, ebp
	pop	ebp
	ret	0
?getGetTailSize@AudioEffectX@@UAEHXZ ENDP		; AudioEffectX::getGetTailSize
_TEXT	ENDS
; Function compile flags: /Odtp /RTCsu
; File E:\FoxSuite\vst-2.4-sdk\vstsdk2.4\public.sdk\source\vst2.x\audioeffectx.cpp
_TEXT	SEGMENT
_this$ = -4						; size = 4
_state$ = 8						; size = 1
?noTail@AudioEffectX@@UAEX_N@Z PROC			; AudioEffectX::noTail
; _this$ = ecx

; 870  : {

	push	ebp
	mov	ebp, esp
	push	ecx
	mov	DWORD PTR _this$[ebp], ecx

; 871  : 	if (state)

	movzx	eax, BYTE PTR _state$[ebp]
	test	eax, eax
	je	SHORT $LN2@noTail

; 872  : 		cEffect.flags |= effFlagsNoSoundInStop;

	mov	ecx, DWORD PTR _this$[ebp]
	mov	edx, DWORD PTR [ecx+68]
	or	edx, 512				; 00000200H
	mov	eax, DWORD PTR _this$[ebp]
	mov	DWORD PTR [eax+68], edx
	jmp	SHORT $LN1@noTail
$LN2@noTail:

; 873  : 	else
; 874  : 		cEffect.flags &= ~effFlagsNoSoundInStop;

	mov	ecx, DWORD PTR _this$[ebp]
	mov	edx, DWORD PTR [ecx+68]
	and	edx, -513				; fffffdffH
	mov	eax, DWORD PTR _this$[ebp]
	mov	DWORD PTR [eax+68], edx
$LN1@noTail:

; 875  : }

	mov	esp, ebp
	pop	ebp
	ret	4
?noTail@AudioEffectX@@UAEX_N@Z ENDP			; AudioEffectX::noTail
_TEXT	ENDS
; Function compile flags: /Odtp /RTCsu
; File E:\FoxSuite\vst-2.4-sdk\vstsdk2.4\public.sdk\source\vst2.x\audioeffectx.cpp
_TEXT	SEGMENT
_this$ = -4						; size = 4
_state$ = 8						; size = 1
?isSynth@AudioEffectX@@UAEX_N@Z PROC			; AudioEffectX::isSynth
; _this$ = ecx

; 858  : {

	push	ebp
	mov	ebp, esp
	push	ecx
	mov	DWORD PTR _this$[ebp], ecx

; 859  : 	if (state)

	movzx	eax, BYTE PTR _state$[ebp]
	test	eax, eax
	je	SHORT $LN2@isSynth

; 860  : 		cEffect.flags |= effFlagsIsSynth;

	mov	ecx, DWORD PTR _this$[ebp]
	mov	edx, DWORD PTR [ecx+68]
	or	edx, 256				; 00000100H
	mov	eax, DWORD PTR _this$[ebp]
	mov	DWORD PTR [eax+68], edx
	jmp	SHORT $LN1@isSynth
$LN2@isSynth:

; 861  : 	else
; 862  : 		cEffect.flags &= ~effFlagsIsSynth;

	mov	ecx, DWORD PTR _this$[ebp]
	mov	edx, DWORD PTR [ecx+68]
	and	edx, -257				; fffffeffH
	mov	eax, DWORD PTR _this$[ebp]
	mov	DWORD PTR [eax+68], edx
$LN1@isSynth:

; 863  : }

	mov	esp, ebp
	pop	ebp
	ret	4
?isSynth@AudioEffectX@@UAEX_N@Z ENDP			; AudioEffectX::isSynth
_TEXT	ENDS
; Function compile flags: /Odtp /RTCsu
; File E:\FoxSuite\vst-2.4-sdk\vstsdk2.4\public.sdk\source\vst2.x\audioeffectx.cpp
_TEXT	SEGMENT
_this$ = -4						; size = 4
?getHostLanguage@AudioEffectX@@UAEHXZ PROC		; AudioEffectX::getHostLanguage
; _this$ = ecx

; 882  : {

	push	ebp
	mov	ebp, esp
	push	ecx
	push	esi
	mov	DWORD PTR [ebp-4], -858993460		; ccccccccH
	mov	DWORD PTR _this$[ebp], ecx

; 883  : 	if (audioMaster)

	mov	eax, DWORD PTR _this$[ebp]
	cmp	DWORD PTR [eax+4], 0
	je	SHORT $LN2@getHostLan

; 884  : 		return (VstInt32)audioMaster (&cEffect, audioMasterGetLanguage, 0, 0, 0, 0);

	mov	esi, esp
	push	ecx
	xorps	xmm0, xmm0
	movss	DWORD PTR [esp], xmm0
	push	0
	push	0
	push	0
	push	38					; 00000026H
	mov	ecx, DWORD PTR _this$[ebp]
	add	ecx, 32					; 00000020H
	push	ecx
	mov	edx, DWORD PTR _this$[ebp]
	mov	eax, DWORD PTR [edx+4]
	call	eax
	add	esp, 24					; 00000018H
	cmp	esi, esp
	call	__RTC_CheckEsp
	jmp	SHORT $LN1@getHostLan
$LN2@getHostLan:

; 885  : 	return 0;

	xor	eax, eax
$LN1@getHostLan:

; 886  : }

	pop	esi
	add	esp, 4
	cmp	ebp, esp
	call	__RTC_CheckEsp
	mov	esp, ebp
	pop	ebp
	ret	0
?getHostLanguage@AudioEffectX@@UAEHXZ ENDP		; AudioEffectX::getHostLanguage
_TEXT	ENDS
; Function compile flags: /Odtp /RTCsu
; File E:\FoxSuite\vst-2.4-sdk\vstsdk2.4\public.sdk\source\vst2.x\audioeffectx.cpp
_TEXT	SEGMENT
tv88 = -8						; size = 4
_this$ = -4						; size = 4
_text$ = 8						; size = 4
?canHostDo@AudioEffectX@@UAEHPAD@Z PROC			; AudioEffectX::canHostDo
; _this$ = ecx

; 843  : {

	push	ebp
	mov	ebp, esp
	sub	esp, 8
	push	esi
	mov	DWORD PTR [ebp-8], -858993460		; ccccccccH
	mov	DWORD PTR [ebp-4], -858993460		; ccccccccH
	mov	DWORD PTR _this$[ebp], ecx

; 844  : 	if (audioMaster)

	mov	eax, DWORD PTR _this$[ebp]
	cmp	DWORD PTR [eax+4], 0
	je	SHORT $LN2@canHostDo

; 845  : 		return (audioMaster (&cEffect, audioMasterCanDo, 0, 0, text, 0) != 0);

	mov	esi, esp
	push	ecx
	xorps	xmm0, xmm0
	movss	DWORD PTR [esp], xmm0
	mov	ecx, DWORD PTR _text$[ebp]
	push	ecx
	push	0
	push	0
	push	37					; 00000025H
	mov	edx, DWORD PTR _this$[ebp]
	add	edx, 32					; 00000020H
	push	edx
	mov	eax, DWORD PTR _this$[ebp]
	mov	ecx, DWORD PTR [eax+4]
	call	ecx
	add	esp, 24					; 00000018H
	cmp	esi, esp
	call	__RTC_CheckEsp
	test	eax, eax
	je	SHORT $LN4@canHostDo
	mov	DWORD PTR tv88[ebp], 1
	jmp	SHORT $LN5@canHostDo
$LN4@canHostDo:
	mov	DWORD PTR tv88[ebp], 0
$LN5@canHostDo:
	mov	eax, DWORD PTR tv88[ebp]
	jmp	SHORT $LN1@canHostDo
$LN2@canHostDo:

; 846  : 	return 0;

	xor	eax, eax
$LN1@canHostDo:

; 847  : }

	pop	esi
	add	esp, 8
	cmp	ebp, esp
	call	__RTC_CheckEsp
	mov	esp, ebp
	pop	ebp
	ret	4
?canHostDo@AudioEffectX@@UAEHPAD@Z ENDP			; AudioEffectX::canHostDo
_TEXT	ENDS
; Function compile flags: /Odtp /RTCsu
; File E:\FoxSuite\vst-2.4-sdk\vstsdk2.4\public.sdk\source\vst2.x\audioeffectx.cpp
_TEXT	SEGMENT
_this$ = -4						; size = 4
_lArg1$ = 8						; size = 4
_lArg2$ = 12						; size = 4
_ptrArg$ = 16						; size = 4
_floatArg$ = 20						; size = 4
?hostVendorSpecific@AudioEffectX@@UAEHHHPAXM@Z PROC	; AudioEffectX::hostVendorSpecific
; _this$ = ecx

; 823  : {

	push	ebp
	mov	ebp, esp
	push	ecx
	push	esi
	mov	DWORD PTR [ebp-4], -858993460		; ccccccccH
	mov	DWORD PTR _this$[ebp], ecx

; 824  : 	if (audioMaster)

	mov	eax, DWORD PTR _this$[ebp]
	cmp	DWORD PTR [eax+4], 0
	je	SHORT $LN2@hostVendor

; 825  : 		return audioMaster (&cEffect, audioMasterVendorSpecific, lArg1, lArg2, ptrArg, floatArg);

	mov	esi, esp
	push	ecx
	movss	xmm0, DWORD PTR _floatArg$[ebp]
	movss	DWORD PTR [esp], xmm0
	mov	ecx, DWORD PTR _ptrArg$[ebp]
	push	ecx
	mov	edx, DWORD PTR _lArg2$[ebp]
	push	edx
	mov	eax, DWORD PTR _lArg1$[ebp]
	push	eax
	push	35					; 00000023H
	mov	ecx, DWORD PTR _this$[ebp]
	add	ecx, 32					; 00000020H
	push	ecx
	mov	edx, DWORD PTR _this$[ebp]
	mov	eax, DWORD PTR [edx+4]
	call	eax
	add	esp, 24					; 00000018H
	cmp	esi, esp
	call	__RTC_CheckEsp
	jmp	SHORT $LN1@hostVendor
$LN2@hostVendor:

; 826  : 	return 0;

	xor	eax, eax
$LN1@hostVendor:

; 827  : }

	pop	esi
	add	esp, 4
	cmp	ebp, esp
	call	__RTC_CheckEsp
	mov	esp, ebp
	pop	ebp
	ret	16					; 00000010H
?hostVendorSpecific@AudioEffectX@@UAEHHHPAXM@Z ENDP	; AudioEffectX::hostVendorSpecific
_TEXT	ENDS
; Function compile flags: /Odtp /RTCsu
; File E:\FoxSuite\vst-2.4-sdk\vstsdk2.4\public.sdk\source\vst2.x\audioeffectx.cpp
_TEXT	SEGMENT
_this$ = -4						; size = 4
?getHostVendorVersion@AudioEffectX@@UAEHXZ PROC		; AudioEffectX::getHostVendorVersion
; _this$ = ecx

; 815  : {

	push	ebp
	mov	ebp, esp
	push	ecx
	push	esi
	mov	DWORD PTR [ebp-4], -858993460		; ccccccccH
	mov	DWORD PTR _this$[ebp], ecx

; 816  : 	if (audioMaster)

	mov	eax, DWORD PTR _this$[ebp]
	cmp	DWORD PTR [eax+4], 0
	je	SHORT $LN2@getHostVen

; 817  : 		return (VstInt32)audioMaster (&cEffect, audioMasterGetVendorVersion, 0, 0, 0, 0);

	mov	esi, esp
	push	ecx
	xorps	xmm0, xmm0
	movss	DWORD PTR [esp], xmm0
	push	0
	push	0
	push	0
	push	34					; 00000022H
	mov	ecx, DWORD PTR _this$[ebp]
	add	ecx, 32					; 00000020H
	push	ecx
	mov	edx, DWORD PTR _this$[ebp]
	mov	eax, DWORD PTR [edx+4]
	call	eax
	add	esp, 24					; 00000018H
	cmp	esi, esp
	call	__RTC_CheckEsp
	jmp	SHORT $LN1@getHostVen
$LN2@getHostVen:

; 818  : 	return 0;

	xor	eax, eax
$LN1@getHostVen:

; 819  : }

	pop	esi
	add	esp, 4
	cmp	ebp, esp
	call	__RTC_CheckEsp
	mov	esp, ebp
	pop	ebp
	ret	0
?getHostVendorVersion@AudioEffectX@@UAEHXZ ENDP		; AudioEffectX::getHostVendorVersion
_TEXT	ENDS
; Function compile flags: /Odtp /RTCsu
; File E:\FoxSuite\vst-2.4-sdk\vstsdk2.4\public.sdk\source\vst2.x\audioeffectx.cpp
_TEXT	SEGMENT
tv88 = -8						; size = 4
_this$ = -4						; size = 4
_text$ = 8						; size = 4
?getHostProductString@AudioEffectX@@UAE_NPAD@Z PROC	; AudioEffectX::getHostProductString
; _this$ = ecx

; 804  : {

	push	ebp
	mov	ebp, esp
	sub	esp, 8
	push	esi
	mov	DWORD PTR [ebp-8], -858993460		; ccccccccH
	mov	DWORD PTR [ebp-4], -858993460		; ccccccccH
	mov	DWORD PTR _this$[ebp], ecx

; 805  : 	if (audioMaster)

	mov	eax, DWORD PTR _this$[ebp]
	cmp	DWORD PTR [eax+4], 0
	je	SHORT $LN2@getHostPro

; 806  : 		return (audioMaster (&cEffect, audioMasterGetProductString, 0, 0, text, 0) != 0);

	mov	esi, esp
	push	ecx
	xorps	xmm0, xmm0
	movss	DWORD PTR [esp], xmm0
	mov	ecx, DWORD PTR _text$[ebp]
	push	ecx
	push	0
	push	0
	push	33					; 00000021H
	mov	edx, DWORD PTR _this$[ebp]
	add	edx, 32					; 00000020H
	push	edx
	mov	eax, DWORD PTR _this$[ebp]
	mov	ecx, DWORD PTR [eax+4]
	call	ecx
	add	esp, 24					; 00000018H
	cmp	esi, esp
	call	__RTC_CheckEsp
	test	eax, eax
	je	SHORT $LN4@getHostPro
	mov	DWORD PTR tv88[ebp], 1
	jmp	SHORT $LN5@getHostPro
$LN4@getHostPro:
	mov	DWORD PTR tv88[ebp], 0
$LN5@getHostPro:
	mov	al, BYTE PTR tv88[ebp]
	jmp	SHORT $LN1@getHostPro
$LN2@getHostPro:

; 807  : 	return false;

	xor	al, al
$LN1@getHostPro:

; 808  : }

	pop	esi
	add	esp, 8
	cmp	ebp, esp
	call	__RTC_CheckEsp
	mov	esp, ebp
	pop	ebp
	ret	4
?getHostProductString@AudioEffectX@@UAE_NPAD@Z ENDP	; AudioEffectX::getHostProductString
_TEXT	ENDS
; Function compile flags: /Odtp /RTCsu
; File E:\FoxSuite\vst-2.4-sdk\vstsdk2.4\public.sdk\source\vst2.x\audioeffectx.cpp
_TEXT	SEGMENT
tv88 = -8						; size = 4
_this$ = -4						; size = 4
_text$ = 8						; size = 4
?getHostVendorString@AudioEffectX@@UAE_NPAD@Z PROC	; AudioEffectX::getHostVendorString
; _this$ = ecx

; 792  : {

	push	ebp
	mov	ebp, esp
	sub	esp, 8
	push	esi
	mov	DWORD PTR [ebp-8], -858993460		; ccccccccH
	mov	DWORD PTR [ebp-4], -858993460		; ccccccccH
	mov	DWORD PTR _this$[ebp], ecx

; 793  : 	if (audioMaster)

	mov	eax, DWORD PTR _this$[ebp]
	cmp	DWORD PTR [eax+4], 0
	je	SHORT $LN2@getHostVen

; 794  : 		return (audioMaster (&cEffect, audioMasterGetVendorString, 0, 0, text, 0) != 0);

	mov	esi, esp
	push	ecx
	xorps	xmm0, xmm0
	movss	DWORD PTR [esp], xmm0
	mov	ecx, DWORD PTR _text$[ebp]
	push	ecx
	push	0
	push	0
	push	32					; 00000020H
	mov	edx, DWORD PTR _this$[ebp]
	add	edx, 32					; 00000020H
	push	edx
	mov	eax, DWORD PTR _this$[ebp]
	mov	ecx, DWORD PTR [eax+4]
	call	ecx
	add	esp, 24					; 00000018H
	cmp	esi, esp
	call	__RTC_CheckEsp
	test	eax, eax
	je	SHORT $LN4@getHostVen
	mov	DWORD PTR tv88[ebp], 1
	jmp	SHORT $LN5@getHostVen
$LN4@getHostVen:
	mov	DWORD PTR tv88[ebp], 0
$LN5@getHostVen:
	mov	al, BYTE PTR tv88[ebp]
	jmp	SHORT $LN1@getHostVen
$LN2@getHostVen:

; 795  : 	return false;

	xor	al, al
$LN1@getHostVen:

; 796  : }

	pop	esi
	add	esp, 8
	cmp	ebp, esp
	call	__RTC_CheckEsp
	mov	esp, ebp
	pop	ebp
	ret	4
?getHostVendorString@AudioEffectX@@UAE_NPAD@Z ENDP	; AudioEffectX::getHostVendorString
_TEXT	ENDS
; Function compile flags: /Odtp /RTCsu
; File E:\FoxSuite\vst-2.4-sdk\vstsdk2.4\public.sdk\source\vst2.x\audioeffectx.h
;	COMDAT ?setTotalSampleToProcess@AudioEffectX@@UAEHH@Z
_TEXT	SEGMENT
_this$ = -4						; size = 4
_value$ = 8						; size = 4
?setTotalSampleToProcess@AudioEffectX@@UAEHH@Z PROC	; AudioEffectX::setTotalSampleToProcess, COMDAT
; _this$ = ecx

; 114  : 	virtual VstInt32 setTotalSampleToProcess (VstInt32 value) {	return value; }	///< Called in offline mode before process() or processVariableIo ()

	push	ebp
	mov	ebp, esp
	push	ecx
	mov	DWORD PTR _this$[ebp], ecx
	mov	eax, DWORD PTR _value$[ebp]
	mov	esp, ebp
	pop	ebp
	ret	4
?setTotalSampleToProcess@AudioEffectX@@UAEHH@Z ENDP	; AudioEffectX::setTotalSampleToProcess
_TEXT	ENDS
; Function compile flags: /Odtp /RTCsu
; File E:\FoxSuite\vst-2.4-sdk\vstsdk2.4\public.sdk\source\vst2.x\audioeffectx.h
;	COMDAT ?processVariableIo@AudioEffectX@@UAE_NPAUVstVariableIo@@@Z
_TEXT	SEGMENT
_this$ = -4						; size = 4
_varIo$ = 8						; size = 4
?processVariableIo@AudioEffectX@@UAE_NPAUVstVariableIo@@@Z PROC ; AudioEffectX::processVariableIo, COMDAT
; _this$ = ecx

; 111  : 	virtual bool processVariableIo (VstVariableIo* varIo) { return false; }		///< Used for variable I/O processing (offline processing like timestreching)

	push	ebp
	mov	ebp, esp
	push	ecx
	mov	DWORD PTR _this$[ebp], ecx
	xor	al, al
	mov	esp, ebp
	pop	ebp
	ret	4
?processVariableIo@AudioEffectX@@UAE_NPAUVstVariableIo@@@Z ENDP ; AudioEffectX::processVariableIo
_TEXT	ENDS
; Function compile flags: /Odtp /RTCsu
; File E:\FoxSuite\vst-2.4-sdk\vstsdk2.4\public.sdk\source\vst2.x\audioeffectx.h
;	COMDAT ?stopProcess@AudioEffectX@@UAEHXZ
_TEXT	SEGMENT
_this$ = -4						; size = 4
?stopProcess@AudioEffectX@@UAEHXZ PROC			; AudioEffectX::stopProcess, COMDAT
; _this$ = ecx

; 103  : 	virtual VstInt32 stopProcess () { return 0;}		///< Called after the stop of process call

	push	ebp
	mov	ebp, esp
	push	ecx
	mov	DWORD PTR _this$[ebp], ecx
	xor	eax, eax
	mov	esp, ebp
	pop	ebp
	ret	0
?stopProcess@AudioEffectX@@UAEHXZ ENDP			; AudioEffectX::stopProcess
_TEXT	ENDS
; Function compile flags: /Odtp /RTCsu
; File E:\FoxSuite\vst-2.4-sdk\vstsdk2.4\public.sdk\source\vst2.x\audioeffectx.h
;	COMDAT ?startProcess@AudioEffectX@@UAEHXZ
_TEXT	SEGMENT
_this$ = -4						; size = 4
?startProcess@AudioEffectX@@UAEHXZ PROC			; AudioEffectX::startProcess, COMDAT
; _this$ = ecx

; 102  : 	virtual VstInt32 startProcess () { return 0; }		///< Called one time before the start of process call. This indicates that the process call will be interrupted (due to Host reconfiguration or bypass state when the plug-in doesn't support softBypass)

	push	ebp
	mov	ebp, esp
	push	ecx
	mov	DWORD PTR _this$[ebp], ecx
	xor	eax, eax
	mov	esp, ebp
	pop	ebp
	ret	0
?startProcess@AudioEffectX@@UAEHXZ ENDP			; AudioEffectX::startProcess
_TEXT	ENDS
; Function compile flags: /Odtp /RTCsu
; File E:\FoxSuite\vst-2.4-sdk\vstsdk2.4\public.sdk\source\vst2.x\audioeffectx.cpp
_TEXT	SEGMENT
tv88 = -8						; size = 4
_this$ = -4						; size = 4
_events$ = 8						; size = 4
?sendVstEventsToHost@AudioEffectX@@QAE_NPAUVstEvents@@@Z PROC ; AudioEffectX::sendVstEventsToHost
; _this$ = ecx

; 360  : {

	push	ebp
	mov	ebp, esp
	sub	esp, 8
	push	esi
	mov	DWORD PTR [ebp-8], -858993460		; ccccccccH
	mov	DWORD PTR [ebp-4], -858993460		; ccccccccH
	mov	DWORD PTR _this$[ebp], ecx

; 361  : 	if (audioMaster)

	mov	eax, DWORD PTR _this$[ebp]
	cmp	DWORD PTR [eax+4], 0
	je	SHORT $LN2@sendVstEve

; 362  : 		return audioMaster (&cEffect, audioMasterProcessEvents, 0, 0, events, 0) == 1;

	mov	esi, esp
	push	ecx
	xorps	xmm0, xmm0
	movss	DWORD PTR [esp], xmm0
	mov	ecx, DWORD PTR _events$[ebp]
	push	ecx
	push	0
	push	0
	push	8
	mov	edx, DWORD PTR _this$[ebp]
	add	edx, 32					; 00000020H
	push	edx
	mov	eax, DWORD PTR _this$[ebp]
	mov	ecx, DWORD PTR [eax+4]
	call	ecx
	add	esp, 24					; 00000018H
	cmp	esi, esp
	call	__RTC_CheckEsp
	cmp	eax, 1
	jne	SHORT $LN4@sendVstEve
	mov	DWORD PTR tv88[ebp], 1
	jmp	SHORT $LN5@sendVstEve
$LN4@sendVstEve:
	mov	DWORD PTR tv88[ebp], 0
$LN5@sendVstEve:
	mov	al, BYTE PTR tv88[ebp]
	jmp	SHORT $LN1@sendVstEve
$LN2@sendVstEve:

; 363  : 	return 0;

	xor	al, al
$LN1@sendVstEve:

; 364  : }

	pop	esi
	add	esp, 8
	cmp	ebp, esp
	call	__RTC_CheckEsp
	mov	esp, ebp
	pop	ebp
	ret	4
?sendVstEventsToHost@AudioEffectX@@QAE_NPAUVstEvents@@@Z ENDP ; AudioEffectX::sendVstEventsToHost
_TEXT	ENDS
; Function compile flags: /Odtp /RTCsu
; File E:\FoxSuite\vst-2.4-sdk\vstsdk2.4\public.sdk\source\vst2.x\audioeffectx.h
;	COMDAT ?processEvents@AudioEffectX@@UAEHPAUVstEvents@@@Z
_TEXT	SEGMENT
_this$ = -4						; size = 4
_events$ = 8						; size = 4
?processEvents@AudioEffectX@@UAEHPAUVstEvents@@@Z PROC	; AudioEffectX::processEvents, COMDAT
; _this$ = ecx

; 98   : 	virtual VstInt32 processEvents (VstEvents* events) { return 0; }	///< Called when new MIDI events come in

	push	ebp
	mov	ebp, esp
	push	ecx
	mov	DWORD PTR _this$[ebp], ecx
	xor	eax, eax
	mov	esp, ebp
	pop	ebp
	ret	4
?processEvents@AudioEffectX@@UAEHPAUVstEvents@@@Z ENDP	; AudioEffectX::processEvents
_TEXT	ENDS
; Function compile flags: /Odtp /RTCsu
; File E:\FoxSuite\vst-2.4-sdk\vstsdk2.4\public.sdk\source\vst2.x\audioeffectx.cpp
_TEXT	SEGMENT
_this$ = -4						; size = 4
?getAutomationState@AudioEffectX@@UAEHXZ PROC		; AudioEffectX::getAutomationState
; _this$ = ecx

; 684  : {

	push	ebp
	mov	ebp, esp
	push	ecx
	push	esi
	mov	DWORD PTR [ebp-4], -858993460		; ccccccccH
	mov	DWORD PTR _this$[ebp], ecx

; 685  : 	if (audioMaster)

	mov	eax, DWORD PTR _this$[ebp]
	cmp	DWORD PTR [eax+4], 0
	je	SHORT $LN2@getAutomat

; 686  : 		return (VstInt32)audioMaster (&cEffect, audioMasterGetAutomationState, 0, 0, 0, 0);

	mov	esi, esp
	push	ecx
	xorps	xmm0, xmm0
	movss	DWORD PTR [esp], xmm0
	push	0
	push	0
	push	0
	push	24					; 00000018H
	mov	ecx, DWORD PTR _this$[ebp]
	add	ecx, 32					; 00000020H
	push	ecx
	mov	edx, DWORD PTR _this$[ebp]
	mov	eax, DWORD PTR [edx+4]
	call	eax
	add	esp, 24					; 00000018H
	cmp	esi, esp
	call	__RTC_CheckEsp
	jmp	SHORT $LN1@getAutomat
$LN2@getAutomat:

; 687  : 	return 0;

	xor	eax, eax
$LN1@getAutomat:

; 688  : }

	pop	esi
	add	esp, 4
	cmp	ebp, esp
	call	__RTC_CheckEsp
	mov	esp, ebp
	pop	ebp
	ret	0
?getAutomationState@AudioEffectX@@UAEHXZ ENDP		; AudioEffectX::getAutomationState
_TEXT	ENDS
; Function compile flags: /Odtp /RTCsu
; File E:\FoxSuite\vst-2.4-sdk\vstsdk2.4\public.sdk\source\vst2.x\audioeffectx.cpp
_TEXT	SEGMENT
_this$ = -4						; size = 4
?getCurrentProcessLevel@AudioEffectX@@UAEHXZ PROC	; AudioEffectX::getCurrentProcessLevel
; _this$ = ecx

; 673  : {

	push	ebp
	mov	ebp, esp
	push	ecx
	push	esi
	mov	DWORD PTR [ebp-4], -858993460		; ccccccccH
	mov	DWORD PTR _this$[ebp], ecx

; 674  : 	if (audioMaster)

	mov	eax, DWORD PTR _this$[ebp]
	cmp	DWORD PTR [eax+4], 0
	je	SHORT $LN2@getCurrent

; 675  : 		return (VstInt32)audioMaster (&cEffect, audioMasterGetCurrentProcessLevel, 0, 0, 0, 0);

	mov	esi, esp
	push	ecx
	xorps	xmm0, xmm0
	movss	DWORD PTR [esp], xmm0
	push	0
	push	0
	push	0
	push	23					; 00000017H
	mov	ecx, DWORD PTR _this$[ebp]
	add	ecx, 32					; 00000020H
	push	ecx
	mov	edx, DWORD PTR _this$[ebp]
	mov	eax, DWORD PTR [edx+4]
	call	eax
	add	esp, 24					; 00000018H
	cmp	esi, esp
	call	__RTC_CheckEsp
	jmp	SHORT $LN1@getCurrent
$LN2@getCurrent:

; 676  : 	return 0;

	xor	eax, eax
$LN1@getCurrent:

; 677  : }

	pop	esi
	add	esp, 4
	cmp	ebp, esp
	call	__RTC_CheckEsp
	mov	esp, ebp
	pop	ebp
	ret	0
?getCurrentProcessLevel@AudioEffectX@@UAEHXZ ENDP	; AudioEffectX::getCurrentProcessLevel
_TEXT	ENDS
; Function compile flags: /Odtp /RTCsu
; File E:\FoxSuite\vst-2.4-sdk\vstsdk2.4\public.sdk\source\vst2.x\audioeffectx.cpp
_TEXT	SEGMENT
_ret$1 = -12						; size = 4
_this$ = -4						; size = 4
_filter$ = 8						; size = 4
?getTimeInfo@AudioEffectX@@UAEPAUVstTimeInfo@@H@Z PROC	; AudioEffectX::getTimeInfo
; _this$ = ecx

; 335  : {

	push	ebp
	mov	ebp, esp
	sub	esp, 16					; 00000010H
	push	esi
	mov	eax, -858993460				; ccccccccH
	mov	DWORD PTR [ebp-16], eax
	mov	DWORD PTR [ebp-12], eax
	mov	DWORD PTR [ebp-8], eax
	mov	DWORD PTR [ebp-4], eax
	mov	DWORD PTR _this$[ebp], ecx

; 336  : 	if (audioMaster)

	mov	eax, DWORD PTR _this$[ebp]
	cmp	DWORD PTR [eax+4], 0
	je	SHORT $LN2@getTimeInf

; 337  : 	{
; 338  : 		VstIntPtr ret = audioMaster (&cEffect, audioMasterGetTime, 0, filter, 0, 0);

	mov	esi, esp
	push	ecx
	xorps	xmm0, xmm0
	movss	DWORD PTR [esp], xmm0
	push	0
	mov	ecx, DWORD PTR _filter$[ebp]
	push	ecx
	push	0
	push	7
	mov	edx, DWORD PTR _this$[ebp]
	add	edx, 32					; 00000020H
	push	edx
	mov	eax, DWORD PTR _this$[ebp]
	mov	ecx, DWORD PTR [eax+4]
	call	ecx
	add	esp, 24					; 00000018H
	cmp	esi, esp
	call	__RTC_CheckEsp
	mov	DWORD PTR _ret$1[ebp], eax

; 339  : 		return FromVstPtr<VstTimeInfo> (ret);

	lea	edx, DWORD PTR _ret$1[ebp]
	push	edx
	call	??$FromVstPtr@UVstTimeInfo@@@@YAPAUVstTimeInfo@@AAH@Z ; FromVstPtr<VstTimeInfo>
	add	esp, 4
	jmp	SHORT $LN1@getTimeInf
$LN2@getTimeInf:

; 340  : 	}
; 341  : 	return 0;

	xor	eax, eax
$LN1@getTimeInf:

; 342  : }

	push	edx
	mov	ecx, ebp
	push	eax
	lea	edx, DWORD PTR $LN6@getTimeInf
	call	@_RTC_CheckStackVars@8
	pop	eax
	pop	edx
	pop	esi
	add	esp, 16					; 00000010H
	cmp	ebp, esp
	call	__RTC_CheckEsp
	mov	esp, ebp
	pop	ebp
	ret	4
	npad	1
$LN6@getTimeInf:
	DD	1
	DD	$LN5@getTimeInf
$LN5@getTimeInf:
	DD	-12					; fffffff4H
	DD	4
	DD	$LN4@getTimeInf
$LN4@getTimeInf:
	DB	114					; 00000072H
	DB	101					; 00000065H
	DB	116					; 00000074H
	DB	0
?getTimeInfo@AudioEffectX@@UAEPAUVstTimeInfo@@H@Z ENDP	; AudioEffectX::getTimeInfo
_TEXT	ENDS
; Function compile flags: /Odtp /RTCsu
; File E:\FoxSuite\vst-2.4-sdk\vstsdk2.4\public.sdk\source\vst2.x\audioeffectx.h
;	COMDAT ?getNumMidiOutputChannels@AudioEffectX@@UAEHXZ
_TEXT	SEGMENT
_this$ = -4						; size = 4
?getNumMidiOutputChannels@AudioEffectX@@UAEHXZ PROC	; AudioEffectX::getNumMidiOutputChannels, COMDAT
; _this$ = ecx

; 86   : 	virtual VstInt32 getNumMidiOutputChannels () { return 0; }				///< Returns number of MIDI output channels used [0, 16]

	push	ebp
	mov	ebp, esp
	push	ecx
	mov	DWORD PTR _this$[ebp], ecx
	xor	eax, eax
	mov	esp, ebp
	pop	ebp
	ret	0
?getNumMidiOutputChannels@AudioEffectX@@UAEHXZ ENDP	; AudioEffectX::getNumMidiOutputChannels
_TEXT	ENDS
; Function compile flags: /Odtp /RTCsu
; File E:\FoxSuite\vst-2.4-sdk\vstsdk2.4\public.sdk\source\vst2.x\audioeffectx.h
;	COMDAT ?getNumMidiInputChannels@AudioEffectX@@UAEHXZ
_TEXT	SEGMENT
_this$ = -4						; size = 4
?getNumMidiInputChannels@AudioEffectX@@UAEHXZ PROC	; AudioEffectX::getNumMidiInputChannels, COMDAT
; _this$ = ecx

; 85   : 	virtual VstInt32 getNumMidiInputChannels ()  { return 0; }				///< Returns number of MIDI input channels used [0, 16]

	push	ebp
	mov	ebp, esp
	push	ecx
	mov	DWORD PTR _this$[ebp], ecx
	xor	eax, eax
	mov	esp, ebp
	pop	ebp
	ret	0
?getNumMidiInputChannels@AudioEffectX@@UAEHXZ ENDP	; AudioEffectX::getNumMidiInputChannels
_TEXT	ENDS
; Function compile flags: /Odtp /RTCsu
; File E:\FoxSuite\vst-2.4-sdk\vstsdk2.4\public.sdk\source\vst2.x\audioeffectx.h
;	COMDAT ?setProcessPrecision@AudioEffectX@@UAE_NH@Z
_TEXT	SEGMENT
_this$ = -4						; size = 4
_precision$ = 8						; size = 4
?setProcessPrecision@AudioEffectX@@UAE_NH@Z PROC	; AudioEffectX::setProcessPrecision, COMDAT
; _this$ = ecx

; 83   : 	virtual bool setProcessPrecision (VstInt32 precision) { return false; }	///< Set floating-point precision used for processing (32 or 64 bit)

	push	ebp
	mov	ebp, esp
	push	ecx
	mov	DWORD PTR _this$[ebp], ecx
	xor	al, al
	mov	esp, ebp
	pop	ebp
	ret	4
?setProcessPrecision@AudioEffectX@@UAE_NH@Z ENDP	; AudioEffectX::setProcessPrecision
_TEXT	ENDS
; Function compile flags: /Odtp /RTCsu
; File E:\FoxSuite\vst-2.4-sdk\vstsdk2.4\public.sdk\source\vst2.x\audioeffectx.h
;	COMDAT ?setPanLaw@AudioEffectX@@UAE_NHM@Z
_TEXT	SEGMENT
_this$ = -4						; size = 4
_type$ = 8						; size = 4
_val$ = 12						; size = 4
?setPanLaw@AudioEffectX@@UAE_NHM@Z PROC			; AudioEffectX::setPanLaw, COMDAT
; _this$ = ecx

; 79   : 	virtual bool setPanLaw (VstInt32 type, float val) { return false; }	///< Set the Panning Law used by the Host @see VstPanLawType.

	push	ebp
	mov	ebp, esp
	push	ecx
	mov	DWORD PTR _this$[ebp], ecx
	xor	al, al
	mov	esp, ebp
	pop	ebp
	ret	8
?setPanLaw@AudioEffectX@@UAE_NHM@Z ENDP			; AudioEffectX::setPanLaw
_TEXT	ENDS
; Function compile flags: /Odtp /RTCsu
; File E:\FoxSuite\vst-2.4-sdk\vstsdk2.4\public.sdk\source\vst2.x\audioeffectx.h
;	COMDAT ?setBypass@AudioEffectX@@UAE_N_N@Z
_TEXT	SEGMENT
_this$ = -4						; size = 4
_onOff$ = 8						; size = 1
?setBypass@AudioEffectX@@UAE_N_N@Z PROC			; AudioEffectX::setBypass, COMDAT
; _this$ = ecx

; 76   : 	virtual bool setBypass (bool onOff) { return false; }				///< For 'soft-bypass' (this could be automated (in Audio Thread) that why you could NOT call iochanged (if needed) in this function, do it in fxidle).

	push	ebp
	mov	ebp, esp
	push	ecx
	mov	DWORD PTR _this$[ebp], ecx
	xor	al, al
	mov	esp, ebp
	pop	ebp
	ret	4
?setBypass@AudioEffectX@@UAE_N_N@Z ENDP			; AudioEffectX::setBypass
_TEXT	ENDS
; Function compile flags: /Odtp /RTCsu
; File E:\FoxSuite\vst-2.4-sdk\vstsdk2.4\public.sdk\source\vst2.x\audioeffectx.h
;	COMDAT ?getSpeakerArrangement@AudioEffectX@@UAE_NPAPAUVstSpeakerArrangement@@0@Z
_TEXT	SEGMENT
_this$ = -4						; size = 4
_pluginInput$ = 8					; size = 4
_pluginOutput$ = 12					; size = 4
?getSpeakerArrangement@AudioEffectX@@UAE_NPAPAUVstSpeakerArrangement@@0@Z PROC ; AudioEffectX::getSpeakerArrangement, COMDAT
; _this$ = ecx

; 75   : 	virtual bool getSpeakerArrangement (VstSpeakerArrangement** pluginInput, VstSpeakerArrangement** pluginOutput) { *pluginInput = 0; *pluginOutput = 0; return false; } ///< Return the plug-in's speaker arrangements

	push	ebp
	mov	ebp, esp
	push	ecx
	mov	DWORD PTR _this$[ebp], ecx
	mov	eax, DWORD PTR _pluginInput$[ebp]
	mov	DWORD PTR [eax], 0
	mov	ecx, DWORD PTR _pluginOutput$[ebp]
	mov	DWORD PTR [ecx], 0
	xor	al, al
	mov	esp, ebp
	pop	ebp
	ret	8
?getSpeakerArrangement@AudioEffectX@@UAE_NPAPAUVstSpeakerArrangement@@0@Z ENDP ; AudioEffectX::getSpeakerArrangement
_TEXT	ENDS
; Function compile flags: /Odtp /RTCsu
; File E:\FoxSuite\vst-2.4-sdk\vstsdk2.4\public.sdk\source\vst2.x\audioeffectx.h
;	COMDAT ?setSpeakerArrangement@AudioEffectX@@UAE_NPAUVstSpeakerArrangement@@0@Z
_TEXT	SEGMENT
_this$ = -4						; size = 4
_pluginInput$ = 8					; size = 4
_pluginOutput$ = 12					; size = 4
?setSpeakerArrangement@AudioEffectX@@UAE_NPAUVstSpeakerArrangement@@0@Z PROC ; AudioEffectX::setSpeakerArrangement, COMDAT
; _this$ = ecx

; 74   : 	virtual bool setSpeakerArrangement (VstSpeakerArrangement* pluginInput, VstSpeakerArrangement* pluginOutput) { return false; } ///< Set the plug-in's speaker arrangements

	push	ebp
	mov	ebp, esp
	push	ecx
	mov	DWORD PTR _this$[ebp], ecx
	xor	al, al
	mov	esp, ebp
	pop	ebp
	ret	8
?setSpeakerArrangement@AudioEffectX@@UAE_NPAUVstSpeakerArrangement@@0@Z ENDP ; AudioEffectX::setSpeakerArrangement
_TEXT	ENDS
; Function compile flags: /Odtp /RTCsu
; File E:\FoxSuite\vst-2.4-sdk\vstsdk2.4\public.sdk\source\vst2.x\audioeffectx.h
;	COMDAT ?getOutputProperties@AudioEffectX@@UAE_NHPAUVstPinProperties@@@Z
_TEXT	SEGMENT
_this$ = -4						; size = 4
_index$ = 8						; size = 4
_properties$ = 12					; size = 4
?getOutputProperties@AudioEffectX@@UAE_NHPAUVstPinProperties@@@Z PROC ; AudioEffectX::getOutputProperties, COMDAT
; _this$ = ecx

; 72   : 	virtual bool getOutputProperties (VstInt32 index, VstPinProperties* properties) { return false; }///< Return the \e properties of input \e index

	push	ebp
	mov	ebp, esp
	push	ecx
	mov	DWORD PTR _this$[ebp], ecx
	xor	al, al
	mov	esp, ebp
	pop	ebp
	ret	8
?getOutputProperties@AudioEffectX@@UAE_NHPAUVstPinProperties@@@Z ENDP ; AudioEffectX::getOutputProperties
_TEXT	ENDS
; Function compile flags: /Odtp /RTCsu
; File E:\FoxSuite\vst-2.4-sdk\vstsdk2.4\public.sdk\source\vst2.x\audioeffectx.h
;	COMDAT ?getInputProperties@AudioEffectX@@UAE_NHPAUVstPinProperties@@@Z
_TEXT	SEGMENT
_this$ = -4						; size = 4
_index$ = 8						; size = 4
_properties$ = 12					; size = 4
?getInputProperties@AudioEffectX@@UAE_NHPAUVstPinProperties@@@Z PROC ; AudioEffectX::getInputProperties, COMDAT
; _this$ = ecx

; 71   : 	virtual bool getInputProperties (VstInt32 index, VstPinProperties* properties) { return false; } ///< Return the \e properties of output \e index

	push	ebp
	mov	ebp, esp
	push	ecx
	mov	DWORD PTR _this$[ebp], ecx
	xor	al, al
	mov	esp, ebp
	pop	ebp
	ret	8
?getInputProperties@AudioEffectX@@UAE_NHPAUVstPinProperties@@@Z ENDP ; AudioEffectX::getInputProperties
_TEXT	ENDS
; Function compile flags: /Odtp /RTCsu
; File E:\FoxSuite\vst-2.4-sdk\vstsdk2.4\public.sdk\source\vst2.x\audioeffectx.cpp
_TEXT	SEGMENT
_this$ = -4						; size = 4
?getOutputLatency@AudioEffectX@@UAEHXZ PROC		; AudioEffectX::getOutputLatency
; _this$ = ecx

; 528  : {

	push	ebp
	mov	ebp, esp
	push	ecx
	push	esi
	mov	DWORD PTR [ebp-4], -858993460		; ccccccccH
	mov	DWORD PTR _this$[ebp], ecx

; 529  : 	if (audioMaster)

	mov	eax, DWORD PTR _this$[ebp]
	cmp	DWORD PTR [eax+4], 0
	je	SHORT $LN2@getOutputL

; 530  : 		return (VstInt32)audioMaster (&cEffect, audioMasterGetOutputLatency, 0, 0, 0, 0);

	mov	esi, esp
	push	ecx
	xorps	xmm0, xmm0
	movss	DWORD PTR [esp], xmm0
	push	0
	push	0
	push	0
	push	19					; 00000013H
	mov	ecx, DWORD PTR _this$[ebp]
	add	ecx, 32					; 00000020H
	push	ecx
	mov	edx, DWORD PTR _this$[ebp]
	mov	eax, DWORD PTR [edx+4]
	call	eax
	add	esp, 24					; 00000018H
	cmp	esi, esp
	call	__RTC_CheckEsp
	jmp	SHORT $LN1@getOutputL
$LN2@getOutputL:

; 531  : 	return 0;

	xor	eax, eax
$LN1@getOutputL:

; 532  : }

	pop	esi
	add	esp, 4
	cmp	ebp, esp
	call	__RTC_CheckEsp
	mov	esp, ebp
	pop	ebp
	ret	0
?getOutputLatency@AudioEffectX@@UAEHXZ ENDP		; AudioEffectX::getOutputLatency
_TEXT	ENDS
; Function compile flags: /Odtp /RTCsu
; File E:\FoxSuite\vst-2.4-sdk\vstsdk2.4\public.sdk\source\vst2.x\audioeffectx.cpp
_TEXT	SEGMENT
_this$ = -4						; size = 4
?getInputLatency@AudioEffectX@@UAEHXZ PROC		; AudioEffectX::getInputLatency
; _this$ = ecx

; 512  : {

	push	ebp
	mov	ebp, esp
	push	ecx
	push	esi
	mov	DWORD PTR [ebp-4], -858993460		; ccccccccH
	mov	DWORD PTR _this$[ebp], ecx

; 513  : 	if (audioMaster)

	mov	eax, DWORD PTR _this$[ebp]
	cmp	DWORD PTR [eax+4], 0
	je	SHORT $LN2@getInputLa

; 514  : 		return (VstInt32)audioMaster (&cEffect, audioMasterGetInputLatency, 0, 0, 0, 0);

	mov	esi, esp
	push	ecx
	xorps	xmm0, xmm0
	movss	DWORD PTR [esp], xmm0
	push	0
	push	0
	push	0
	push	18					; 00000012H
	mov	ecx, DWORD PTR _this$[ebp]
	add	ecx, 32					; 00000020H
	push	ecx
	mov	edx, DWORD PTR _this$[ebp]
	mov	eax, DWORD PTR [edx+4]
	call	eax
	add	esp, 24					; 00000018H
	cmp	esi, esp
	call	__RTC_CheckEsp
	jmp	SHORT $LN1@getInputLa
$LN2@getInputLa:

; 515  : 	return 0;

	xor	eax, eax
$LN1@getInputLa:

; 516  : }

	pop	esi
	add	esp, 4
	cmp	ebp, esp
	call	__RTC_CheckEsp
	mov	esp, ebp
	pop	ebp
	ret	0
?getInputLatency@AudioEffectX@@UAEHXZ ENDP		; AudioEffectX::getInputLatency
_TEXT	ENDS
; Function compile flags: /Odtp /RTCsu
; File E:\FoxSuite\vst-2.4-sdk\vstsdk2.4\public.sdk\source\vst2.x\audioeffectx.cpp
_TEXT	SEGMENT
_res$1 = -8						; size = 4
_this$ = -4						; size = 4
?updateBlockSize@AudioEffectX@@UAEHXZ PROC		; AudioEffectX::updateBlockSize
; _this$ = ecx

; 496  : {

	push	ebp
	mov	ebp, esp
	sub	esp, 8
	push	esi
	mov	DWORD PTR [ebp-8], -858993460		; ccccccccH
	mov	DWORD PTR [ebp-4], -858993460		; ccccccccH
	mov	DWORD PTR _this$[ebp], ecx

; 497  : 	if (audioMaster)

	mov	eax, DWORD PTR _this$[ebp]
	cmp	DWORD PTR [eax+4], 0
	je	SHORT $LN3@updateBloc

; 498  : 	{
; 499  : 		VstInt32 res = (VstInt32)audioMaster (&cEffect, audioMasterGetBlockSize, 0, 0, 0, 0);

	mov	esi, esp
	push	ecx
	xorps	xmm0, xmm0
	movss	DWORD PTR [esp], xmm0
	push	0
	push	0
	push	0
	push	17					; 00000011H
	mov	ecx, DWORD PTR _this$[ebp]
	add	ecx, 32					; 00000020H
	push	ecx
	mov	edx, DWORD PTR _this$[ebp]
	mov	eax, DWORD PTR [edx+4]
	call	eax
	add	esp, 24					; 00000018H
	cmp	esi, esp
	call	__RTC_CheckEsp
	mov	DWORD PTR _res$1[ebp], eax

; 500  : 		if (res > 0)

	cmp	DWORD PTR _res$1[ebp], 0
	jle	SHORT $LN3@updateBloc

; 501  : 			blockSize = res;

	mov	ecx, DWORD PTR _this$[ebp]
	mov	edx, DWORD PTR _res$1[ebp]
	mov	DWORD PTR [ecx+16], edx
$LN3@updateBloc:

; 502  : 	}
; 503  : 	return blockSize;

	mov	eax, DWORD PTR _this$[ebp]
	mov	eax, DWORD PTR [eax+16]

; 504  : }

	pop	esi
	add	esp, 8
	cmp	ebp, esp
	call	__RTC_CheckEsp
	mov	esp, ebp
	pop	ebp
	ret	0
?updateBlockSize@AudioEffectX@@UAEHXZ ENDP		; AudioEffectX::updateBlockSize
_TEXT	ENDS
; Function compile flags: /Odtp /RTCsu
; File E:\FoxSuite\vst-2.4-sdk\vstsdk2.4\public.sdk\source\vst2.x\audioeffectx.cpp
_TEXT	SEGMENT
_res$1 = -8						; size = 4
_this$ = -4						; size = 4
?updateSampleRate@AudioEffectX@@UAENXZ PROC		; AudioEffectX::updateSampleRate
; _this$ = ecx

; 479  : {

	push	ebp
	mov	ebp, esp
	sub	esp, 8
	push	esi
	mov	DWORD PTR [ebp-8], -858993460		; ccccccccH
	mov	DWORD PTR [ebp-4], -858993460		; ccccccccH
	mov	DWORD PTR _this$[ebp], ecx

; 480  : 	if (audioMaster)

	mov	eax, DWORD PTR _this$[ebp]
	cmp	DWORD PTR [eax+4], 0
	je	SHORT $LN3@updateSamp

; 481  : 	{
; 482  : 		VstIntPtr res = audioMaster (&cEffect, audioMasterGetSampleRate, 0, 0, 0, 0);

	mov	esi, esp
	push	ecx
	xorps	xmm0, xmm0
	movss	DWORD PTR [esp], xmm0
	push	0
	push	0
	push	0
	push	16					; 00000010H
	mov	ecx, DWORD PTR _this$[ebp]
	add	ecx, 32					; 00000020H
	push	ecx
	mov	edx, DWORD PTR _this$[ebp]
	mov	eax, DWORD PTR [edx+4]
	call	eax
	add	esp, 24					; 00000018H
	cmp	esi, esp
	call	__RTC_CheckEsp
	mov	DWORD PTR _res$1[ebp], eax

; 483  : 		if (res > 0)

	cmp	DWORD PTR _res$1[ebp], 0
	jle	SHORT $LN3@updateSamp

; 484  : 			sampleRate = (float)res;

	cvtsi2ss xmm0, DWORD PTR _res$1[ebp]
	mov	ecx, DWORD PTR _this$[ebp]
	movss	DWORD PTR [ecx+12], xmm0
$LN3@updateSamp:

; 485  : 	}
; 486  : 	return sampleRate;

	mov	edx, DWORD PTR _this$[ebp]
	fld	DWORD PTR [edx+12]

; 487  : }

	pop	esi
	add	esp, 8
	cmp	ebp, esp
	call	__RTC_CheckEsp
	mov	esp, ebp
	pop	ebp
	ret	0
?updateSampleRate@AudioEffectX@@UAENXZ ENDP		; AudioEffectX::updateSampleRate
_TEXT	ENDS
; Function compile flags: /Odtp /RTCsu
; File E:\FoxSuite\vst-2.4-sdk\vstsdk2.4\public.sdk\source\vst2.x\audioeffectx.cpp
_TEXT	SEGMENT
tv88 = -8						; size = 4
_this$ = -4						; size = 4
?ioChanged@AudioEffectX@@UAE_NXZ PROC			; AudioEffectX::ioChanged
; _this$ = ecx

; 447  : {

	push	ebp
	mov	ebp, esp
	sub	esp, 8
	push	esi
	mov	DWORD PTR [ebp-8], -858993460		; ccccccccH
	mov	DWORD PTR [ebp-4], -858993460		; ccccccccH
	mov	DWORD PTR _this$[ebp], ecx

; 448  : 	if (audioMaster)

	mov	eax, DWORD PTR _this$[ebp]
	cmp	DWORD PTR [eax+4], 0
	je	SHORT $LN2@ioChanged

; 449  : 		return (audioMaster (&cEffect, audioMasterIOChanged, 0, 0, 0, 0) != 0);

	mov	esi, esp
	push	ecx
	xorps	xmm0, xmm0
	movss	DWORD PTR [esp], xmm0
	push	0
	push	0
	push	0
	push	13					; 0000000dH
	mov	ecx, DWORD PTR _this$[ebp]
	add	ecx, 32					; 00000020H
	push	ecx
	mov	edx, DWORD PTR _this$[ebp]
	mov	eax, DWORD PTR [edx+4]
	call	eax
	add	esp, 24					; 00000018H
	cmp	esi, esp
	call	__RTC_CheckEsp
	test	eax, eax
	je	SHORT $LN4@ioChanged
	mov	DWORD PTR tv88[ebp], 1
	jmp	SHORT $LN5@ioChanged
$LN4@ioChanged:
	mov	DWORD PTR tv88[ebp], 0
$LN5@ioChanged:
	mov	al, BYTE PTR tv88[ebp]
	jmp	SHORT $LN1@ioChanged
$LN2@ioChanged:

; 450  : 	return false;

	xor	al, al
$LN1@ioChanged:

; 451  : }

	pop	esi
	add	esp, 8
	cmp	ebp, esp
	call	__RTC_CheckEsp
	mov	esp, ebp
	pop	ebp
	ret	0
?ioChanged@AudioEffectX@@UAE_NXZ ENDP			; AudioEffectX::ioChanged
_TEXT	ENDS
; Function compile flags: /Odtp /RTCsu
; File E:\FoxSuite\vst-2.4-sdk\vstsdk2.4\public.sdk\source\vst2.x\audioeffectx.h
;	COMDAT ?beginLoadProgram@AudioEffectX@@UAEHPAUVstPatchChunkInfo@@@Z
_TEXT	SEGMENT
_this$ = -4						; size = 4
_ptr$ = 8						; size = 4
?beginLoadProgram@AudioEffectX@@UAEHPAUVstPatchChunkInfo@@@Z PROC ; AudioEffectX::beginLoadProgram, COMDAT
; _this$ = ecx

; 56   : 	virtual VstInt32 beginLoadProgram (VstPatchChunkInfo* ptr) { return 0; }	///< Called before a Program is loaded. (called before #beginSetProgram).

	push	ebp
	mov	ebp, esp
	push	ecx
	mov	DWORD PTR _this$[ebp], ecx
	xor	eax, eax
	mov	esp, ebp
	pop	ebp
	ret	4
?beginLoadProgram@AudioEffectX@@UAEHPAUVstPatchChunkInfo@@@Z ENDP ; AudioEffectX::beginLoadProgram
_TEXT	ENDS
; Function compile flags: /Odtp /RTCsu
; File E:\FoxSuite\vst-2.4-sdk\vstsdk2.4\public.sdk\source\vst2.x\audioeffectx.h
;	COMDAT ?beginLoadBank@AudioEffectX@@UAEHPAUVstPatchChunkInfo@@@Z
_TEXT	SEGMENT
_this$ = -4						; size = 4
_ptr$ = 8						; size = 4
?beginLoadBank@AudioEffectX@@UAEHPAUVstPatchChunkInfo@@@Z PROC ; AudioEffectX::beginLoadBank, COMDAT
; _this$ = ecx

; 55   : 	virtual VstInt32 beginLoadBank (VstPatchChunkInfo* ptr) { return 0; }		///< Called before a Bank is loaded.

	push	ebp
	mov	ebp, esp
	push	ecx
	mov	DWORD PTR _this$[ebp], ecx
	xor	eax, eax
	mov	esp, ebp
	pop	ebp
	ret	4
?beginLoadBank@AudioEffectX@@UAEHPAUVstPatchChunkInfo@@@Z ENDP ; AudioEffectX::beginLoadBank
_TEXT	ENDS
; Function compile flags: /Odtp /RTCsu
; File E:\FoxSuite\vst-2.4-sdk\vstsdk2.4\public.sdk\source\vst2.x\audioeffectx.h
;	COMDAT ?endSetProgram@AudioEffectX@@UAE_NXZ
_TEXT	SEGMENT
_this$ = -4						; size = 4
?endSetProgram@AudioEffectX@@UAE_NXZ PROC		; AudioEffectX::endSetProgram, COMDAT
; _this$ = ecx

; 51   : 	virtual bool endSetProgram () { return false; }		///< Called after a program was loaded

	push	ebp
	mov	ebp, esp
	push	ecx
	mov	DWORD PTR _this$[ebp], ecx
	xor	al, al
	mov	esp, ebp
	pop	ebp
	ret	0
?endSetProgram@AudioEffectX@@UAE_NXZ ENDP		; AudioEffectX::endSetProgram
_TEXT	ENDS
; Function compile flags: /Odtp /RTCsu
; File E:\FoxSuite\vst-2.4-sdk\vstsdk2.4\public.sdk\source\vst2.x\audioeffectx.h
;	COMDAT ?beginSetProgram@AudioEffectX@@UAE_NXZ
_TEXT	SEGMENT
_this$ = -4						; size = 4
?beginSetProgram@AudioEffectX@@UAE_NXZ PROC		; AudioEffectX::beginSetProgram, COMDAT
; _this$ = ecx

; 50   : 	virtual bool beginSetProgram () { return false; }	///< Called before a program is loaded

	push	ebp
	mov	ebp, esp
	push	ecx
	mov	DWORD PTR _this$[ebp], ecx
	xor	al, al
	mov	esp, ebp
	pop	ebp
	ret	0
?beginSetProgram@AudioEffectX@@UAE_NXZ ENDP		; AudioEffectX::beginSetProgram
_TEXT	ENDS
; Function compile flags: /Odtp /RTCsu
; File E:\FoxSuite\vst-2.4-sdk\vstsdk2.4\public.sdk\source\vst2.x\audioeffectx.h
;	COMDAT ?getProgramNameIndexed@AudioEffectX@@UAE_NHHPAD@Z
_TEXT	SEGMENT
_this$ = -4						; size = 4
_category$ = 8						; size = 4
_index$ = 12						; size = 4
_text$ = 16						; size = 4
?getProgramNameIndexed@AudioEffectX@@UAE_NHHPAD@Z PROC	; AudioEffectX::getProgramNameIndexed, COMDAT
; _this$ = ecx

; 47   : 	virtual bool getProgramNameIndexed (VstInt32 category, VstInt32 index, char* text) { return false; } ///< Fill \e text with name of program \e index (\e category deprecated in VST 2.4)

	push	ebp
	mov	ebp, esp
	push	ecx
	mov	DWORD PTR _this$[ebp], ecx
	xor	al, al
	mov	esp, ebp
	pop	ebp
	ret	12					; 0000000cH
?getProgramNameIndexed@AudioEffectX@@UAE_NHHPAD@Z ENDP	; AudioEffectX::getProgramNameIndexed
_TEXT	ENDS
; Function compile flags: /Odtp /RTCsu
; File E:\FoxSuite\vst-2.4-sdk\vstsdk2.4\public.sdk\source\vst2.x\audioeffectx.cpp
_TEXT	SEGMENT
tv88 = -5						; size = 1
_this$ = -4						; size = 4
_index$ = 8						; size = 4
?endEdit@AudioEffectX@@UAE_NH@Z PROC			; AudioEffectX::endEdit
; _this$ = ecx

; 1235 : {

	push	ebp
	mov	ebp, esp
	sub	esp, 8
	push	esi
	mov	DWORD PTR [ebp-8], -858993460		; ccccccccH
	mov	DWORD PTR [ebp-4], -858993460		; ccccccccH
	mov	DWORD PTR _this$[ebp], ecx

; 1236 : 	if (audioMaster)

	mov	eax, DWORD PTR _this$[ebp]
	cmp	DWORD PTR [eax+4], 0
	je	SHORT $LN2@endEdit

; 1237 : 		return (audioMaster (&cEffect, audioMasterEndEdit, index, 0, 0, 0)) ? true : false;

	mov	esi, esp
	push	ecx
	xorps	xmm0, xmm0
	movss	DWORD PTR [esp], xmm0
	push	0
	push	0
	mov	ecx, DWORD PTR _index$[ebp]
	push	ecx
	push	44					; 0000002cH
	mov	edx, DWORD PTR _this$[ebp]
	add	edx, 32					; 00000020H
	push	edx
	mov	eax, DWORD PTR _this$[ebp]
	mov	ecx, DWORD PTR [eax+4]
	call	ecx
	add	esp, 24					; 00000018H
	cmp	esi, esp
	call	__RTC_CheckEsp
	test	eax, eax
	je	SHORT $LN4@endEdit
	mov	BYTE PTR tv88[ebp], 1
	jmp	SHORT $LN5@endEdit
$LN4@endEdit:
	mov	BYTE PTR tv88[ebp], 0
$LN5@endEdit:
	mov	al, BYTE PTR tv88[ebp]
	jmp	SHORT $LN1@endEdit
$LN2@endEdit:

; 1238 : 	return 0;

	xor	al, al
$LN1@endEdit:

; 1239 : }

	pop	esi
	add	esp, 8
	cmp	ebp, esp
	call	__RTC_CheckEsp
	mov	esp, ebp
	pop	ebp
	ret	4
?endEdit@AudioEffectX@@UAE_NH@Z ENDP			; AudioEffectX::endEdit
_TEXT	ENDS
; Function compile flags: /Odtp /RTCsu
; File E:\FoxSuite\vst-2.4-sdk\vstsdk2.4\public.sdk\source\vst2.x\audioeffectx.cpp
_TEXT	SEGMENT
tv88 = -5						; size = 1
_this$ = -4						; size = 4
_index$ = 8						; size = 4
?beginEdit@AudioEffectX@@UAE_NH@Z PROC			; AudioEffectX::beginEdit
; _this$ = ecx

; 1219 : {

	push	ebp
	mov	ebp, esp
	sub	esp, 8
	push	esi
	mov	DWORD PTR [ebp-8], -858993460		; ccccccccH
	mov	DWORD PTR [ebp-4], -858993460		; ccccccccH
	mov	DWORD PTR _this$[ebp], ecx

; 1220 : 	if (audioMaster)

	mov	eax, DWORD PTR _this$[ebp]
	cmp	DWORD PTR [eax+4], 0
	je	SHORT $LN2@beginEdit

; 1221 : 		return (audioMaster (&cEffect, audioMasterBeginEdit, index, 0, 0, 0)) ? true : false;

	mov	esi, esp
	push	ecx
	xorps	xmm0, xmm0
	movss	DWORD PTR [esp], xmm0
	push	0
	push	0
	mov	ecx, DWORD PTR _index$[ebp]
	push	ecx
	push	43					; 0000002bH
	mov	edx, DWORD PTR _this$[ebp]
	add	edx, 32					; 00000020H
	push	edx
	mov	eax, DWORD PTR _this$[ebp]
	mov	ecx, DWORD PTR [eax+4]
	call	ecx
	add	esp, 24					; 00000018H
	cmp	esi, esp
	call	__RTC_CheckEsp
	test	eax, eax
	je	SHORT $LN4@beginEdit
	mov	BYTE PTR tv88[ebp], 1
	jmp	SHORT $LN5@beginEdit
$LN4@beginEdit:
	mov	BYTE PTR tv88[ebp], 0
$LN5@beginEdit:
	mov	al, BYTE PTR tv88[ebp]
	jmp	SHORT $LN1@beginEdit
$LN2@beginEdit:

; 1222 : 	return 0;

	xor	al, al
$LN1@beginEdit:

; 1223 : }

	pop	esi
	add	esp, 8
	cmp	ebp, esp
	call	__RTC_CheckEsp
	mov	esp, ebp
	pop	ebp
	ret	4
?beginEdit@AudioEffectX@@UAE_NH@Z ENDP			; AudioEffectX::beginEdit
_TEXT	ENDS
; Function compile flags: /Odtp /RTCsu
; File E:\FoxSuite\vst-2.4-sdk\vstsdk2.4\public.sdk\source\vst2.x\audioeffectx.h
;	COMDAT ?getParameterProperties@AudioEffectX@@UAE_NHPAUVstParameterProperties@@@Z
_TEXT	SEGMENT
_this$ = -4						; size = 4
_index$ = 8						; size = 4
_p$ = 12						; size = 4
?getParameterProperties@AudioEffectX@@UAE_NHPAUVstParameterProperties@@@Z PROC ; AudioEffectX::getParameterProperties, COMDAT
; _this$ = ecx

; 35   : 	virtual bool getParameterProperties (VstInt32 index, VstParameterProperties* p) { return false; } ///< Return parameter properties

	push	ebp
	mov	ebp, esp
	push	ecx
	mov	DWORD PTR _this$[ebp], ecx
	xor	al, al
	mov	esp, ebp
	pop	ebp
	ret	8
?getParameterProperties@AudioEffectX@@UAE_NHPAUVstParameterProperties@@@Z ENDP ; AudioEffectX::getParameterProperties
_TEXT	ENDS
; Function compile flags: /Odtp /RTCsu
; File E:\FoxSuite\vst-2.4-sdk\vstsdk2.4\public.sdk\source\vst2.x\audioeffectx.h
;	COMDAT ?string2parameter@AudioEffectX@@UAE_NHPAD@Z
_TEXT	SEGMENT
_this$ = -4						; size = 4
_index$ = 8						; size = 4
_text$ = 12						; size = 4
?string2parameter@AudioEffectX@@UAE_NHPAD@Z PROC	; AudioEffectX::string2parameter, COMDAT
; _this$ = ecx

; 34   : 	virtual bool string2parameter (VstInt32 index, char* text) { return false; }	///< Convert a string representation to a parameter value

	push	ebp
	mov	ebp, esp
	push	ecx
	mov	DWORD PTR _this$[ebp], ecx
	xor	al, al
	mov	esp, ebp
	pop	ebp
	ret	8
?string2parameter@AudioEffectX@@UAE_NHPAD@Z ENDP	; AudioEffectX::string2parameter
_TEXT	ENDS
; Function compile flags: /Odtp /RTCsu
; File E:\FoxSuite\vst-2.4-sdk\vstsdk2.4\public.sdk\source\vst2.x\audioeffectx.h
;	COMDAT ?canParameterBeAutomated@AudioEffectX@@UAE_NH@Z
_TEXT	SEGMENT
_this$ = -4						; size = 4
_index$ = 8						; size = 4
?canParameterBeAutomated@AudioEffectX@@UAE_NH@Z PROC	; AudioEffectX::canParameterBeAutomated, COMDAT
; _this$ = ecx

; 33   : 	virtual bool canParameterBeAutomated (VstInt32 index) { return true; }			///< Indicates if a parameter can be automated

	push	ebp
	mov	ebp, esp
	push	ecx
	mov	DWORD PTR _this$[ebp], ecx
	mov	al, 1
	mov	esp, ebp
	pop	ebp
	ret	4
?canParameterBeAutomated@AudioEffectX@@UAE_NH@Z ENDP	; AudioEffectX::canParameterBeAutomated
_TEXT	ENDS
; Function compile flags: /Odtp /RTCsu
; File E:\FoxSuite\vst-2.4-sdk\vstsdk2.4\public.sdk\source\vst2.x\audioeffectx.cpp
_TEXT	SEGMENT
_this$ = -4						; size = 4
_audioMaster$ = 8					; size = 4
_numPrograms$ = 12					; size = 4
_numParams$ = 16					; size = 4
??0AudioEffectX@@QAE@P6AHPAUAEffect@@HHHPAXM@ZHH@Z PROC	; AudioEffectX::AudioEffectX
; _this$ = ecx

; 59   : {}

	push	ebp
	mov	ebp, esp
	push	ecx
	mov	DWORD PTR [ebp-4], -858993460		; ccccccccH
	mov	DWORD PTR _this$[ebp], ecx

; 58   : : AudioEffect (audioMaster, numPrograms, numParams)

	mov	eax, DWORD PTR _numParams$[ebp]
	push	eax
	mov	ecx, DWORD PTR _numPrograms$[ebp]
	push	ecx
	mov	edx, DWORD PTR _audioMaster$[ebp]
	push	edx
	mov	ecx, DWORD PTR _this$[ebp]
	call	??0AudioEffect@@QAE@P6AHPAUAEffect@@HHHPAXM@ZHH@Z ; AudioEffect::AudioEffect

; 59   : {}

	mov	eax, DWORD PTR _this$[ebp]
	mov	DWORD PTR [eax], OFFSET ??_7AudioEffectX@@6B@
	mov	eax, DWORD PTR _this$[ebp]
	add	esp, 4
	cmp	ebp, esp
	call	__RTC_CheckEsp
	mov	esp, ebp
	pop	ebp
	ret	12					; 0000000cH
??0AudioEffectX@@QAE@P6AHPAUAEffect@@HHHPAXM@ZHH@Z ENDP	; AudioEffectX::AudioEffectX
_TEXT	ENDS
; Function compile flags: /Odtp /RTCsu
; File E:\FoxSuite\vst-2.4-sdk\vstsdk2.4\public.sdk\source\vst2.x\audioeffect.h
;	COMDAT ?__getVuDeprecated@AudioEffect@@UAEMXZ
_TEXT	SEGMENT
_this$ = -4						; size = 4
?__getVuDeprecated@AudioEffect@@UAEMXZ PROC		; AudioEffect::__getVuDeprecated, COMDAT
; _this$ = ecx

; 143  : 	virtual float DECLARE_VST_DEPRECATED (getVu) () { return 0; }

	push	ebp
	mov	ebp, esp
	push	ecx
	mov	DWORD PTR _this$[ebp], ecx
	fldz
	mov	esp, ebp
	pop	ebp
	ret	0
?__getVuDeprecated@AudioEffect@@UAEMXZ ENDP		; AudioEffect::__getVuDeprecated
_TEXT	ENDS
; Function compile flags: /Odtp /RTCsu
; File E:\FoxSuite\vst-2.4-sdk\vstsdk2.4\public.sdk\source\vst2.x\audioeffect.h
;	COMDAT ?__processDeprecated@AudioEffect@@UAEXPAPAM0H@Z
_TEXT	SEGMENT
_this$ = -4						; size = 4
_inputs$ = 8						; size = 4
_outputs$ = 12						; size = 4
_sampleFrames$ = 16					; size = 4
?__processDeprecated@AudioEffect@@UAEXPAPAM0H@Z PROC	; AudioEffect::__processDeprecated, COMDAT
; _this$ = ecx

; 142  : 	virtual void DECLARE_VST_DEPRECATED (process) (float** inputs, float** outputs, VstInt32 sampleFrames) {}

	push	ebp
	mov	ebp, esp
	push	ecx
	mov	DWORD PTR _this$[ebp], ecx
	mov	esp, ebp
	pop	ebp
	ret	12					; 0000000cH
?__processDeprecated@AudioEffect@@UAEXPAPAM0H@Z ENDP	; AudioEffect::__processDeprecated
_TEXT	ENDS
; Function compile flags: /Odtp /RTCsu
; File E:\FoxSuite\vst-2.4-sdk\vstsdk2.4\public.sdk\source\vst2.x\audioeffect.h
;	COMDAT ?getBlockSize@AudioEffect@@UAEHXZ
_TEXT	SEGMENT
_this$ = -4						; size = 4
?getBlockSize@AudioEffect@@UAEHXZ PROC			; AudioEffect::getBlockSize, COMDAT
; _this$ = ecx

; 115  : 	virtual VstInt32 getBlockSize () { return blockSize; }		///< Returns the current Maximum block size

	push	ebp
	mov	ebp, esp
	push	ecx
	mov	DWORD PTR _this$[ebp], ecx
	mov	eax, DWORD PTR _this$[ebp]
	mov	eax, DWORD PTR [eax+16]
	mov	esp, ebp
	pop	ebp
	ret	0
?getBlockSize@AudioEffect@@UAEHXZ ENDP			; AudioEffect::getBlockSize
_TEXT	ENDS
; Function compile flags: /Odtp /RTCsu
; File E:\FoxSuite\vst-2.4-sdk\vstsdk2.4\public.sdk\source\vst2.x\audioeffect.h
;	COMDAT ?getSampleRate@AudioEffect@@UAEMXZ
_TEXT	SEGMENT
_this$ = -4						; size = 4
?getSampleRate@AudioEffect@@UAEMXZ PROC			; AudioEffect::getSampleRate, COMDAT
; _this$ = ecx

; 114  : 	virtual float getSampleRate ()   { return sampleRate; }		///< Returns the current sample rate

	push	ebp
	mov	ebp, esp
	push	ecx
	mov	DWORD PTR _this$[ebp], ecx
	mov	eax, DWORD PTR _this$[ebp]
	fld	DWORD PTR [eax+12]
	mov	esp, ebp
	pop	ebp
	ret	0
?getSampleRate@AudioEffect@@UAEMXZ ENDP			; AudioEffect::getSampleRate
_TEXT	ENDS
; Function compile flags: /Odtp /RTCsu
; File E:\FoxSuite\vst-2.4-sdk\vstsdk2.4\public.sdk\source\vst2.x\audioeffect.h
;	COMDAT ?getAeffect@AudioEffect@@UAEPAUAEffect@@XZ
_TEXT	SEGMENT
_this$ = -4						; size = 4
?getAeffect@AudioEffect@@UAEPAUAEffect@@XZ PROC		; AudioEffect::getAeffect, COMDAT
; _this$ = ecx

; 113  : 	virtual AEffect* getAeffect ()   { return &cEffect; }		///< Returns the #AEffect structure

	push	ebp
	mov	ebp, esp
	push	ecx
	mov	DWORD PTR _this$[ebp], ecx
	mov	eax, DWORD PTR _this$[ebp]
	add	eax, 32					; 00000020H
	mov	esp, ebp
	pop	ebp
	ret	0
?getAeffect@AudioEffect@@UAEPAUAEffect@@XZ ENDP		; AudioEffect::getAeffect
_TEXT	ENDS
; Function compile flags: /Odtp /RTCsu
; File E:\FoxSuite\vst-2.4-sdk\vstsdk2.4\public.sdk\source\vst2.x\audioeffect.h
;	COMDAT ?getEditor@AudioEffect@@UAEPAVAEffEditor@@XZ
_TEXT	SEGMENT
_this$ = -4						; size = 4
?getEditor@AudioEffect@@UAEPAVAEffEditor@@XZ PROC	; AudioEffect::getEditor, COMDAT
; _this$ = ecx

; 106  : 	virtual AEffEditor* getEditor () { return editor; }	///< Returns the attached editor

	push	ebp
	mov	ebp, esp
	push	ecx
	mov	DWORD PTR _this$[ebp], ecx
	mov	eax, DWORD PTR _this$[ebp]
	mov	eax, DWORD PTR [eax+8]
	mov	esp, ebp
	pop	ebp
	ret	0
?getEditor@AudioEffect@@UAEPAVAEffEditor@@XZ ENDP	; AudioEffect::getEditor
_TEXT	ENDS
; Function compile flags: /Odtp /RTCsu
; File E:\FoxSuite\vst-2.4-sdk\vstsdk2.4\public.sdk\source\vst2.x\audioeffect.h
;	COMDAT ?setNumOutputs@AudioEffect@@UAEXH@Z
_TEXT	SEGMENT
_this$ = -4						; size = 4
_outputs$ = 8						; size = 4
?setNumOutputs@AudioEffect@@UAEXH@Z PROC		; AudioEffect::setNumOutputs, COMDAT
; _this$ = ecx

; 89   : 	virtual void setNumOutputs (VstInt32 outputs) { cEffect.numOutputs = outputs; }	///< Set the number of outputs the plug-in will handle. For a plug-in which could change its IO configuration, this number is the maximun available ouputs.

	push	ebp
	mov	ebp, esp
	push	ecx
	mov	DWORD PTR _this$[ebp], ecx
	mov	eax, DWORD PTR _this$[ebp]
	mov	ecx, DWORD PTR _outputs$[ebp]
	mov	DWORD PTR [eax+64], ecx
	mov	esp, ebp
	pop	ebp
	ret	4
?setNumOutputs@AudioEffect@@UAEXH@Z ENDP		; AudioEffect::setNumOutputs
_TEXT	ENDS
; Function compile flags: /Odtp /RTCsu
; File E:\FoxSuite\vst-2.4-sdk\vstsdk2.4\public.sdk\source\vst2.x\audioeffect.h
;	COMDAT ?setNumInputs@AudioEffect@@UAEXH@Z
_TEXT	SEGMENT
_this$ = -4						; size = 4
_inputs$ = 8						; size = 4
?setNumInputs@AudioEffect@@UAEXH@Z PROC			; AudioEffect::setNumInputs, COMDAT
; _this$ = ecx

; 88   : 	virtual void setNumInputs (VstInt32 inputs)   { cEffect.numInputs = inputs; }	///< Set the number of inputs the plug-in will handle. For a plug-in which could change its IO configuration, this number is the maximun available inputs.

	push	ebp
	mov	ebp, esp
	push	ecx
	mov	DWORD PTR _this$[ebp], ecx
	mov	eax, DWORD PTR _this$[ebp]
	mov	ecx, DWORD PTR _inputs$[ebp]
	mov	DWORD PTR [eax+60], ecx
	mov	esp, ebp
	pop	ebp
	ret	4
?setNumInputs@AudioEffect@@UAEXH@Z ENDP			; AudioEffect::setNumInputs
_TEXT	ENDS
; Function compile flags: /Odtp /RTCsu
; File E:\FoxSuite\vst-2.4-sdk\vstsdk2.4\public.sdk\source\vst2.x\audioeffect.h
;	COMDAT ?setUniqueID@AudioEffect@@UAEXH@Z
_TEXT	SEGMENT
_this$ = -4						; size = 4
_iD$ = 8						; size = 4
?setUniqueID@AudioEffect@@UAEXH@Z PROC			; AudioEffect::setUniqueID, COMDAT
; _this$ = ecx

; 87   : 	virtual void setUniqueID (VstInt32 iD)        { cEffect.uniqueID = iD; }		///< Must be called to set the plug-ins unique ID!

	push	ebp
	mov	ebp, esp
	push	ecx
	mov	DWORD PTR _this$[ebp], ecx
	mov	eax, DWORD PTR _this$[ebp]
	mov	ecx, DWORD PTR _iD$[ebp]
	mov	DWORD PTR [eax+104], ecx
	mov	esp, ebp
	pop	ebp
	ret	4
?setUniqueID@AudioEffect@@UAEXH@Z ENDP			; AudioEffect::setUniqueID
_TEXT	ENDS
; Function compile flags: /Odtp /RTCsu
; File E:\FoxSuite\vst-2.4-sdk\vstsdk2.4\public.sdk\source\vst2.x\audioeffect.h
;	COMDAT ?setChunk@AudioEffect@@UAEHPAXH_N@Z
_TEXT	SEGMENT
_this$ = -4						; size = 4
_data$ = 8						; size = 4
_byteSize$ = 12						; size = 4
_isPreset$ = 16						; size = 1
?setChunk@AudioEffect@@UAEHPAXH_N@Z PROC		; AudioEffect::setChunk, COMDAT
; _this$ = ecx

; 80   : 	virtual VstInt32 setChunk (void* data, VstInt32 byteSize, bool isPreset = false) { return 0; }	///< Host restores plug-in state

	push	ebp
	mov	ebp, esp
	push	ecx
	mov	DWORD PTR _this$[ebp], ecx
	xor	eax, eax
	mov	esp, ebp
	pop	ebp
	ret	12					; 0000000cH
?setChunk@AudioEffect@@UAEHPAXH_N@Z ENDP		; AudioEffect::setChunk
_TEXT	ENDS
; Function compile flags: /Odtp /RTCsu
; File E:\FoxSuite\vst-2.4-sdk\vstsdk2.4\public.sdk\source\vst2.x\audioeffect.h
;	COMDAT ?getChunk@AudioEffect@@UAEHPAPAX_N@Z
_TEXT	SEGMENT
_this$ = -4						; size = 4
_data$ = 8						; size = 4
_isPreset$ = 12						; size = 1
?getChunk@AudioEffect@@UAEHPAPAX_N@Z PROC		; AudioEffect::getChunk, COMDAT
; _this$ = ecx

; 79   : 	virtual VstInt32 getChunk (void** data, bool isPreset = false) { return 0; } ///< Host stores plug-in state. Returns the size in bytes of the chunk (plug-in allocates the data array)

	push	ebp
	mov	ebp, esp
	push	ecx
	mov	DWORD PTR _this$[ebp], ecx
	xor	eax, eax
	mov	esp, ebp
	pop	ebp
	ret	8
?getChunk@AudioEffect@@UAEHPAPAX_N@Z ENDP		; AudioEffect::getChunk
_TEXT	ENDS
; Function compile flags: /Odtp /RTCsu
; File E:\FoxSuite\vst-2.4-sdk\vstsdk2.4\public.sdk\source\vst2.x\audioeffect.h
;	COMDAT ?getParameterName@AudioEffect@@UAEXHPAD@Z
_TEXT	SEGMENT
_this$ = -4						; size = 4
_index$ = 8						; size = 4
_text$ = 12						; size = 4
?getParameterName@AudioEffect@@UAEXHPAD@Z PROC		; AudioEffect::getParameterName, COMDAT
; _this$ = ecx

; 77   : 	virtual void getParameterName (VstInt32 index, char* text)    { *text = 0; }    ///< Stuff \e text with the name ("Time", "Gain", "RoomType", etc...) of parameter \e index. Limited to #kVstMaxParamStrLen.

	push	ebp
	mov	ebp, esp
	push	ecx
	mov	DWORD PTR _this$[ebp], ecx
	mov	eax, DWORD PTR _text$[ebp]
	mov	BYTE PTR [eax], 0
	mov	esp, ebp
	pop	ebp
	ret	8
?getParameterName@AudioEffect@@UAEXHPAD@Z ENDP		; AudioEffect::getParameterName
_TEXT	ENDS
; Function compile flags: /Odtp /RTCsu
; File E:\FoxSuite\vst-2.4-sdk\vstsdk2.4\public.sdk\source\vst2.x\audioeffect.h
;	COMDAT ?getParameterDisplay@AudioEffect@@UAEXHPAD@Z
_TEXT	SEGMENT
_this$ = -4						; size = 4
_index$ = 8						; size = 4
_text$ = 12						; size = 4
?getParameterDisplay@AudioEffect@@UAEXHPAD@Z PROC	; AudioEffect::getParameterDisplay, COMDAT
; _this$ = ecx

; 76   : 	virtual void getParameterDisplay (VstInt32 index, char* text) { *text = 0; }	///< Stuff \e text with a string representation ("0.5", "-3", "PLATE", etc...) of the value of parameter \e index. Limited to #kVstMaxParamStrLen.

	push	ebp
	mov	ebp, esp
	push	ecx
	mov	DWORD PTR _this$[ebp], ecx
	mov	eax, DWORD PTR _text$[ebp]
	mov	BYTE PTR [eax], 0
	mov	esp, ebp
	pop	ebp
	ret	8
?getParameterDisplay@AudioEffect@@UAEXHPAD@Z ENDP	; AudioEffect::getParameterDisplay
_TEXT	ENDS
; Function compile flags: /Odtp /RTCsu
; File E:\FoxSuite\vst-2.4-sdk\vstsdk2.4\public.sdk\source\vst2.x\audioeffect.h
;	COMDAT ?getParameterLabel@AudioEffect@@UAEXHPAD@Z
_TEXT	SEGMENT
_this$ = -4						; size = 4
_index$ = 8						; size = 4
_label$ = 12						; size = 4
?getParameterLabel@AudioEffect@@UAEXHPAD@Z PROC		; AudioEffect::getParameterLabel, COMDAT
; _this$ = ecx

; 75   : 	virtual void getParameterLabel (VstInt32 index, char* label)  { *label = 0; }	///< Stuff \e label with the units in which parameter \e index is displayed (i.e. "sec", "dB", "type", etc...). Limited to #kVstMaxParamStrLen.

	push	ebp
	mov	ebp, esp
	push	ecx
	mov	DWORD PTR _this$[ebp], ecx
	mov	eax, DWORD PTR _label$[ebp]
	mov	BYTE PTR [eax], 0
	mov	esp, ebp
	pop	ebp
	ret	8
?getParameterLabel@AudioEffect@@UAEXHPAD@Z ENDP		; AudioEffect::getParameterLabel
_TEXT	ENDS
; Function compile flags: /Odtp /RTCsu
; File E:\FoxSuite\vst-2.4-sdk\vstsdk2.4\public.sdk\source\vst2.x\audioeffect.h
;	COMDAT ?getProgramName@AudioEffect@@UAEXPAD@Z
_TEXT	SEGMENT
_this$ = -4						; size = 4
_name$ = 8						; size = 4
?getProgramName@AudioEffect@@UAEXPAD@Z PROC		; AudioEffect::getProgramName, COMDAT
; _this$ = ecx

; 73   : 	virtual void getProgramName (char* name) { *name = 0; }	///< Stuff \e name with the name of the current program. Limited to #kVstMaxProgNameLen.

	push	ebp
	mov	ebp, esp
	push	ecx
	mov	DWORD PTR _this$[ebp], ecx
	mov	eax, DWORD PTR _name$[ebp]
	mov	BYTE PTR [eax], 0
	mov	esp, ebp
	pop	ebp
	ret	4
?getProgramName@AudioEffect@@UAEXPAD@Z ENDP		; AudioEffect::getProgramName
_TEXT	ENDS
; Function compile flags: /Odtp /RTCsu
; File E:\FoxSuite\vst-2.4-sdk\vstsdk2.4\public.sdk\source\vst2.x\audioeffect.h
;	COMDAT ?setProgramName@AudioEffect@@UAEXPAD@Z
_TEXT	SEGMENT
_this$ = -4						; size = 4
_name$ = 8						; size = 4
?setProgramName@AudioEffect@@UAEXPAD@Z PROC		; AudioEffect::setProgramName, COMDAT
; _this$ = ecx

; 72   : 	virtual void setProgramName (char* name) {}				///< Stuff the name field of the current program with \e name. Limited to #kVstMaxProgNameLen.

	push	ebp
	mov	ebp, esp
	push	ecx
	mov	DWORD PTR _this$[ebp], ecx
	mov	esp, ebp
	pop	ebp
	ret	4
?setProgramName@AudioEffect@@UAEXPAD@Z ENDP		; AudioEffect::setProgramName
_TEXT	ENDS
; Function compile flags: /Odtp /RTCsu
; File E:\FoxSuite\vst-2.4-sdk\vstsdk2.4\public.sdk\source\vst2.x\audioeffect.h
;	COMDAT ?setProgram@AudioEffect@@UAEXH@Z
_TEXT	SEGMENT
_this$ = -4						; size = 4
_program$ = 8						; size = 4
?setProgram@AudioEffect@@UAEXH@Z PROC			; AudioEffect::setProgram, COMDAT
; _this$ = ecx

; 70   : 	virtual void setProgram (VstInt32 program) { curProgram = program; }	///< Set the current program to \e program

	push	ebp
	mov	ebp, esp
	push	ecx
	mov	DWORD PTR _this$[ebp], ecx
	mov	eax, DWORD PTR _this$[ebp]
	mov	ecx, DWORD PTR _program$[ebp]
	mov	DWORD PTR [eax+28], ecx
	mov	esp, ebp
	pop	ebp
	ret	4
?setProgram@AudioEffect@@UAEXH@Z ENDP			; AudioEffect::setProgram
_TEXT	ENDS
; Function compile flags: /Odtp /RTCsu
; File E:\FoxSuite\vst-2.4-sdk\vstsdk2.4\public.sdk\source\vst2.x\audioeffect.h
;	COMDAT ?getProgram@AudioEffect@@UAEHXZ
_TEXT	SEGMENT
_this$ = -4						; size = 4
?getProgram@AudioEffect@@UAEHXZ PROC			; AudioEffect::getProgram, COMDAT
; _this$ = ecx

; 69   : 	virtual VstInt32 getProgram () { return curProgram; }					///< Return the index to the current program

	push	ebp
	mov	ebp, esp
	push	ecx
	mov	DWORD PTR _this$[ebp], ecx
	mov	eax, DWORD PTR _this$[ebp]
	mov	eax, DWORD PTR [eax+28]
	mov	esp, ebp
	pop	ebp
	ret	0
?getProgram@AudioEffect@@UAEHXZ ENDP			; AudioEffect::getProgram
_TEXT	ENDS
; Function compile flags: /Odtp /RTCsu
; File E:\FoxSuite\vst-2.4-sdk\vstsdk2.4\public.sdk\source\vst2.x\audioeffect.h
;	COMDAT ?getParameter@AudioEffect@@UAEMH@Z
_TEXT	SEGMENT
_this$ = -4						; size = 4
_index$ = 8						; size = 4
?getParameter@AudioEffect@@UAEMH@Z PROC			; AudioEffect::getParameter, COMDAT
; _this$ = ecx

; 61   : 	virtual float getParameter (VstInt32 index) { return 0; }	///< Return the value of the parameter with \e index

	push	ebp
	mov	ebp, esp
	push	ecx
	mov	DWORD PTR _this$[ebp], ecx
	fldz
	mov	esp, ebp
	pop	ebp
	ret	4
?getParameter@AudioEffect@@UAEMH@Z ENDP			; AudioEffect::getParameter
_TEXT	ENDS
; Function compile flags: /Odtp /RTCsu
; File E:\FoxSuite\vst-2.4-sdk\vstsdk2.4\public.sdk\source\vst2.x\audioeffect.h
;	COMDAT ?setParameter@AudioEffect@@UAEXHM@Z
_TEXT	SEGMENT
_this$ = -4						; size = 4
_index$ = 8						; size = 4
_value$ = 12						; size = 4
?setParameter@AudioEffect@@UAEXHM@Z PROC		; AudioEffect::setParameter, COMDAT
; _this$ = ecx

; 60   : 	virtual void setParameter (VstInt32 index, float value) {}	///< Called when a parameter changed

	push	ebp
	mov	ebp, esp
	push	ecx
	mov	DWORD PTR _this$[ebp], ecx
	mov	esp, ebp
	pop	ebp
	ret	8
?setParameter@AudioEffect@@UAEXHM@Z ENDP		; AudioEffect::setParameter
_TEXT	ENDS
; Function compile flags: /Odtp /RTCsu
; File E:\FoxSuite\vst-2.4-sdk\vstsdk2.4\public.sdk\source\vst2.x\audioeffect.h
;	COMDAT ?processDoubleReplacing@AudioEffect@@UAEXPAPAN0H@Z
_TEXT	SEGMENT
_this$ = -4						; size = 4
_inputs$ = 8						; size = 4
_outputs$ = 12						; size = 4
_sampleFrames$ = 16					; size = 4
?processDoubleReplacing@AudioEffect@@UAEXPAPAN0H@Z PROC	; AudioEffect::processDoubleReplacing, COMDAT
; _this$ = ecx

; 52   : 	virtual void processDoubleReplacing (double** inputs, double** outputs, VstInt32 sampleFrames) {} ///< Process 64 bit (double precision) floats (always in a resume state) \sa processReplacing

	push	ebp
	mov	ebp, esp
	push	ecx
	mov	DWORD PTR _this$[ebp], ecx
	mov	esp, ebp
	pop	ebp
	ret	12					; 0000000cH
?processDoubleReplacing@AudioEffect@@UAEXPAPAN0H@Z ENDP	; AudioEffect::processDoubleReplacing
_TEXT	ENDS
; Function compile flags: /Odtp /RTCsu
; File E:\FoxSuite\vst-2.4-sdk\vstsdk2.4\public.sdk\source\vst2.x\audioeffect.h
;	COMDAT ?setBlockSize@AudioEffect@@UAEXH@Z
_TEXT	SEGMENT
_this$ = -4						; size = 4
_blockSize$ = 8						; size = 4
?setBlockSize@AudioEffect@@UAEXH@Z PROC			; AudioEffect::setBlockSize, COMDAT
; _this$ = ecx

; 47   : 	virtual void setBlockSize (VstInt32 blockSize) { this->blockSize = blockSize; }		///< Called when the Maximun block size changes (always in a suspend state). Note that the sampleFrames in Process Calls could be smaller than this block size, but NOT bigger.

	push	ebp
	mov	ebp, esp
	push	ecx
	mov	DWORD PTR _this$[ebp], ecx
	mov	eax, DWORD PTR _this$[ebp]
	mov	ecx, DWORD PTR _blockSize$[ebp]
	mov	DWORD PTR [eax+16], ecx
	mov	esp, ebp
	pop	ebp
	ret	4
?setBlockSize@AudioEffect@@UAEXH@Z ENDP			; AudioEffect::setBlockSize
_TEXT	ENDS
; Function compile flags: /Odtp /RTCsu
; File E:\FoxSuite\vst-2.4-sdk\vstsdk2.4\public.sdk\source\vst2.x\audioeffect.h
;	COMDAT ?setSampleRate@AudioEffect@@UAEXM@Z
_TEXT	SEGMENT
_this$ = -4						; size = 4
_sampleRate$ = 8					; size = 4
?setSampleRate@AudioEffect@@UAEXM@Z PROC		; AudioEffect::setSampleRate, COMDAT
; _this$ = ecx

; 46   : 	virtual void setSampleRate (float sampleRate)  { this->sampleRate = sampleRate; }	///< Called when the sample rate changes (always in a suspend state)

	push	ebp
	mov	ebp, esp
	push	ecx
	mov	DWORD PTR _this$[ebp], ecx
	mov	eax, DWORD PTR _this$[ebp]
	movss	xmm0, DWORD PTR _sampleRate$[ebp]
	movss	DWORD PTR [eax+12], xmm0
	mov	esp, ebp
	pop	ebp
	ret	4
?setSampleRate@AudioEffect@@UAEXM@Z ENDP		; AudioEffect::setSampleRate
_TEXT	ENDS
; Function compile flags: /Odtp /RTCsu
; File E:\FoxSuite\vst-2.4-sdk\vstsdk2.4\public.sdk\source\vst2.x\audioeffect.h
;	COMDAT ?suspend@AudioEffect@@UAEXXZ
_TEXT	SEGMENT
_this$ = -4						; size = 4
?suspend@AudioEffect@@UAEXXZ PROC			; AudioEffect::suspend, COMDAT
; _this$ = ecx

; 38   : 	virtual void suspend () {}	///< Called when plug-in is switched to off

	push	ebp
	mov	ebp, esp
	push	ecx
	mov	DWORD PTR _this$[ebp], ecx
	mov	esp, ebp
	pop	ebp
	ret	0
?suspend@AudioEffect@@UAEXXZ ENDP			; AudioEffect::suspend
_TEXT	ENDS
; Function compile flags: /Odtp /RTCsu
; File E:\FoxSuite\vst-2.4-sdk\vstsdk2.4\public.sdk\source\vst2.x\audioeffect.h
;	COMDAT ?close@AudioEffect@@UAEXXZ
_TEXT	SEGMENT
_this$ = -4						; size = 4
?close@AudioEffect@@UAEXXZ PROC				; AudioEffect::close, COMDAT
; _this$ = ecx

; 37   : 	virtual void close () {}	///< Called when plug-in will be released

	push	ebp
	mov	ebp, esp
	push	ecx
	mov	DWORD PTR _this$[ebp], ecx
	mov	esp, ebp
	pop	ebp
	ret	0
?close@AudioEffect@@UAEXXZ ENDP				; AudioEffect::close
_TEXT	ENDS
; Function compile flags: /Odtp /RTCsu
; File E:\FoxSuite\vst-2.4-sdk\vstsdk2.4\public.sdk\source\vst2.x\audioeffect.h
;	COMDAT ?open@AudioEffect@@UAEXXZ
_TEXT	SEGMENT
_this$ = -4						; size = 4
?open@AudioEffect@@UAEXXZ PROC				; AudioEffect::open, COMDAT
; _this$ = ecx

; 36   : 	virtual void open () {}		///< Called when plug-in is initialized

	push	ebp
	mov	ebp, esp
	push	ecx
	mov	DWORD PTR _this$[ebp], ecx
	mov	esp, ebp
	pop	ebp
	ret	0
?open@AudioEffect@@UAEXXZ ENDP				; AudioEffect::open
_TEXT	ENDS
; Function compile flags: /Odtp /RTCsu
; File E:\FoxSuite\vst-2.4-sdk\vstsdk2.4\pluginterfaces\vst2.x\aeffect.h
;	COMDAT ?vst_strncpy@@YAPADPADPBDI@Z
_TEXT	SEGMENT
_result$ = -4						; size = 4
_dst$ = 8						; size = 4
_src$ = 12						; size = 4
_maxLen$ = 16						; size = 4
?vst_strncpy@@YAPADPADPBDI@Z PROC			; vst_strncpy, COMDAT

; 295  : {

	push	ebp
	mov	ebp, esp
	push	ecx
	push	esi
	mov	DWORD PTR [ebp-4], -858993460		; ccccccccH

; 296  : 	char* result = strncpy (dst, src, maxLen);

	mov	esi, esp
	mov	eax, DWORD PTR _maxLen$[ebp]
	push	eax
	mov	ecx, DWORD PTR _src$[ebp]
	push	ecx
	mov	edx, DWORD PTR _dst$[ebp]
	push	edx
	call	DWORD PTR __imp__strncpy
	add	esp, 12					; 0000000cH
	cmp	esi, esp
	call	__RTC_CheckEsp
	mov	DWORD PTR _result$[ebp], eax

; 297  : 	dst[maxLen] = 0;

	mov	eax, DWORD PTR _dst$[ebp]
	add	eax, DWORD PTR _maxLen$[ebp]
	mov	BYTE PTR [eax], 0

; 298  : 	return result;

	mov	eax, DWORD PTR _result$[ebp]

; 299  : }

	pop	esi
	add	esp, 4
	cmp	ebp, esp
	call	__RTC_CheckEsp
	mov	esp, ebp
	pop	ebp
	ret	0
?vst_strncpy@@YAPADPADPBDI@Z ENDP			; vst_strncpy
_TEXT	ENDS
END
