; Listing generated by Microsoft (R) Optimizing Compiler Version 19.29.30133.0 

	TITLE	E:\FoxSuite\misefx\MisEfx\Debug\MisEfx.obj
	.686P
	.XMM
	include listing.inc
	.model	flat

INCLUDELIB MSVCRT
INCLUDELIB OLDNAMES

CONST	SEGMENT
$SG10620 DB	'Default', 00H
$SG10621 DB	'Dreamy', 00H
$SG10700 DB	00H
$SG10622 DB	'Short', 00H
$SG10706 DB	00H
$SG10718 DB	00H
$SG10623 DB	'Metallic', 00H
	ORG $+3
$SG10624 DB	'Wobbly', 00H
	ORG $+1
$SG10702 DB	's', 00H
	ORG $+2
$SG10704 DB	'dB', 00H
	ORG $+1
$SG10708 DB	'Hz', 00H
	ORG $+1
$SG10710 DB	'Hz', 00H
	ORG $+1
$SG10712 DB	'ms', 00H
	ORG $+1
$SG10714 DB	'Hz', 00H
	ORG $+1
$SG10716 DB	'%', 00H
	ORG $+2
$SG10746 DB	'Wet', 00H
$SG10748 DB	'Decay', 00H
	ORG $+2
$SG10750 DB	'Smear', 00H
	ORG $+2
$SG10752 DB	'Damp', 00H
	ORG $+3
$SG10754 DB	'LPF Freq', 00H
	ORG $+3
$SG10756 DB	'HPF Freq', 00H
	ORG $+3
$SG10758 DB	'PreDelay', 00H
	ORG $+3
$SG10760 DB	'ModRate', 00H
$SG10762 DB	'ModDepth', 00H
	ORG $+3
$SG10764 DB	'Spread', 00H
	ORG $+1
$SG10786 DB	'Reverb', 00H
	ORG $+1
$SG10791 DB	'Fox Suite', 00H
CONST	ENDS
PUBLIC	??_GLPFButterworth@@QAEPAXI@Z			; LPFButterworth::`scalar deleting destructor'
PUBLIC	??_GHPFButterworth@@QAEPAXI@Z			; HPFButterworth::`scalar deleting destructor'
PUBLIC	??_GTremolo@@QAEPAXI@Z				; Tremolo::`scalar deleting destructor'
PUBLIC	??_GFreeverb@@QAEPAXI@Z				; Freeverb::`scalar deleting destructor'
PUBLIC	?vst_strncpy@@YAPADPADPBDI@Z			; vst_strncpy
PUBLIC	?open@AudioEffect@@UAEXXZ			; AudioEffect::open
PUBLIC	?close@AudioEffect@@UAEXXZ			; AudioEffect::close
PUBLIC	?suspend@AudioEffect@@UAEXXZ			; AudioEffect::suspend
PUBLIC	?setSampleRate@AudioEffect@@UAEXM@Z		; AudioEffect::setSampleRate
PUBLIC	?setBlockSize@AudioEffect@@UAEXH@Z		; AudioEffect::setBlockSize
PUBLIC	?processDoubleReplacing@AudioEffect@@UAEXPAPAN0H@Z ; AudioEffect::processDoubleReplacing
PUBLIC	?getProgram@AudioEffect@@UAEHXZ			; AudioEffect::getProgram
PUBLIC	?setProgram@AudioEffect@@UAEXH@Z		; AudioEffect::setProgram
PUBLIC	?setProgramName@AudioEffect@@UAEXPAD@Z		; AudioEffect::setProgramName
PUBLIC	?getChunk@AudioEffect@@UAEHPAPAX_N@Z		; AudioEffect::getChunk
PUBLIC	?setChunk@AudioEffect@@UAEHPAXH_N@Z		; AudioEffect::setChunk
PUBLIC	?setUniqueID@AudioEffect@@UAEXH@Z		; AudioEffect::setUniqueID
PUBLIC	?setNumInputs@AudioEffect@@UAEXH@Z		; AudioEffect::setNumInputs
PUBLIC	?setNumOutputs@AudioEffect@@UAEXH@Z		; AudioEffect::setNumOutputs
PUBLIC	?getEditor@AudioEffect@@UAEPAVAEffEditor@@XZ	; AudioEffect::getEditor
PUBLIC	?getAeffect@AudioEffect@@UAEPAUAEffect@@XZ	; AudioEffect::getAeffect
PUBLIC	?getSampleRate@AudioEffect@@UAEMXZ		; AudioEffect::getSampleRate
PUBLIC	?getBlockSize@AudioEffect@@UAEHXZ		; AudioEffect::getBlockSize
PUBLIC	?__processDeprecated@AudioEffect@@UAEXPAPAM0H@Z	; AudioEffect::__processDeprecated
PUBLIC	?__getVuDeprecated@AudioEffect@@UAEMXZ		; AudioEffect::__getVuDeprecated
PUBLIC	?canParameterBeAutomated@AudioEffectX@@UAE_NH@Z	; AudioEffectX::canParameterBeAutomated
PUBLIC	?string2parameter@AudioEffectX@@UAE_NHPAD@Z	; AudioEffectX::string2parameter
PUBLIC	?getParameterProperties@AudioEffectX@@UAE_NHPAUVstParameterProperties@@@Z ; AudioEffectX::getParameterProperties
PUBLIC	?beginSetProgram@AudioEffectX@@UAE_NXZ		; AudioEffectX::beginSetProgram
PUBLIC	?endSetProgram@AudioEffectX@@UAE_NXZ		; AudioEffectX::endSetProgram
PUBLIC	?beginLoadBank@AudioEffectX@@UAEHPAUVstPatchChunkInfo@@@Z ; AudioEffectX::beginLoadBank
PUBLIC	?beginLoadProgram@AudioEffectX@@UAEHPAUVstPatchChunkInfo@@@Z ; AudioEffectX::beginLoadProgram
PUBLIC	?getInputProperties@AudioEffectX@@UAE_NHPAUVstPinProperties@@@Z ; AudioEffectX::getInputProperties
PUBLIC	?getOutputProperties@AudioEffectX@@UAE_NHPAUVstPinProperties@@@Z ; AudioEffectX::getOutputProperties
PUBLIC	?setSpeakerArrangement@AudioEffectX@@UAE_NPAUVstSpeakerArrangement@@0@Z ; AudioEffectX::setSpeakerArrangement
PUBLIC	?getSpeakerArrangement@AudioEffectX@@UAE_NPAPAUVstSpeakerArrangement@@0@Z ; AudioEffectX::getSpeakerArrangement
PUBLIC	?setBypass@AudioEffectX@@UAE_N_N@Z		; AudioEffectX::setBypass
PUBLIC	?setPanLaw@AudioEffectX@@UAE_NHM@Z		; AudioEffectX::setPanLaw
PUBLIC	?setProcessPrecision@AudioEffectX@@UAE_NH@Z	; AudioEffectX::setProcessPrecision
PUBLIC	?getNumMidiInputChannels@AudioEffectX@@UAEHXZ	; AudioEffectX::getNumMidiInputChannels
PUBLIC	?getNumMidiOutputChannels@AudioEffectX@@UAEHXZ	; AudioEffectX::getNumMidiOutputChannels
PUBLIC	?processEvents@AudioEffectX@@UAEHPAUVstEvents@@@Z ; AudioEffectX::processEvents
PUBLIC	?startProcess@AudioEffectX@@UAEHXZ		; AudioEffectX::startProcess
PUBLIC	?stopProcess@AudioEffectX@@UAEHXZ		; AudioEffectX::stopProcess
PUBLIC	?processVariableIo@AudioEffectX@@UAE_NPAUVstVariableIo@@@Z ; AudioEffectX::processVariableIo
PUBLIC	?setTotalSampleToProcess@AudioEffectX@@UAEHH@Z	; AudioEffectX::setTotalSampleToProcess
PUBLIC	?getGetTailSize@AudioEffectX@@UAEHXZ		; AudioEffectX::getGetTailSize
PUBLIC	?getProductString@AudioEffectX@@UAE_NPAD@Z	; AudioEffectX::getProductString
PUBLIC	?getVendorVersion@AudioEffectX@@UAEHXZ		; AudioEffectX::getVendorVersion
PUBLIC	?vendorSpecific@AudioEffectX@@UAEHHHPAXM@Z	; AudioEffectX::vendorSpecific
PUBLIC	?canDo@AudioEffectX@@UAEHPAD@Z			; AudioEffectX::canDo
PUBLIC	?getVstVersion@AudioEffectX@@UAEHXZ		; AudioEffectX::getVstVersion
PUBLIC	?getMidiProgramName@AudioEffectX@@UAEHHPAUMidiProgramName@@@Z ; AudioEffectX::getMidiProgramName
PUBLIC	?getCurrentMidiProgram@AudioEffectX@@UAEHHPAUMidiProgramName@@@Z ; AudioEffectX::getCurrentMidiProgram
PUBLIC	?getMidiProgramCategory@AudioEffectX@@UAEHHPAUMidiProgramCategory@@@Z ; AudioEffectX::getMidiProgramCategory
PUBLIC	?hasMidiProgramsChanged@AudioEffectX@@UAE_NH@Z	; AudioEffectX::hasMidiProgramsChanged
PUBLIC	?getMidiKeyName@AudioEffectX@@UAE_NHPAUMidiKeyName@@@Z ; AudioEffectX::getMidiKeyName
PUBLIC	?getNextShellPlugin@AudioEffectX@@UAEHPAD@Z	; AudioEffectX::getNextShellPlugin
PUBLIC	?offlineNotify@AudioEffectX@@UAE_NPAUVstAudioFile@@H_N@Z ; AudioEffectX::offlineNotify
PUBLIC	?offlinePrepare@AudioEffectX@@UAE_NPAUVstOfflineTask@@H@Z ; AudioEffectX::offlinePrepare
PUBLIC	?offlineRun@AudioEffectX@@UAE_NPAUVstOfflineTask@@H@Z ; AudioEffectX::offlineRun
PUBLIC	?offlineGetNumPasses@AudioEffectX@@UAEHXZ	; AudioEffectX::offlineGetNumPasses
PUBLIC	?offlineGetNumMetaPasses@AudioEffectX@@UAEHXZ	; AudioEffectX::offlineGetNumMetaPasses
PUBLIC	?__getNumCategoriesDeprecated@AudioEffectX@@UAEHXZ ; AudioEffectX::__getNumCategoriesDeprecated
PUBLIC	?__copyProgramDeprecated@AudioEffectX@@UAE_NH@Z	; AudioEffectX::__copyProgramDeprecated
PUBLIC	?__inputConnectedDeprecated@AudioEffectX@@UAEXH_N@Z ; AudioEffectX::__inputConnectedDeprecated
PUBLIC	?__outputConnectedDeprecated@AudioEffectX@@UAEXH_N@Z ; AudioEffectX::__outputConnectedDeprecated
PUBLIC	?__reportCurrentPositionDeprecated@AudioEffectX@@UAEHXZ ; AudioEffectX::__reportCurrentPositionDeprecated
PUBLIC	?__reportDestinationBufferDeprecated@AudioEffectX@@UAEPAMXZ ; AudioEffectX::__reportDestinationBufferDeprecated
PUBLIC	?__setBlockSizeAndSampleRateDeprecated@AudioEffectX@@UAEXHM@Z ; AudioEffectX::__setBlockSizeAndSampleRateDeprecated
PUBLIC	?__getErrorTextDeprecated@AudioEffectX@@UAE_NPAD@Z ; AudioEffectX::__getErrorTextDeprecated
PUBLIC	?__getIconDeprecated@AudioEffectX@@UAEPAXXZ	; AudioEffectX::__getIconDeprecated
PUBLIC	?__setViewPositionDeprecated@AudioEffectX@@UAE_NHH@Z ; AudioEffectX::__setViewPositionDeprecated
PUBLIC	?__fxIdleDeprecated@AudioEffectX@@UAEHXZ	; AudioEffectX::__fxIdleDeprecated
PUBLIC	?__keysRequiredDeprecated@AudioEffectX@@UAE_NXZ	; AudioEffectX::__keysRequiredDeprecated
PUBLIC	??1AudioEffectX@@UAE@XZ				; AudioEffectX::~AudioEffectX
PUBLIC	?InitPlugin@MisEfx@@AAEXXZ			; MisEfx::InitPlugin
PUBLIC	?mapValueIntoRange@MisEfx@@AAEMMMM@Z		; MisEfx::mapValueIntoRange
PUBLIC	?mapValueOutsideRange@MisEfx@@AAEMMMM@Z		; MisEfx::mapValueOutsideRange
PUBLIC	?InitPresets@MisEfx@@AAEXXZ			; MisEfx::InitPresets
PUBLIC	??0MisEfx@@QAE@P6AHPAUAEffect@@HHHPAXM@Z@Z	; MisEfx::MisEfx
PUBLIC	??1MisEfx@@UAE@XZ				; MisEfx::~MisEfx
PUBLIC	?processReplacing@MisEfx@@UAEXPAPAM0H@Z		; MisEfx::processReplacing
PUBLIC	?getParameter@MisEfx@@UAEMH@Z			; MisEfx::getParameter
PUBLIC	?setParameter@MisEfx@@UAEXHM@Z			; MisEfx::setParameter
PUBLIC	?getEffectName@MisEfx@@UAE_NPAD@Z		; MisEfx::getEffectName
PUBLIC	?getVendorString@MisEfx@@UAE_NPAD@Z		; MisEfx::getVendorString
PUBLIC	?getParameterLabel@MisEfx@@UAEXHPAD@Z		; MisEfx::getParameterLabel
PUBLIC	?getParameterDisplay@MisEfx@@UAEXHPAD@Z		; MisEfx::getParameterDisplay
PUBLIC	?getParameterName@MisEfx@@UAEXHPAD@Z		; MisEfx::getParameterName
PUBLIC	?setSampleRate@MisEfx@@UAEXM@Z			; MisEfx::setSampleRate
PUBLIC	?setProgram@MisEfx@@UAEXH@Z			; MisEfx::setProgram
PUBLIC	?getProgramName@MisEfx@@UAEXPAD@Z		; MisEfx::getProgramName
PUBLIC	?getProgramNameIndexed@MisEfx@@UAE_NHHPAD@Z	; MisEfx::getProgramNameIndexed
PUBLIC	??_GMisEfx@@UAEPAXI@Z				; MisEfx::`scalar deleting destructor'
PUBLIC	?createEffectInstance@@YAPAVAudioEffect@@P6AHPAUAEffect@@HHHPAXM@Z@Z ; createEffectInstance
PUBLIC	??_7MisEfx@@6B@					; MisEfx::`vftable'
PUBLIC	??_R4MisEfx@@6B@				; MisEfx::`RTTI Complete Object Locator'
PUBLIC	??_R0?AVMisEfx@@@8				; MisEfx `RTTI Type Descriptor'
PUBLIC	??_R3MisEfx@@8					; MisEfx::`RTTI Class Hierarchy Descriptor'
PUBLIC	??_R2MisEfx@@8					; MisEfx::`RTTI Base Class Array'
PUBLIC	??_R1A@?0A@EA@MisEfx@@8				; MisEfx::`RTTI Base Class Descriptor at (0,-1,0,64)'
PUBLIC	??_R1A@?0A@EA@AudioEffectX@@8			; AudioEffectX::`RTTI Base Class Descriptor at (0,-1,0,64)'
PUBLIC	??_R0?AVAudioEffectX@@@8			; AudioEffectX `RTTI Type Descriptor'
PUBLIC	??_R3AudioEffectX@@8				; AudioEffectX::`RTTI Class Hierarchy Descriptor'
PUBLIC	??_R2AudioEffectX@@8				; AudioEffectX::`RTTI Base Class Array'
PUBLIC	??_R1A@?0A@EA@AudioEffect@@8			; AudioEffect::`RTTI Base Class Descriptor at (0,-1,0,64)'
PUBLIC	??_R0?AVAudioEffect@@@8				; AudioEffect `RTTI Type Descriptor'
PUBLIC	??_R3AudioEffect@@8				; AudioEffect::`RTTI Class Hierarchy Descriptor'
PUBLIC	??_R2AudioEffect@@8				; AudioEffect::`RTTI Base Class Array'
PUBLIC	__real@00000000
PUBLIC	__real@3dcccccd
PUBLIC	__real@3e4ccccd
PUBLIC	__real@3e99999a
PUBLIC	__real@3ecccccd
PUBLIC	__real@3f000000
PUBLIC	__real@3f19999a
PUBLIC	__real@3f266666
PUBLIC	__real@3f333333
PUBLIC	__real@3f4ccccd
PUBLIC	__real@3f800000
PUBLIC	__real@3ff0000000000000
PUBLIC	__real@40000000
PUBLIC	__real@400ccccd
PUBLIC	__real@4014000000000000
PUBLIC	__real@4024000000000000
PUBLIC	__real@4034000000000000
PUBLIC	__real@40400000
PUBLIC	__real@40533333
PUBLIC	__real@4072c00000000000
PUBLIC	__real@40d09a0000000000
PUBLIC	__real@40d28e0000000000
PUBLIC	__real@41200000
PUBLIC	__real@41a00000
PUBLIC	__real@42a00000
PUBLIC	__real@42c80000
PUBLIC	__real@43480000
PUBLIC	__real@43fa0000
PUBLIC	__real@44228000
PUBLIC	__real@466a6000
PUBLIC	__real@4684d000
PUBLIC	__real@46947000
EXTRN	??2@YAPAXI@Z:PROC				; operator new
EXTRN	??3@YAXPAXI@Z:PROC				; operator delete
EXTRN	??_U@YAPAXI@Z:PROC				; operator new[]
EXTRN	??0LPFButterworth@@QAE@XZ:PROC			; LPFButterworth::LPFButterworth
EXTRN	??1LPFButterworth@@QAE@XZ:PROC			; LPFButterworth::~LPFButterworth
EXTRN	?init@LPFButterworth@@QAEXH@Z:PROC		; LPFButterworth::init
EXTRN	?setSampleRate@LPFButterworth@@QAEXH@Z:PROC	; LPFButterworth::setSampleRate
EXTRN	?setCutoffFrequency@LPFButterworth@@QAEXM@Z:PROC ; LPFButterworth::setCutoffFrequency
EXTRN	??0HPFButterworth@@QAE@XZ:PROC			; HPFButterworth::HPFButterworth
EXTRN	??1HPFButterworth@@QAE@XZ:PROC			; HPFButterworth::~HPFButterworth
EXTRN	?init@HPFButterworth@@QAEXH@Z:PROC		; HPFButterworth::init
EXTRN	?setSampleRate@HPFButterworth@@QAEXH@Z:PROC	; HPFButterworth::setSampleRate
EXTRN	?setCutoffFrequency@HPFButterworth@@QAEXM@Z:PROC ; HPFButterworth::setCutoffFrequency
EXTRN	??0Tremolo@@QAE@XZ:PROC				; Tremolo::Tremolo
EXTRN	??1Tremolo@@QAE@XZ:PROC				; Tremolo::~Tremolo
EXTRN	?init@Tremolo@@QAEXHW4OscillatorType@@MM@Z:PROC	; Tremolo::init
EXTRN	?setModDepth@Tremolo@@QAEXM@Z:PROC		; Tremolo::setModDepth
EXTRN	?setModRate@Tremolo@@QAEXM@Z:PROC		; Tremolo::setModRate
EXTRN	_exp:PROC
EXTRN	_log:PROC
EXTRN	??0Freeverb@@QAE@XZ:PROC			; Freeverb::Freeverb
EXTRN	??1Freeverb@@QAE@XZ:PROC			; Freeverb::~Freeverb
EXTRN	?init@Freeverb@@QAEXHMMMMMM@Z:PROC		; Freeverb::init
EXTRN	?processAudio@Freeverb@@QAEXPAM0@Z:PROC		; Freeverb::processAudio
EXTRN	?setSampleRate@Freeverb@@QAEXH@Z:PROC		; Freeverb::setSampleRate
EXTRN	?setReverbWet@Freeverb@@QAEXM@Z:PROC		; Freeverb::setReverbWet
EXTRN	?setReverbSmearing@Freeverb@@QAEXM@Z:PROC	; Freeverb::setReverbSmearing
EXTRN	?setReverbDecayInSeconds@Freeverb@@QAEXM@Z:PROC	; Freeverb::setReverbDecayInSeconds
EXTRN	?setReverbDampingFrequency@Freeverb@@QAEXM@Z:PROC ; Freeverb::setReverbDampingFrequency
EXTRN	?setReverbPreDelayInMilliseconds@Freeverb@@QAEXM@Z:PROC ; Freeverb::setReverbPreDelayInMilliseconds
EXTRN	?setReverbSpread@Freeverb@@QAEXM@Z:PROC		; Freeverb::setReverbSpread
EXTRN	_strcpy:PROC
EXTRN	__imp__strncpy:PROC
EXTRN	??1AudioEffect@@UAE@XZ:PROC			; AudioEffect::~AudioEffect
EXTRN	?setParameterAutomated@AudioEffect@@UAEXHM@Z:PROC ; AudioEffect::setParameterAutomated
EXTRN	?canProcessReplacing@AudioEffect@@UAEX_N@Z:PROC	; AudioEffect::canProcessReplacing
EXTRN	?canDoubleReplacing@AudioEffect@@UAEX_N@Z:PROC	; AudioEffect::canDoubleReplacing
EXTRN	?programsAreChunks@AudioEffect@@UAEX_N@Z:PROC	; AudioEffect::programsAreChunks
EXTRN	?setInitialDelay@AudioEffect@@UAEXH@Z:PROC	; AudioEffect::setInitialDelay
EXTRN	?getMasterVersion@AudioEffect@@UAEHXZ:PROC	; AudioEffect::getMasterVersion
EXTRN	?getCurrentUniqueId@AudioEffect@@UAEHXZ:PROC	; AudioEffect::getCurrentUniqueId
EXTRN	?masterIdle@AudioEffect@@UAEXXZ:PROC		; AudioEffect::masterIdle
EXTRN	?dB2string@AudioEffect@@UAEXMPADH@Z:PROC	; AudioEffect::dB2string
EXTRN	?Hz2string@AudioEffect@@UAEXMPADH@Z:PROC	; AudioEffect::Hz2string
EXTRN	?ms2string@AudioEffect@@UAEXMPADH@Z:PROC	; AudioEffect::ms2string
EXTRN	?float2string@AudioEffect@@UAEXMPADH@Z:PROC	; AudioEffect::float2string
EXTRN	?int2string@AudioEffect@@UAEXHPADH@Z:PROC	; AudioEffect::int2string
EXTRN	?__hasVuDeprecated@AudioEffect@@UAEX_N@Z:PROC	; AudioEffect::__hasVuDeprecated
EXTRN	?__hasClipDeprecated@AudioEffect@@UAEX_N@Z:PROC	; AudioEffect::__hasClipDeprecated
EXTRN	?__canMonoDeprecated@AudioEffect@@UAEX_N@Z:PROC	; AudioEffect::__canMonoDeprecated
EXTRN	?__setRealtimeQualitiesDeprecated@AudioEffect@@UAEXH@Z:PROC ; AudioEffect::__setRealtimeQualitiesDeprecated
EXTRN	?__setOfflineQualitiesDeprecated@AudioEffect@@UAEXH@Z:PROC ; AudioEffect::__setOfflineQualitiesDeprecated
EXTRN	?__isInputConnectedDeprecated@AudioEffect@@UAE_NH@Z:PROC ; AudioEffect::__isInputConnectedDeprecated
EXTRN	?__isOutputConnectedDeprecated@AudioEffect@@UAE_NH@Z:PROC ; AudioEffect::__isOutputConnectedDeprecated
EXTRN	??0AudioEffectX@@QAE@P6AHPAUAEffect@@HHHPAXM@ZHH@Z:PROC ; AudioEffectX::AudioEffectX
EXTRN	?beginEdit@AudioEffectX@@UAE_NH@Z:PROC		; AudioEffectX::beginEdit
EXTRN	?endEdit@AudioEffectX@@UAE_NH@Z:PROC		; AudioEffectX::endEdit
EXTRN	?ioChanged@AudioEffectX@@UAE_NXZ:PROC		; AudioEffectX::ioChanged
EXTRN	?updateSampleRate@AudioEffectX@@UAENXZ:PROC	; AudioEffectX::updateSampleRate
EXTRN	?updateBlockSize@AudioEffectX@@UAEHXZ:PROC	; AudioEffectX::updateBlockSize
EXTRN	?getInputLatency@AudioEffectX@@UAEHXZ:PROC	; AudioEffectX::getInputLatency
EXTRN	?getOutputLatency@AudioEffectX@@UAEHXZ:PROC	; AudioEffectX::getOutputLatency
EXTRN	?getTimeInfo@AudioEffectX@@UAEPAUVstTimeInfo@@H@Z:PROC ; AudioEffectX::getTimeInfo
EXTRN	?getCurrentProcessLevel@AudioEffectX@@UAEHXZ:PROC ; AudioEffectX::getCurrentProcessLevel
EXTRN	?getAutomationState@AudioEffectX@@UAEHXZ:PROC	; AudioEffectX::getAutomationState
EXTRN	?getHostVendorString@AudioEffectX@@UAE_NPAD@Z:PROC ; AudioEffectX::getHostVendorString
EXTRN	?getHostProductString@AudioEffectX@@UAE_NPAD@Z:PROC ; AudioEffectX::getHostProductString
EXTRN	?getHostVendorVersion@AudioEffectX@@UAEHXZ:PROC	; AudioEffectX::getHostVendorVersion
EXTRN	?hostVendorSpecific@AudioEffectX@@UAEHHHPAXM@Z:PROC ; AudioEffectX::hostVendorSpecific
EXTRN	?canHostDo@AudioEffectX@@UAEHPAD@Z:PROC		; AudioEffectX::canHostDo
EXTRN	?getHostLanguage@AudioEffectX@@UAEHXZ:PROC	; AudioEffectX::getHostLanguage
EXTRN	?isSynth@AudioEffectX@@UAEX_N@Z:PROC		; AudioEffectX::isSynth
EXTRN	?noTail@AudioEffectX@@UAEX_N@Z:PROC		; AudioEffectX::noTail
EXTRN	?getDirectory@AudioEffectX@@UAEPAXXZ:PROC	; AudioEffectX::getDirectory
EXTRN	?getPlugCategory@AudioEffectX@@UAE?AW4VstPlugCategory@@XZ:PROC ; AudioEffectX::getPlugCategory
EXTRN	?updateDisplay@AudioEffectX@@UAE_NXZ:PROC	; AudioEffectX::updateDisplay
EXTRN	?sizeWindow@AudioEffectX@@UAE_NHH@Z:PROC	; AudioEffectX::sizeWindow
EXTRN	?openFileSelector@AudioEffectX@@UAE_NPAUVstFileSelect@@@Z:PROC ; AudioEffectX::openFileSelector
EXTRN	?closeFileSelector@AudioEffectX@@UAE_NPAUVstFileSelect@@@Z:PROC ; AudioEffectX::closeFileSelector
EXTRN	?allocateArrangement@AudioEffectX@@UAE_NPAPAUVstSpeakerArrangement@@H@Z:PROC ; AudioEffectX::allocateArrangement
EXTRN	?deallocateArrangement@AudioEffectX@@UAE_NPAPAUVstSpeakerArrangement@@@Z:PROC ; AudioEffectX::deallocateArrangement
EXTRN	?copySpeaker@AudioEffectX@@UAE_NPAUVstSpeakerProperties@@0@Z:PROC ; AudioEffectX::copySpeaker
EXTRN	?matchArrangement@AudioEffectX@@UAE_NPAPAUVstSpeakerArrangement@@PAU2@@Z:PROC ; AudioEffectX::matchArrangement
EXTRN	?offlineRead@AudioEffectX@@UAE_NPAUVstOfflineTask@@W4VstOfflineOption@@_N@Z:PROC ; AudioEffectX::offlineRead
EXTRN	?offlineWrite@AudioEffectX@@UAE_NPAUVstOfflineTask@@W4VstOfflineOption@@@Z:PROC ; AudioEffectX::offlineWrite
EXTRN	?offlineStart@AudioEffectX@@UAE_NPAUVstAudioFile@@HH@Z:PROC ; AudioEffectX::offlineStart
EXTRN	?offlineGetCurrentPass@AudioEffectX@@UAEHXZ:PROC ; AudioEffectX::offlineGetCurrentPass
EXTRN	?offlineGetCurrentMetaPass@AudioEffectX@@UAEHXZ:PROC ; AudioEffectX::offlineGetCurrentMetaPass
EXTRN	?dispatcher@AudioEffectX@@UAEHHHHPAXM@Z:PROC	; AudioEffectX::dispatcher
EXTRN	?resume@AudioEffectX@@UAEXXZ:PROC		; AudioEffectX::resume
EXTRN	?__wantEventsDeprecated@AudioEffectX@@UAEXH@Z:PROC ; AudioEffectX::__wantEventsDeprecated
EXTRN	?__tempoAtDeprecated@AudioEffectX@@UAEHH@Z:PROC	; AudioEffectX::__tempoAtDeprecated
EXTRN	?__getNumAutomatableParametersDeprecated@AudioEffectX@@UAEHXZ:PROC ; AudioEffectX::__getNumAutomatableParametersDeprecated
EXTRN	?__getParameterQuantizationDeprecated@AudioEffectX@@UAEHXZ:PROC ; AudioEffectX::__getParameterQuantizationDeprecated
EXTRN	?__needIdleDeprecated@AudioEffectX@@UAE_NXZ:PROC ; AudioEffectX::__needIdleDeprecated
EXTRN	?__getPreviousPlugDeprecated@AudioEffectX@@UAEPAUAEffect@@H@Z:PROC ; AudioEffectX::__getPreviousPlugDeprecated
EXTRN	?__getNextPlugDeprecated@AudioEffectX@@UAEPAUAEffect@@H@Z:PROC ; AudioEffectX::__getNextPlugDeprecated
EXTRN	?__willProcessReplacingDeprecated@AudioEffectX@@UAEHXZ:PROC ; AudioEffectX::__willProcessReplacingDeprecated
EXTRN	?__wantAsyncOperationDeprecated@AudioEffectX@@UAEX_N@Z:PROC ; AudioEffectX::__wantAsyncOperationDeprecated
EXTRN	?__hasExternalBufferDeprecated@AudioEffectX@@UAEX_N@Z:PROC ; AudioEffectX::__hasExternalBufferDeprecated
EXTRN	?__setOutputSamplerateDeprecated@AudioEffectX@@UAEXM@Z:PROC ; AudioEffectX::__setOutputSamplerateDeprecated
EXTRN	?__getInputSpeakerArrangementDeprecated@AudioEffectX@@UAEPAUVstSpeakerArrangement@@XZ:PROC ; AudioEffectX::__getInputSpeakerArrangementDeprecated
EXTRN	?__getOutputSpeakerArrangementDeprecated@AudioEffectX@@UAEPAUVstSpeakerArrangement@@XZ:PROC ; AudioEffectX::__getOutputSpeakerArrangementDeprecated
EXTRN	?__openWindowDeprecated@AudioEffectX@@UAEPAXPAU__VstWindowDeprecated@@@Z:PROC ; AudioEffectX::__openWindowDeprecated
EXTRN	?__closeWindowDeprecated@AudioEffectX@@UAE_NPAU__VstWindowDeprecated@@@Z:PROC ; AudioEffectX::__closeWindowDeprecated
EXTRN	?__getChunkFileDeprecated@AudioEffectX@@UAE_NPAX@Z:PROC ; AudioEffectX::__getChunkFileDeprecated
EXTRN	??_EMisEfx@@UAEPAXI@Z:PROC			; MisEfx::`vector deleting destructor'
EXTRN	@_RTC_CheckStackVars@8:PROC
EXTRN	__RTC_CheckEsp:PROC
EXTRN	__RTC_InitBase:PROC
EXTRN	__RTC_Shutdown:PROC
EXTRN	___CxxFrameHandler3:PROC
EXTRN	__ftol2_sse:PROC
EXTRN	??_7type_info@@6B@:QWORD			; type_info::`vftable'
EXTRN	__fltused:DWORD
;	COMDAT __real@46947000
CONST	SEGMENT
__real@46947000 DD 046947000r			; 19000
CONST	ENDS
;	COMDAT __real@4684d000
CONST	SEGMENT
__real@4684d000 DD 04684d000r			; 17000
CONST	ENDS
;	COMDAT __real@466a6000
CONST	SEGMENT
__real@466a6000 DD 0466a6000r			; 15000
CONST	ENDS
;	COMDAT __real@44228000
CONST	SEGMENT
__real@44228000 DD 044228000r			; 650
CONST	ENDS
;	COMDAT __real@43fa0000
CONST	SEGMENT
__real@43fa0000 DD 043fa0000r			; 500
CONST	ENDS
;	COMDAT __real@43480000
CONST	SEGMENT
__real@43480000 DD 043480000r			; 200
CONST	ENDS
;	COMDAT __real@42c80000
CONST	SEGMENT
__real@42c80000 DD 042c80000r			; 100
CONST	ENDS
;	COMDAT __real@42a00000
CONST	SEGMENT
__real@42a00000 DD 042a00000r			; 80
CONST	ENDS
;	COMDAT __real@41a00000
CONST	SEGMENT
__real@41a00000 DD 041a00000r			; 20
CONST	ENDS
;	COMDAT __real@41200000
CONST	SEGMENT
__real@41200000 DD 041200000r			; 10
CONST	ENDS
;	COMDAT __real@40d28e0000000000
CONST	SEGMENT
__real@40d28e0000000000 DQ 040d28e0000000000r	; 19000
CONST	ENDS
;	COMDAT __real@40d09a0000000000
CONST	SEGMENT
__real@40d09a0000000000 DQ 040d09a0000000000r	; 17000
CONST	ENDS
;	COMDAT __real@4072c00000000000
CONST	SEGMENT
__real@4072c00000000000 DQ 04072c00000000000r	; 300
CONST	ENDS
;	COMDAT __real@40533333
CONST	SEGMENT
__real@40533333 DD 040533333r			; 3.3
CONST	ENDS
;	COMDAT __real@40400000
CONST	SEGMENT
__real@40400000 DD 040400000r			; 3
CONST	ENDS
;	COMDAT __real@4034000000000000
CONST	SEGMENT
__real@4034000000000000 DQ 04034000000000000r	; 20
CONST	ENDS
;	COMDAT __real@4024000000000000
CONST	SEGMENT
__real@4024000000000000 DQ 04024000000000000r	; 10
CONST	ENDS
;	COMDAT __real@4014000000000000
CONST	SEGMENT
__real@4014000000000000 DQ 04014000000000000r	; 5
CONST	ENDS
;	COMDAT __real@400ccccd
CONST	SEGMENT
__real@400ccccd DD 0400ccccdr			; 2.2
CONST	ENDS
;	COMDAT __real@40000000
CONST	SEGMENT
__real@40000000 DD 040000000r			; 2
CONST	ENDS
;	COMDAT __real@3ff0000000000000
CONST	SEGMENT
__real@3ff0000000000000 DQ 03ff0000000000000r	; 1
CONST	ENDS
;	COMDAT __real@3f800000
CONST	SEGMENT
__real@3f800000 DD 03f800000r			; 1
CONST	ENDS
;	COMDAT __real@3f4ccccd
CONST	SEGMENT
__real@3f4ccccd DD 03f4ccccdr			; 0.8
CONST	ENDS
;	COMDAT __real@3f333333
CONST	SEGMENT
__real@3f333333 DD 03f333333r			; 0.7
CONST	ENDS
;	COMDAT __real@3f266666
CONST	SEGMENT
__real@3f266666 DD 03f266666r			; 0.65
CONST	ENDS
;	COMDAT __real@3f19999a
CONST	SEGMENT
__real@3f19999a DD 03f19999ar			; 0.6
CONST	ENDS
;	COMDAT __real@3f000000
CONST	SEGMENT
__real@3f000000 DD 03f000000r			; 0.5
CONST	ENDS
;	COMDAT __real@3ecccccd
CONST	SEGMENT
__real@3ecccccd DD 03ecccccdr			; 0.4
CONST	ENDS
;	COMDAT __real@3e99999a
CONST	SEGMENT
__real@3e99999a DD 03e99999ar			; 0.3
CONST	ENDS
;	COMDAT __real@3e4ccccd
CONST	SEGMENT
__real@3e4ccccd DD 03e4ccccdr			; 0.2
CONST	ENDS
;	COMDAT __real@3dcccccd
CONST	SEGMENT
__real@3dcccccd DD 03dcccccdr			; 0.1
CONST	ENDS
;	COMDAT __real@00000000
CONST	SEGMENT
__real@00000000 DD 000000000r			; 0
CONST	ENDS
;	COMDAT rtc$TMZ
rtc$TMZ	SEGMENT
__RTC_Shutdown.rtc$TMZ DD FLAT:__RTC_Shutdown
rtc$TMZ	ENDS
;	COMDAT rtc$IMZ
rtc$IMZ	SEGMENT
__RTC_InitBase.rtc$IMZ DD FLAT:__RTC_InitBase
rtc$IMZ	ENDS
;	COMDAT ??_R2AudioEffect@@8
rdata$r	SEGMENT
??_R2AudioEffect@@8 DD FLAT:??_R1A@?0A@EA@AudioEffect@@8 ; AudioEffect::`RTTI Base Class Array'
rdata$r	ENDS
;	COMDAT ??_R3AudioEffect@@8
rdata$r	SEGMENT
??_R3AudioEffect@@8 DD 00H				; AudioEffect::`RTTI Class Hierarchy Descriptor'
	DD	00H
	DD	01H
	DD	FLAT:??_R2AudioEffect@@8
rdata$r	ENDS
;	COMDAT ??_R0?AVAudioEffect@@@8
data$rs	SEGMENT
??_R0?AVAudioEffect@@@8 DD FLAT:??_7type_info@@6B@	; AudioEffect `RTTI Type Descriptor'
	DD	00H
	DB	'.?AVAudioEffect@@', 00H
data$rs	ENDS
;	COMDAT ??_R1A@?0A@EA@AudioEffect@@8
rdata$r	SEGMENT
??_R1A@?0A@EA@AudioEffect@@8 DD FLAT:??_R0?AVAudioEffect@@@8 ; AudioEffect::`RTTI Base Class Descriptor at (0,-1,0,64)'
	DD	00H
	DD	00H
	DD	0ffffffffH
	DD	00H
	DD	040H
	DD	FLAT:??_R3AudioEffect@@8
rdata$r	ENDS
;	COMDAT ??_R2AudioEffectX@@8
rdata$r	SEGMENT
??_R2AudioEffectX@@8 DD FLAT:??_R1A@?0A@EA@AudioEffectX@@8 ; AudioEffectX::`RTTI Base Class Array'
	DD	FLAT:??_R1A@?0A@EA@AudioEffect@@8
rdata$r	ENDS
;	COMDAT ??_R3AudioEffectX@@8
rdata$r	SEGMENT
??_R3AudioEffectX@@8 DD 00H				; AudioEffectX::`RTTI Class Hierarchy Descriptor'
	DD	00H
	DD	02H
	DD	FLAT:??_R2AudioEffectX@@8
rdata$r	ENDS
;	COMDAT ??_R0?AVAudioEffectX@@@8
data$rs	SEGMENT
??_R0?AVAudioEffectX@@@8 DD FLAT:??_7type_info@@6B@	; AudioEffectX `RTTI Type Descriptor'
	DD	00H
	DB	'.?AVAudioEffectX@@', 00H
data$rs	ENDS
;	COMDAT ??_R1A@?0A@EA@AudioEffectX@@8
rdata$r	SEGMENT
??_R1A@?0A@EA@AudioEffectX@@8 DD FLAT:??_R0?AVAudioEffectX@@@8 ; AudioEffectX::`RTTI Base Class Descriptor at (0,-1,0,64)'
	DD	01H
	DD	00H
	DD	0ffffffffH
	DD	00H
	DD	040H
	DD	FLAT:??_R3AudioEffectX@@8
rdata$r	ENDS
;	COMDAT ??_R1A@?0A@EA@MisEfx@@8
rdata$r	SEGMENT
??_R1A@?0A@EA@MisEfx@@8 DD FLAT:??_R0?AVMisEfx@@@8	; MisEfx::`RTTI Base Class Descriptor at (0,-1,0,64)'
	DD	02H
	DD	00H
	DD	0ffffffffH
	DD	00H
	DD	040H
	DD	FLAT:??_R3MisEfx@@8
rdata$r	ENDS
;	COMDAT ??_R2MisEfx@@8
rdata$r	SEGMENT
??_R2MisEfx@@8 DD FLAT:??_R1A@?0A@EA@MisEfx@@8		; MisEfx::`RTTI Base Class Array'
	DD	FLAT:??_R1A@?0A@EA@AudioEffectX@@8
	DD	FLAT:??_R1A@?0A@EA@AudioEffect@@8
rdata$r	ENDS
;	COMDAT ??_R3MisEfx@@8
rdata$r	SEGMENT
??_R3MisEfx@@8 DD 00H					; MisEfx::`RTTI Class Hierarchy Descriptor'
	DD	00H
	DD	03H
	DD	FLAT:??_R2MisEfx@@8
rdata$r	ENDS
;	COMDAT ??_R0?AVMisEfx@@@8
data$rs	SEGMENT
??_R0?AVMisEfx@@@8 DD FLAT:??_7type_info@@6B@		; MisEfx `RTTI Type Descriptor'
	DD	00H
	DB	'.?AVMisEfx@@', 00H
data$rs	ENDS
;	COMDAT ??_R4MisEfx@@6B@
rdata$r	SEGMENT
??_R4MisEfx@@6B@ DD 00H					; MisEfx::`RTTI Complete Object Locator'
	DD	00H
	DD	00H
	DD	FLAT:??_R0?AVMisEfx@@@8
	DD	FLAT:??_R3MisEfx@@8
rdata$r	ENDS
;	COMDAT ??_7MisEfx@@6B@
CONST	SEGMENT
??_7MisEfx@@6B@ DD FLAT:??_R4MisEfx@@6B@		; MisEfx::`vftable'
	DD	FLAT:??_EMisEfx@@UAEPAXI@Z
	DD	FLAT:?dispatcher@AudioEffectX@@UAEHHHHPAXM@Z
	DD	FLAT:?open@AudioEffect@@UAEXXZ
	DD	FLAT:?close@AudioEffect@@UAEXXZ
	DD	FLAT:?suspend@AudioEffect@@UAEXXZ
	DD	FLAT:?resume@AudioEffectX@@UAEXXZ
	DD	FLAT:?setSampleRate@MisEfx@@UAEXM@Z
	DD	FLAT:?setBlockSize@AudioEffect@@UAEXH@Z
	DD	FLAT:?processReplacing@MisEfx@@UAEXPAPAM0H@Z
	DD	FLAT:?processDoubleReplacing@AudioEffect@@UAEXPAPAN0H@Z
	DD	FLAT:?setParameter@MisEfx@@UAEXHM@Z
	DD	FLAT:?getParameter@MisEfx@@UAEMH@Z
	DD	FLAT:?setParameterAutomated@AudioEffect@@UAEXHM@Z
	DD	FLAT:?getProgram@AudioEffect@@UAEHXZ
	DD	FLAT:?setProgram@MisEfx@@UAEXH@Z
	DD	FLAT:?setProgramName@AudioEffect@@UAEXPAD@Z
	DD	FLAT:?getProgramName@MisEfx@@UAEXPAD@Z
	DD	FLAT:?getParameterLabel@MisEfx@@UAEXHPAD@Z
	DD	FLAT:?getParameterDisplay@MisEfx@@UAEXHPAD@Z
	DD	FLAT:?getParameterName@MisEfx@@UAEXHPAD@Z
	DD	FLAT:?getChunk@AudioEffect@@UAEHPAPAX_N@Z
	DD	FLAT:?setChunk@AudioEffect@@UAEHPAXH_N@Z
	DD	FLAT:?setUniqueID@AudioEffect@@UAEXH@Z
	DD	FLAT:?setNumInputs@AudioEffect@@UAEXH@Z
	DD	FLAT:?setNumOutputs@AudioEffect@@UAEXH@Z
	DD	FLAT:?canProcessReplacing@AudioEffect@@UAEX_N@Z
	DD	FLAT:?canDoubleReplacing@AudioEffect@@UAEX_N@Z
	DD	FLAT:?programsAreChunks@AudioEffect@@UAEX_N@Z
	DD	FLAT:?setInitialDelay@AudioEffect@@UAEXH@Z
	DD	FLAT:?getEditor@AudioEffect@@UAEPAVAEffEditor@@XZ
	DD	FLAT:?getAeffect@AudioEffect@@UAEPAUAEffect@@XZ
	DD	FLAT:?getSampleRate@AudioEffect@@UAEMXZ
	DD	FLAT:?getBlockSize@AudioEffect@@UAEHXZ
	DD	FLAT:?getMasterVersion@AudioEffect@@UAEHXZ
	DD	FLAT:?getCurrentUniqueId@AudioEffect@@UAEHXZ
	DD	FLAT:?masterIdle@AudioEffect@@UAEXXZ
	DD	FLAT:?dB2string@AudioEffect@@UAEXMPADH@Z
	DD	FLAT:?Hz2string@AudioEffect@@UAEXMPADH@Z
	DD	FLAT:?ms2string@AudioEffect@@UAEXMPADH@Z
	DD	FLAT:?float2string@AudioEffect@@UAEXMPADH@Z
	DD	FLAT:?int2string@AudioEffect@@UAEXHPADH@Z
	DD	FLAT:?__processDeprecated@AudioEffect@@UAEXPAPAM0H@Z
	DD	FLAT:?__getVuDeprecated@AudioEffect@@UAEMXZ
	DD	FLAT:?__hasVuDeprecated@AudioEffect@@UAEX_N@Z
	DD	FLAT:?__hasClipDeprecated@AudioEffect@@UAEX_N@Z
	DD	FLAT:?__canMonoDeprecated@AudioEffect@@UAEX_N@Z
	DD	FLAT:?__setRealtimeQualitiesDeprecated@AudioEffect@@UAEXH@Z
	DD	FLAT:?__setOfflineQualitiesDeprecated@AudioEffect@@UAEXH@Z
	DD	FLAT:?__isInputConnectedDeprecated@AudioEffect@@UAE_NH@Z
	DD	FLAT:?__isOutputConnectedDeprecated@AudioEffect@@UAE_NH@Z
	DD	FLAT:?canParameterBeAutomated@AudioEffectX@@UAE_NH@Z
	DD	FLAT:?string2parameter@AudioEffectX@@UAE_NHPAD@Z
	DD	FLAT:?getParameterProperties@AudioEffectX@@UAE_NHPAUVstParameterProperties@@@Z
	DD	FLAT:?beginEdit@AudioEffectX@@UAE_NH@Z
	DD	FLAT:?endEdit@AudioEffectX@@UAE_NH@Z
	DD	FLAT:?getProgramNameIndexed@MisEfx@@UAE_NHHPAD@Z
	DD	FLAT:?beginSetProgram@AudioEffectX@@UAE_NXZ
	DD	FLAT:?endSetProgram@AudioEffectX@@UAE_NXZ
	DD	FLAT:?beginLoadBank@AudioEffectX@@UAEHPAUVstPatchChunkInfo@@@Z
	DD	FLAT:?beginLoadProgram@AudioEffectX@@UAEHPAUVstPatchChunkInfo@@@Z
	DD	FLAT:?ioChanged@AudioEffectX@@UAE_NXZ
	DD	FLAT:?updateSampleRate@AudioEffectX@@UAENXZ
	DD	FLAT:?updateBlockSize@AudioEffectX@@UAEHXZ
	DD	FLAT:?getInputLatency@AudioEffectX@@UAEHXZ
	DD	FLAT:?getOutputLatency@AudioEffectX@@UAEHXZ
	DD	FLAT:?getInputProperties@AudioEffectX@@UAE_NHPAUVstPinProperties@@@Z
	DD	FLAT:?getOutputProperties@AudioEffectX@@UAE_NHPAUVstPinProperties@@@Z
	DD	FLAT:?setSpeakerArrangement@AudioEffectX@@UAE_NPAUVstSpeakerArrangement@@0@Z
	DD	FLAT:?getSpeakerArrangement@AudioEffectX@@UAE_NPAPAUVstSpeakerArrangement@@0@Z
	DD	FLAT:?setBypass@AudioEffectX@@UAE_N_N@Z
	DD	FLAT:?setPanLaw@AudioEffectX@@UAE_NHM@Z
	DD	FLAT:?setProcessPrecision@AudioEffectX@@UAE_NH@Z
	DD	FLAT:?getNumMidiInputChannels@AudioEffectX@@UAEHXZ
	DD	FLAT:?getNumMidiOutputChannels@AudioEffectX@@UAEHXZ
	DD	FLAT:?getTimeInfo@AudioEffectX@@UAEPAUVstTimeInfo@@H@Z
	DD	FLAT:?getCurrentProcessLevel@AudioEffectX@@UAEHXZ
	DD	FLAT:?getAutomationState@AudioEffectX@@UAEHXZ
	DD	FLAT:?processEvents@AudioEffectX@@UAEHPAUVstEvents@@@Z
	DD	FLAT:?startProcess@AudioEffectX@@UAEHXZ
	DD	FLAT:?stopProcess@AudioEffectX@@UAEHXZ
	DD	FLAT:?processVariableIo@AudioEffectX@@UAE_NPAUVstVariableIo@@@Z
	DD	FLAT:?setTotalSampleToProcess@AudioEffectX@@UAEHH@Z
	DD	FLAT:?getHostVendorString@AudioEffectX@@UAE_NPAD@Z
	DD	FLAT:?getHostProductString@AudioEffectX@@UAE_NPAD@Z
	DD	FLAT:?getHostVendorVersion@AudioEffectX@@UAEHXZ
	DD	FLAT:?hostVendorSpecific@AudioEffectX@@UAEHHHPAXM@Z
	DD	FLAT:?canHostDo@AudioEffectX@@UAEHPAD@Z
	DD	FLAT:?getHostLanguage@AudioEffectX@@UAEHXZ
	DD	FLAT:?isSynth@AudioEffectX@@UAEX_N@Z
	DD	FLAT:?noTail@AudioEffectX@@UAEX_N@Z
	DD	FLAT:?getGetTailSize@AudioEffectX@@UAEHXZ
	DD	FLAT:?getDirectory@AudioEffectX@@UAEPAXXZ
	DD	FLAT:?getEffectName@MisEfx@@UAE_NPAD@Z
	DD	FLAT:?getVendorString@MisEfx@@UAE_NPAD@Z
	DD	FLAT:?getProductString@AudioEffectX@@UAE_NPAD@Z
	DD	FLAT:?getVendorVersion@AudioEffectX@@UAEHXZ
	DD	FLAT:?vendorSpecific@AudioEffectX@@UAEHHHPAXM@Z
	DD	FLAT:?canDo@AudioEffectX@@UAEHPAD@Z
	DD	FLAT:?getVstVersion@AudioEffectX@@UAEHXZ
	DD	FLAT:?getPlugCategory@AudioEffectX@@UAE?AW4VstPlugCategory@@XZ
	DD	FLAT:?getMidiProgramName@AudioEffectX@@UAEHHPAUMidiProgramName@@@Z
	DD	FLAT:?getCurrentMidiProgram@AudioEffectX@@UAEHHPAUMidiProgramName@@@Z
	DD	FLAT:?getMidiProgramCategory@AudioEffectX@@UAEHHPAUMidiProgramCategory@@@Z
	DD	FLAT:?hasMidiProgramsChanged@AudioEffectX@@UAE_NH@Z
	DD	FLAT:?getMidiKeyName@AudioEffectX@@UAE_NHPAUMidiKeyName@@@Z
	DD	FLAT:?updateDisplay@AudioEffectX@@UAE_NXZ
	DD	FLAT:?sizeWindow@AudioEffectX@@UAE_NHH@Z
	DD	FLAT:?openFileSelector@AudioEffectX@@UAE_NPAUVstFileSelect@@@Z
	DD	FLAT:?closeFileSelector@AudioEffectX@@UAE_NPAUVstFileSelect@@@Z
	DD	FLAT:?getNextShellPlugin@AudioEffectX@@UAEHPAD@Z
	DD	FLAT:?allocateArrangement@AudioEffectX@@UAE_NPAPAUVstSpeakerArrangement@@H@Z
	DD	FLAT:?deallocateArrangement@AudioEffectX@@UAE_NPAPAUVstSpeakerArrangement@@@Z
	DD	FLAT:?copySpeaker@AudioEffectX@@UAE_NPAUVstSpeakerProperties@@0@Z
	DD	FLAT:?matchArrangement@AudioEffectX@@UAE_NPAPAUVstSpeakerArrangement@@PAU2@@Z
	DD	FLAT:?offlineRead@AudioEffectX@@UAE_NPAUVstOfflineTask@@W4VstOfflineOption@@_N@Z
	DD	FLAT:?offlineWrite@AudioEffectX@@UAE_NPAUVstOfflineTask@@W4VstOfflineOption@@@Z
	DD	FLAT:?offlineStart@AudioEffectX@@UAE_NPAUVstAudioFile@@HH@Z
	DD	FLAT:?offlineGetCurrentPass@AudioEffectX@@UAEHXZ
	DD	FLAT:?offlineGetCurrentMetaPass@AudioEffectX@@UAEHXZ
	DD	FLAT:?offlineNotify@AudioEffectX@@UAE_NPAUVstAudioFile@@H_N@Z
	DD	FLAT:?offlinePrepare@AudioEffectX@@UAE_NPAUVstOfflineTask@@H@Z
	DD	FLAT:?offlineRun@AudioEffectX@@UAE_NPAUVstOfflineTask@@H@Z
	DD	FLAT:?offlineGetNumPasses@AudioEffectX@@UAEHXZ
	DD	FLAT:?offlineGetNumMetaPasses@AudioEffectX@@UAEHXZ
	DD	FLAT:?__wantEventsDeprecated@AudioEffectX@@UAEXH@Z
	DD	FLAT:?__tempoAtDeprecated@AudioEffectX@@UAEHH@Z
	DD	FLAT:?__getNumAutomatableParametersDeprecated@AudioEffectX@@UAEHXZ
	DD	FLAT:?__getParameterQuantizationDeprecated@AudioEffectX@@UAEHXZ
	DD	FLAT:?__getNumCategoriesDeprecated@AudioEffectX@@UAEHXZ
	DD	FLAT:?__copyProgramDeprecated@AudioEffectX@@UAE_NH@Z
	DD	FLAT:?__needIdleDeprecated@AudioEffectX@@UAE_NXZ
	DD	FLAT:?__getPreviousPlugDeprecated@AudioEffectX@@UAEPAUAEffect@@H@Z
	DD	FLAT:?__getNextPlugDeprecated@AudioEffectX@@UAEPAUAEffect@@H@Z
	DD	FLAT:?__inputConnectedDeprecated@AudioEffectX@@UAEXH_N@Z
	DD	FLAT:?__outputConnectedDeprecated@AudioEffectX@@UAEXH_N@Z
	DD	FLAT:?__willProcessReplacingDeprecated@AudioEffectX@@UAEHXZ
	DD	FLAT:?__wantAsyncOperationDeprecated@AudioEffectX@@UAEX_N@Z
	DD	FLAT:?__hasExternalBufferDeprecated@AudioEffectX@@UAEX_N@Z
	DD	FLAT:?__reportCurrentPositionDeprecated@AudioEffectX@@UAEHXZ
	DD	FLAT:?__reportDestinationBufferDeprecated@AudioEffectX@@UAEPAMXZ
	DD	FLAT:?__setOutputSamplerateDeprecated@AudioEffectX@@UAEXM@Z
	DD	FLAT:?__getInputSpeakerArrangementDeprecated@AudioEffectX@@UAEPAUVstSpeakerArrangement@@XZ
	DD	FLAT:?__getOutputSpeakerArrangementDeprecated@AudioEffectX@@UAEPAUVstSpeakerArrangement@@XZ
	DD	FLAT:?__openWindowDeprecated@AudioEffectX@@UAEPAXPAU__VstWindowDeprecated@@@Z
	DD	FLAT:?__closeWindowDeprecated@AudioEffectX@@UAE_NPAU__VstWindowDeprecated@@@Z
	DD	FLAT:?__setBlockSizeAndSampleRateDeprecated@AudioEffectX@@UAEXHM@Z
	DD	FLAT:?__getErrorTextDeprecated@AudioEffectX@@UAE_NPAD@Z
	DD	FLAT:?__getIconDeprecated@AudioEffectX@@UAEPAXXZ
	DD	FLAT:?__setViewPositionDeprecated@AudioEffectX@@UAE_NHH@Z
	DD	FLAT:?__fxIdleDeprecated@AudioEffectX@@UAEHXZ
	DD	FLAT:?__keysRequiredDeprecated@AudioEffectX@@UAE_NXZ
	DD	FLAT:?__getChunkFileDeprecated@AudioEffectX@@UAE_NPAX@Z
CONST	ENDS
xdata$x	SEGMENT
__unwindtable$?createEffectInstance@@YAPAVAudioEffect@@P6AHPAUAEffect@@HHHPAXM@Z@Z DD 0ffffffffH
	DD	FLAT:__unwindfunclet$?createEffectInstance@@YAPAVAudioEffect@@P6AHPAUAEffect@@HHHPAXM@Z@Z$0
__unwindtable$??0MisEfx@@QAE@P6AHPAUAEffect@@HHHPAXM@Z@Z DD 0ffffffffH
	DD	FLAT:__unwindfunclet$??0MisEfx@@QAE@P6AHPAUAEffect@@HHHPAXM@Z@Z$0
__unwindtable$?InitPlugin@MisEfx@@AAEXXZ DD 0ffffffffH
	DD	FLAT:__unwindfunclet$?InitPlugin@MisEfx@@AAEXXZ$0
	DD	0ffffffffH
	DD	FLAT:__unwindfunclet$?InitPlugin@MisEfx@@AAEXXZ$1
	DD	0ffffffffH
	DD	FLAT:__unwindfunclet$?InitPlugin@MisEfx@@AAEXXZ$2
	DD	0ffffffffH
	DD	FLAT:__unwindfunclet$?InitPlugin@MisEfx@@AAEXXZ$3
__ehfuncinfo$?createEffectInstance@@YAPAVAudioEffect@@P6AHPAUAEffect@@HHHPAXM@Z@Z DD 019930522H
	DD	01H
	DD	FLAT:__unwindtable$?createEffectInstance@@YAPAVAudioEffect@@P6AHPAUAEffect@@HHHPAXM@Z@Z
	DD	2 DUP(00H)
	DD	2 DUP(00H)
	DD	00H
	DD	01H
__ehfuncinfo$??0MisEfx@@QAE@P6AHPAUAEffect@@HHHPAXM@Z@Z DD 019930522H
	DD	01H
	DD	FLAT:__unwindtable$??0MisEfx@@QAE@P6AHPAUAEffect@@HHHPAXM@Z@Z
	DD	2 DUP(00H)
	DD	2 DUP(00H)
	DD	00H
	DD	01H
__ehfuncinfo$?InitPlugin@MisEfx@@AAEXXZ DD 019930522H
	DD	04H
	DD	FLAT:__unwindtable$?InitPlugin@MisEfx@@AAEXXZ
	DD	2 DUP(00H)
	DD	2 DUP(00H)
	DD	00H
	DD	01H
xdata$x	ENDS
; Function compile flags: /Odtp /RTCsu
; File E:\FoxSuite\misefx\MisEfx\MisEfx.cpp
_TEXT	SEGMENT
tv79 = -24						; size = 4
$T2 = -20						; size = 4
$T3 = -16						; size = 4
__$EHRec$ = -12						; size = 12
_audioMaster$ = 8					; size = 4
?createEffectInstance@@YAPAVAudioEffect@@P6AHPAUAEffect@@HHHPAXM@Z@Z PROC ; createEffectInstance

; 43   : {

	push	ebp
	mov	ebp, esp
	push	-1
	push	__ehhandler$?createEffectInstance@@YAPAVAudioEffect@@P6AHPAUAEffect@@HHHPAXM@Z@Z
	mov	eax, DWORD PTR fs:0
	push	eax
	mov	DWORD PTR fs:0, esp
	sub	esp, 12					; 0000000cH
	mov	DWORD PTR [ebp-24], -858993460		; ccccccccH
	mov	DWORD PTR [ebp-20], -858993460		; ccccccccH
	mov	DWORD PTR [ebp-16], -858993460		; ccccccccH

; 44   :     return new MisEfx(audioMaster);

	push	256					; 00000100H
	call	??2@YAPAXI@Z				; operator new
	add	esp, 4
	mov	DWORD PTR $T2[ebp], eax
	mov	DWORD PTR __$EHRec$[ebp+8], 0
	cmp	DWORD PTR $T2[ebp], 0
	je	SHORT $LN3@createEffe
	mov	eax, DWORD PTR _audioMaster$[ebp]
	push	eax
	mov	ecx, DWORD PTR $T2[ebp]
	call	??0MisEfx@@QAE@P6AHPAUAEffect@@HHHPAXM@Z@Z ; MisEfx::MisEfx
	mov	DWORD PTR tv79[ebp], eax
	jmp	SHORT $LN4@createEffe
$LN3@createEffe:
	mov	DWORD PTR tv79[ebp], 0
$LN4@createEffe:
	mov	ecx, DWORD PTR tv79[ebp]
	mov	DWORD PTR $T3[ebp], ecx
	mov	DWORD PTR __$EHRec$[ebp+8], -1
	mov	eax, DWORD PTR $T3[ebp]

; 45   : }

	mov	ecx, DWORD PTR __$EHRec$[ebp]
	mov	DWORD PTR fs:0, ecx
	add	esp, 24					; 00000018H
	cmp	ebp, esp
	call	__RTC_CheckEsp
	mov	esp, ebp
	pop	ebp
	ret	0
_TEXT	ENDS
text$x	SEGMENT
__unwindfunclet$?createEffectInstance@@YAPAVAudioEffect@@P6AHPAUAEffect@@HHHPAXM@Z@Z$0:
	push	256					; 00000100H
	mov	eax, DWORD PTR $T2[ebp]
	push	eax
	call	??3@YAXPAXI@Z				; operator delete
	add	esp, 8
	ret	0
	int	3
	int	3
	int	3
	int	3
	int	3
__ehhandler$?createEffectInstance@@YAPAVAudioEffect@@P6AHPAUAEffect@@HHHPAXM@Z@Z:
	npad	1
	npad	1
	mov	eax, OFFSET __ehfuncinfo$?createEffectInstance@@YAPAVAudioEffect@@P6AHPAUAEffect@@HHHPAXM@Z@Z
	jmp	___CxxFrameHandler3
text$x	ENDS
?createEffectInstance@@YAPAVAudioEffect@@P6AHPAUAEffect@@HHHPAXM@Z@Z ENDP ; createEffectInstance
; Function compile flags: /Odtp /RTCsu
;	COMDAT ??_GMisEfx@@UAEPAXI@Z
_TEXT	SEGMENT
_this$ = -4						; size = 4
___flags$ = 8						; size = 4
??_GMisEfx@@UAEPAXI@Z PROC				; MisEfx::`scalar deleting destructor', COMDAT
; _this$ = ecx
	push	ebp
	mov	ebp, esp
	push	ecx
	mov	DWORD PTR [ebp-4], -858993460		; ccccccccH
	mov	DWORD PTR _this$[ebp], ecx
	mov	ecx, DWORD PTR _this$[ebp]
	call	??1MisEfx@@UAE@XZ			; MisEfx::~MisEfx
	mov	eax, DWORD PTR ___flags$[ebp]
	and	eax, 1
	je	SHORT $LN2@scalar
	push	256					; 00000100H
	mov	ecx, DWORD PTR _this$[ebp]
	push	ecx
	call	??3@YAXPAXI@Z				; operator delete
	add	esp, 8
$LN2@scalar:
	mov	eax, DWORD PTR _this$[ebp]
	add	esp, 4
	cmp	ebp, esp
	call	__RTC_CheckEsp
	mov	esp, ebp
	pop	ebp
	ret	4
??_GMisEfx@@UAEPAXI@Z ENDP				; MisEfx::`scalar deleting destructor'
_TEXT	ENDS
; Function compile flags: /Odtp /RTCsu
; File E:\FoxSuite\misefx\MisEfx\MisEfx.cpp
_TEXT	SEGMENT
_this$ = -4						; size = 4
_category$ = 8						; size = 4
_index$ = 12						; size = 4
_text$ = 16						; size = 4
?getProgramNameIndexed@MisEfx@@UAE_NHHPAD@Z PROC	; MisEfx::getProgramNameIndexed
; _this$ = ecx

; 577  : {

	push	ebp
	mov	ebp, esp
	push	ecx
	mov	DWORD PTR [ebp-4], -858993460		; ccccccccH
	mov	DWORD PTR _this$[ebp], ecx

; 578  :     if (index < NUM_PRESETS)

	cmp	DWORD PTR _index$[ebp], 5
	jge	SHORT $LN2@getProgram

; 579  :     {
; 580  :         strcpy(text, rev_presets[index].name);

	mov	eax, DWORD PTR _index$[ebp]
	shl	eax, 6
	mov	ecx, DWORD PTR _this$[ebp]
	mov	edx, DWORD PTR [ecx+192]
	lea	eax, DWORD PTR [edx+eax+40]
	push	eax
	mov	ecx, DWORD PTR _text$[ebp]
	push	ecx
	call	_strcpy
	add	esp, 8

; 581  :         return true;

	mov	al, 1
	jmp	SHORT $LN1@getProgram
$LN2@getProgram:

; 582  :     }
; 583  :     return false;

	xor	al, al
$LN1@getProgram:

; 584  : }

	add	esp, 4
	cmp	ebp, esp
	call	__RTC_CheckEsp
	mov	esp, ebp
	pop	ebp
	ret	12					; 0000000cH
?getProgramNameIndexed@MisEfx@@UAE_NHHPAD@Z ENDP	; MisEfx::getProgramNameIndexed
_TEXT	ENDS
; Function compile flags: /Odtp /RTCsu
; File E:\FoxSuite\misefx\MisEfx\MisEfx.cpp
_TEXT	SEGMENT
_this$ = -4						; size = 4
_name$ = 8						; size = 4
?getProgramName@MisEfx@@UAEXPAD@Z PROC			; MisEfx::getProgramName
; _this$ = ecx

; 569  : {

	push	ebp
	mov	ebp, esp
	push	ecx
	mov	DWORD PTR [ebp-4], -858993460		; ccccccccH
	mov	DWORD PTR _this$[ebp], ecx

; 570  :     strcpy(name, rev_presets[curProgram].name);

	mov	eax, DWORD PTR _this$[ebp]
	mov	ecx, DWORD PTR [eax+28]
	shl	ecx, 6
	mov	edx, DWORD PTR _this$[ebp]
	mov	eax, DWORD PTR [edx+192]
	lea	ecx, DWORD PTR [eax+ecx+40]
	push	ecx
	mov	edx, DWORD PTR _name$[ebp]
	push	edx
	call	_strcpy
	add	esp, 8

; 571  : }

	add	esp, 4
	cmp	ebp, esp
	call	__RTC_CheckEsp
	mov	esp, ebp
	pop	ebp
	ret	4
?getProgramName@MisEfx@@UAEXPAD@Z ENDP			; MisEfx::getProgramName
_TEXT	ENDS
; Function compile flags: /Odtp /RTCsu
; File E:\FoxSuite\misefx\MisEfx\MisEfx.cpp
_TEXT	SEGMENT
tv331 = -16						; size = 4
tv310 = -12						; size = 4
_cp$ = -8						; size = 4
_this$ = -4						; size = 4
_program$ = 8						; size = 4
?setProgram@MisEfx@@UAEXH@Z PROC			; MisEfx::setProgram
; _this$ = ecx

; 545  : {

	push	ebp
	mov	ebp, esp
	sub	esp, 16					; 00000010H
	push	esi
	mov	eax, -858993460				; ccccccccH
	mov	DWORD PTR [ebp-16], eax
	mov	DWORD PTR [ebp-12], eax
	mov	DWORD PTR [ebp-8], eax
	mov	DWORD PTR [ebp-4], eax
	mov	DWORD PTR _this$[ebp], ecx

; 546  :     // Call the current implementation of "setProgram"
; 547  :     AudioEffect::setProgram(program);

	mov	eax, DWORD PTR _program$[ebp]
	push	eax
	mov	ecx, DWORD PTR _this$[ebp]
	call	?setProgram@AudioEffect@@UAEXH@Z	; AudioEffect::setProgram

; 548  : 
; 549  :     // Create an instante of ReverbPresets with current preset
; 550  :     ReverbPresets* cp = &rev_presets[curProgram];

	mov	ecx, DWORD PTR _this$[ebp]
	mov	edx, DWORD PTR [ecx+28]
	shl	edx, 6
	mov	eax, DWORD PTR _this$[ebp]
	add	edx, DWORD PTR [eax+192]
	mov	DWORD PTR _cp$[ebp], edx

; 551  : 
; 552  :     // Set each parameter
; 553  :     setParameter(Param_wet, cp->rev_wet);

	mov	esi, esp
	mov	ecx, DWORD PTR _cp$[ebp]
	push	ecx
	movss	xmm0, DWORD PTR [ecx]
	movss	DWORD PTR [esp], xmm0
	push	0
	mov	edx, DWORD PTR _this$[ebp]
	mov	eax, DWORD PTR [edx]
	mov	ecx, DWORD PTR _this$[ebp]
	mov	edx, DWORD PTR [eax+40]
	call	edx
	cmp	esi, esp
	call	__RTC_CheckEsp

; 554  :     setParameter(Param_decay, cp->rev_decay / MAX_REVERB_DECAY_IN_SECONDS);

	mov	eax, DWORD PTR _cp$[ebp]
	cvtss2sd xmm0, DWORD PTR [eax+8]
	divsd	xmm0, QWORD PTR __real@4014000000000000
	cvtsd2ss xmm0, xmm0
	mov	esi, esp
	push	ecx
	movss	DWORD PTR [esp], xmm0
	push	1
	mov	ecx, DWORD PTR _this$[ebp]
	mov	edx, DWORD PTR [ecx]
	mov	ecx, DWORD PTR _this$[ebp]
	mov	eax, DWORD PTR [edx+40]
	call	eax
	cmp	esi, esp
	call	__RTC_CheckEsp

; 555  :     setParameter(Param_damping, cp->rev_damping);

	mov	esi, esp
	mov	ecx, DWORD PTR _cp$[ebp]
	push	ecx
	movss	xmm0, DWORD PTR [ecx+12]
	movss	DWORD PTR [esp], xmm0
	push	3
	mov	edx, DWORD PTR _this$[ebp]
	mov	eax, DWORD PTR [edx]
	mov	ecx, DWORD PTR _this$[ebp]
	mov	edx, DWORD PTR [eax+40]
	call	edx
	cmp	esi, esp
	call	__RTC_CheckEsp

; 556  :     setParameter(Param_smearing, cp->rev_smearing);

	mov	esi, esp
	mov	eax, DWORD PTR _cp$[ebp]
	push	ecx
	movss	xmm0, DWORD PTR [eax+4]
	movss	DWORD PTR [esp], xmm0
	push	5
	mov	ecx, DWORD PTR _this$[ebp]
	mov	edx, DWORD PTR [ecx]
	mov	ecx, DWORD PTR _this$[ebp]
	mov	eax, DWORD PTR [edx+40]
	call	eax
	cmp	esi, esp
	call	__RTC_CheckEsp

; 557  :     setParameter(Param_spread, cp->rev_spread);

	mov	esi, esp
	mov	ecx, DWORD PTR _cp$[ebp]
	push	ecx
	movss	xmm0, DWORD PTR [ecx+36]
	movss	DWORD PTR [esp], xmm0
	push	4
	mov	edx, DWORD PTR _this$[ebp]
	mov	eax, DWORD PTR [edx]
	mov	ecx, DWORD PTR _this$[ebp]
	mov	edx, DWORD PTR [eax+40]
	call	edx
	cmp	esi, esp
	call	__RTC_CheckEsp

; 558  :     setParameter(Param_ModDepth, cp->rev_modDepth);

	mov	esi, esp
	mov	eax, DWORD PTR _cp$[ebp]
	push	ecx
	movss	xmm0, DWORD PTR [eax+32]
	movss	DWORD PTR [esp], xmm0
	push	9
	mov	ecx, DWORD PTR _this$[ebp]
	mov	edx, DWORD PTR [ecx]
	mov	ecx, DWORD PTR _this$[ebp]
	mov	eax, DWORD PTR [edx+40]
	call	eax
	cmp	esi, esp
	call	__RTC_CheckEsp

; 559  :     setParameter(Param_preDelay, cp->rev_preDelay / MAX_PREDELAY_VALUE_IN_MS);

	mov	ecx, DWORD PTR _cp$[ebp]
	cvtss2sd xmm0, DWORD PTR [ecx+24]
	divsd	xmm0, QWORD PTR __real@4072c00000000000
	cvtsd2ss xmm0, xmm0
	mov	esi, esp
	push	ecx
	movss	DWORD PTR [esp], xmm0
	push	2
	mov	edx, DWORD PTR _this$[ebp]
	mov	eax, DWORD PTR [edx]
	mov	ecx, DWORD PTR _this$[ebp]
	mov	edx, DWORD PTR [eax+40]
	call	edx
	cmp	esi, esp
	call	__RTC_CheckEsp

; 560  :     setParameter(Param_lpfFreq, mapValueOutsideRange(log(cp->rev_lpfFreq), MIN_LPF_FREQUENCY_LOG, MAX_LPF_FREQUENCY_LOG));

	mov	eax, DWORD PTR _this$[ebp]
	push	ecx
	movss	xmm0, DWORD PTR [eax+176]
	movss	DWORD PTR [esp], xmm0
	mov	ecx, DWORD PTR _this$[ebp]
	push	ecx
	movss	xmm0, DWORD PTR [ecx+180]
	movss	DWORD PTR [esp], xmm0
	mov	edx, DWORD PTR _cp$[ebp]
	cvtss2sd xmm0, DWORD PTR [edx+16]
	sub	esp, 8
	movsd	QWORD PTR [esp], xmm0
	call	_log
	add	esp, 8
	fstp	DWORD PTR tv310[ebp]
	fld	DWORD PTR tv310[ebp]
	push	ecx
	fstp	DWORD PTR [esp]
	mov	ecx, DWORD PTR _this$[ebp]
	call	?mapValueOutsideRange@MisEfx@@AAEMMMM@Z	; MisEfx::mapValueOutsideRange
	mov	esi, esp
	push	ecx
	fstp	DWORD PTR [esp]
	push	6
	mov	eax, DWORD PTR _this$[ebp]
	mov	edx, DWORD PTR [eax]
	mov	ecx, DWORD PTR _this$[ebp]
	mov	eax, DWORD PTR [edx+40]
	call	eax
	cmp	esi, esp
	call	__RTC_CheckEsp

; 561  :     setParameter(Param_hpfFreq, mapValueOutsideRange(log(cp->rev_hpfFreq), MIN_HPF_FREQUENCY_LOG, MAX_HPF_FREQUENCY_LOG));

	mov	ecx, DWORD PTR _this$[ebp]
	push	ecx
	movss	xmm0, DWORD PTR [ecx+184]
	movss	DWORD PTR [esp], xmm0
	mov	edx, DWORD PTR _this$[ebp]
	push	ecx
	movss	xmm0, DWORD PTR [edx+188]
	movss	DWORD PTR [esp], xmm0
	mov	eax, DWORD PTR _cp$[ebp]
	cvtss2sd xmm0, DWORD PTR [eax+20]
	sub	esp, 8
	movsd	QWORD PTR [esp], xmm0
	call	_log
	add	esp, 8
	fstp	DWORD PTR tv331[ebp]
	fld	DWORD PTR tv331[ebp]
	push	ecx
	fstp	DWORD PTR [esp]
	mov	ecx, DWORD PTR _this$[ebp]
	call	?mapValueOutsideRange@MisEfx@@AAEMMMM@Z	; MisEfx::mapValueOutsideRange
	mov	esi, esp
	push	ecx
	fstp	DWORD PTR [esp]
	push	7
	mov	ecx, DWORD PTR _this$[ebp]
	mov	edx, DWORD PTR [ecx]
	mov	ecx, DWORD PTR _this$[ebp]
	mov	eax, DWORD PTR [edx+40]
	call	eax
	cmp	esi, esp
	call	__RTC_CheckEsp

; 562  :     setParameter(Param_ModRate, mapValueOutsideRange(cp->rev_modRate, MIN_MOD_RATE_IN_HZ, MAX_MOD_RATE_IN_HZ));

	push	ecx
	movss	xmm0, DWORD PTR __real@41200000
	movss	DWORD PTR [esp], xmm0
	push	ecx
	movss	xmm0, DWORD PTR __real@3dcccccd
	movss	DWORD PTR [esp], xmm0
	mov	ecx, DWORD PTR _cp$[ebp]
	push	ecx
	movss	xmm0, DWORD PTR [ecx+28]
	movss	DWORD PTR [esp], xmm0
	mov	ecx, DWORD PTR _this$[ebp]
	call	?mapValueOutsideRange@MisEfx@@AAEMMMM@Z	; MisEfx::mapValueOutsideRange
	mov	esi, esp
	push	ecx
	fstp	DWORD PTR [esp]
	push	8
	mov	edx, DWORD PTR _this$[ebp]
	mov	eax, DWORD PTR [edx]
	mov	ecx, DWORD PTR _this$[ebp]
	mov	edx, DWORD PTR [eax+40]
	call	edx
	cmp	esi, esp
	call	__RTC_CheckEsp

; 563  : }

	pop	esi
	add	esp, 16					; 00000010H
	cmp	ebp, esp
	call	__RTC_CheckEsp
	mov	esp, ebp
	pop	ebp
	ret	4
?setProgram@MisEfx@@UAEXH@Z ENDP			; MisEfx::setProgram
_TEXT	ENDS
; Function compile flags: /Odtp /RTCsu
; File E:\FoxSuite\misefx\MisEfx\MisEfx.cpp
_TEXT	SEGMENT
_this$ = -4						; size = 4
_sampleRate$ = 8					; size = 4
?setSampleRate@MisEfx@@UAEXM@Z PROC			; MisEfx::setSampleRate
; _this$ = ecx

; 93   : {

	push	ebp
	mov	ebp, esp
	push	ecx
	push	esi
	mov	DWORD PTR [ebp-4], -858993460		; ccccccccH
	mov	DWORD PTR _this$[ebp], ecx

; 94   :     // Call AudioEffect "setSampleRate" method
; 95   :     AudioEffect::setSampleRate(sampleRate);

	push	ecx
	movss	xmm0, DWORD PTR _sampleRate$[ebp]
	movss	DWORD PTR [esp], xmm0
	mov	ecx, DWORD PTR _this$[ebp]
	call	?setSampleRate@AudioEffect@@UAEXM@Z	; AudioEffect::setSampleRate

; 96   : 
; 97   :     // Call setSampleRate on every needed module
; 98   :     Reverb->setSampleRate(sampleRate);

	cvttss2si eax, DWORD PTR _sampleRate$[ebp]
	push	eax
	mov	ecx, DWORD PTR _this$[ebp]
	mov	ecx, DWORD PTR [ecx+236]
	call	?setSampleRate@Freeverb@@QAEXH@Z	; Freeverb::setSampleRate

; 99   :     tremolo->setSampleRate(sampleRate);

	cvttss2si edx, DWORD PTR _sampleRate$[ebp]
	mov	esi, esp
	push	edx
	mov	eax, DWORD PTR _this$[ebp]
	mov	ecx, DWORD PTR [eax+252]
	mov	edx, DWORD PTR _this$[ebp]
	mov	eax, DWORD PTR [ecx]
	mov	ecx, DWORD PTR [edx+252]
	mov	edx, DWORD PTR [eax+4]
	call	edx
	cmp	esi, esp
	call	__RTC_CheckEsp

; 100  :     outputLPF->setSampleRate(sampleRate);

	cvttss2si eax, DWORD PTR _sampleRate$[ebp]
	push	eax
	mov	ecx, DWORD PTR _this$[ebp]
	mov	ecx, DWORD PTR [ecx+244]
	call	?setSampleRate@LPFButterworth@@QAEXH@Z	; LPFButterworth::setSampleRate

; 101  :     outputHPF->setSampleRate(sampleRate);

	cvttss2si edx, DWORD PTR _sampleRate$[ebp]
	push	edx
	mov	eax, DWORD PTR _this$[ebp]
	mov	ecx, DWORD PTR [eax+248]
	call	?setSampleRate@HPFButterworth@@QAEXH@Z	; HPFButterworth::setSampleRate

; 102  : }

	pop	esi
	add	esp, 4
	cmp	ebp, esp
	call	__RTC_CheckEsp
	mov	esp, ebp
	pop	ebp
	ret	4
?setSampleRate@MisEfx@@UAEXM@Z ENDP			; MisEfx::setSampleRate
_TEXT	ENDS
; Function compile flags: /Odtp /RTCsu
; File E:\FoxSuite\misefx\MisEfx\MisEfx.cpp
_TEXT	SEGMENT
tv64 = -8						; size = 4
_this$ = -4						; size = 4
_index$ = 8						; size = 4
_text$ = 12						; size = 4
?getParameterName@MisEfx@@UAEXHPAD@Z PROC		; MisEfx::getParameterName
; _this$ = ecx

; 502  : {

	push	ebp
	mov	ebp, esp
	sub	esp, 8
	mov	DWORD PTR [ebp-8], -858993460		; ccccccccH
	mov	DWORD PTR [ebp-4], -858993460		; ccccccccH
	mov	DWORD PTR _this$[ebp], ecx

; 503  :     switch (index) {

	mov	eax, DWORD PTR _index$[ebp]
	mov	DWORD PTR tv64[ebp], eax
	cmp	DWORD PTR tv64[ebp], 9
	ja	$LN1@getParamet
	mov	ecx, DWORD PTR tv64[ebp]
	jmp	DWORD PTR $LN16@getParamet[ecx*4]
$LN4@getParamet:

; 504  :     case Param_wet:
; 505  :         vst_strncpy(text, "Wet", kVstMaxParamStrLen);

	push	8
	push	OFFSET $SG10746
	mov	edx, DWORD PTR _text$[ebp]
	push	edx
	call	?vst_strncpy@@YAPADPADPBDI@Z		; vst_strncpy
	add	esp, 12					; 0000000cH

; 506  :         break;

	jmp	$LN1@getParamet
$LN5@getParamet:

; 507  :     case Param_decay:
; 508  :         vst_strncpy(text, "Decay", kVstMaxParamStrLen);

	push	8
	push	OFFSET $SG10748
	mov	eax, DWORD PTR _text$[ebp]
	push	eax
	call	?vst_strncpy@@YAPADPADPBDI@Z		; vst_strncpy
	add	esp, 12					; 0000000cH

; 509  :         break;

	jmp	$LN1@getParamet
$LN6@getParamet:

; 510  :     case Param_smearing:
; 511  :         vst_strncpy(text, "Smear", kVstMaxParamStrLen);

	push	8
	push	OFFSET $SG10750
	mov	ecx, DWORD PTR _text$[ebp]
	push	ecx
	call	?vst_strncpy@@YAPADPADPBDI@Z		; vst_strncpy
	add	esp, 12					; 0000000cH

; 512  :         break;

	jmp	$LN1@getParamet
$LN7@getParamet:

; 513  :     case Param_damping:
; 514  :         vst_strncpy(text, "Damp", kVstMaxParamStrLen);

	push	8
	push	OFFSET $SG10752
	mov	edx, DWORD PTR _text$[ebp]
	push	edx
	call	?vst_strncpy@@YAPADPADPBDI@Z		; vst_strncpy
	add	esp, 12					; 0000000cH

; 515  :         break;

	jmp	SHORT $LN1@getParamet
$LN8@getParamet:

; 516  :     case Param_lpfFreq:
; 517  :         vst_strncpy(text, "LPF Freq", kVstMaxParamStrLen);

	push	8
	push	OFFSET $SG10754
	mov	eax, DWORD PTR _text$[ebp]
	push	eax
	call	?vst_strncpy@@YAPADPADPBDI@Z		; vst_strncpy
	add	esp, 12					; 0000000cH

; 518  :         break;

	jmp	SHORT $LN1@getParamet
$LN9@getParamet:

; 519  :     case Param_hpfFreq:
; 520  :         vst_strncpy(text, "HPF Freq", kVstMaxParamStrLen);

	push	8
	push	OFFSET $SG10756
	mov	ecx, DWORD PTR _text$[ebp]
	push	ecx
	call	?vst_strncpy@@YAPADPADPBDI@Z		; vst_strncpy
	add	esp, 12					; 0000000cH

; 521  :         break;

	jmp	SHORT $LN1@getParamet
$LN10@getParamet:

; 522  :     case Param_preDelay:
; 523  :         vst_strncpy(text, "PreDelay", kVstMaxParamStrLen);

	push	8
	push	OFFSET $SG10758
	mov	edx, DWORD PTR _text$[ebp]
	push	edx
	call	?vst_strncpy@@YAPADPADPBDI@Z		; vst_strncpy
	add	esp, 12					; 0000000cH

; 524  :         break;

	jmp	SHORT $LN1@getParamet
$LN11@getParamet:

; 525  :     case Param_ModRate:
; 526  :         vst_strncpy(text, "ModRate", kVstMaxParamStrLen);

	push	8
	push	OFFSET $SG10760
	mov	eax, DWORD PTR _text$[ebp]
	push	eax
	call	?vst_strncpy@@YAPADPADPBDI@Z		; vst_strncpy
	add	esp, 12					; 0000000cH

; 527  :         break;

	jmp	SHORT $LN1@getParamet
$LN12@getParamet:

; 528  :     case Param_ModDepth:
; 529  :         vst_strncpy(text, "ModDepth", kVstMaxParamStrLen);

	push	8
	push	OFFSET $SG10762
	mov	ecx, DWORD PTR _text$[ebp]
	push	ecx
	call	?vst_strncpy@@YAPADPADPBDI@Z		; vst_strncpy
	add	esp, 12					; 0000000cH

; 530  :         break;

	jmp	SHORT $LN1@getParamet
$LN13@getParamet:

; 531  :     case Param_spread:
; 532  :         vst_strncpy(text, "Spread", kVstMaxParamStrLen);

	push	8
	push	OFFSET $SG10764
	mov	edx, DWORD PTR _text$[ebp]
	push	edx
	call	?vst_strncpy@@YAPADPADPBDI@Z		; vst_strncpy
	add	esp, 12					; 0000000cH
$LN1@getParamet:

; 533  :         break;
; 534  :     default:
; 535  :         break;
; 536  :     }
; 537  : }

	add	esp, 8
	cmp	ebp, esp
	call	__RTC_CheckEsp
	mov	esp, ebp
	pop	ebp
	ret	8
	npad	2
$LN16@getParamet:
	DD	$LN4@getParamet
	DD	$LN5@getParamet
	DD	$LN10@getParamet
	DD	$LN7@getParamet
	DD	$LN13@getParamet
	DD	$LN6@getParamet
	DD	$LN8@getParamet
	DD	$LN9@getParamet
	DD	$LN11@getParamet
	DD	$LN12@getParamet
?getParameterName@MisEfx@@UAEXHPAD@Z ENDP		; MisEfx::getParameterName
_TEXT	ENDS
; Function compile flags: /Odtp /RTCsu
; File E:\FoxSuite\misefx\MisEfx\MisEfx.cpp
_TEXT	SEGMENT
tv64 = -8						; size = 4
_this$ = -4						; size = 4
_index$ = 8						; size = 4
_text$ = 12						; size = 4
?getParameterDisplay@MisEfx@@UAEXHPAD@Z PROC		; MisEfx::getParameterDisplay
; _this$ = ecx

; 461  : {

	push	ebp
	mov	ebp, esp
	sub	esp, 8
	push	esi
	mov	DWORD PTR [ebp-8], -858993460		; ccccccccH
	mov	DWORD PTR [ebp-4], -858993460		; ccccccccH
	mov	DWORD PTR _this$[ebp], ecx

; 462  :     switch (index) {

	mov	eax, DWORD PTR _index$[ebp]
	mov	DWORD PTR tv64[ebp], eax
	cmp	DWORD PTR tv64[ebp], 9
	ja	$LN14@getParamet
	mov	ecx, DWORD PTR tv64[ebp]
	jmp	DWORD PTR $LN16@getParamet[ecx*4]
$LN4@getParamet:

; 463  :     case Param_wet:
; 464  :         float2string(rev_wet * 10, text, kVstMaxParamStrLen);

	mov	esi, esp
	push	8
	mov	edx, DWORD PTR _text$[ebp]
	push	edx
	mov	eax, DWORD PTR _this$[ebp]
	movss	xmm0, DWORD PTR [eax+196]
	mulss	xmm0, DWORD PTR __real@41200000
	push	ecx
	movss	DWORD PTR [esp], xmm0
	mov	ecx, DWORD PTR _this$[ebp]
	mov	edx, DWORD PTR [ecx]
	mov	ecx, DWORD PTR _this$[ebp]
	mov	eax, DWORD PTR [edx+156]
	call	eax
	cmp	esi, esp
	call	__RTC_CheckEsp

; 465  :         break;

	jmp	$LN2@getParamet
$LN5@getParamet:

; 466  :     case Param_decay:
; 467  :         float2string(rev_decay, text, kVstMaxParamStrLen);

	mov	esi, esp
	push	8
	mov	ecx, DWORD PTR _text$[ebp]
	push	ecx
	mov	edx, DWORD PTR _this$[ebp]
	push	ecx
	movss	xmm0, DWORD PTR [edx+204]
	movss	DWORD PTR [esp], xmm0
	mov	eax, DWORD PTR _this$[ebp]
	mov	edx, DWORD PTR [eax]
	mov	ecx, DWORD PTR _this$[ebp]
	mov	eax, DWORD PTR [edx+156]
	call	eax
	cmp	esi, esp
	call	__RTC_CheckEsp

; 468  :         break;

	jmp	$LN2@getParamet
$LN6@getParamet:

; 469  :     case Param_smearing:
; 470  :         float2string(rev_smearing * 10, text, kVstMaxParamStrLen);

	mov	esi, esp
	push	8
	mov	ecx, DWORD PTR _text$[ebp]
	push	ecx
	mov	edx, DWORD PTR _this$[ebp]
	movss	xmm0, DWORD PTR [edx+200]
	mulss	xmm0, DWORD PTR __real@41200000
	push	ecx
	movss	DWORD PTR [esp], xmm0
	mov	eax, DWORD PTR _this$[ebp]
	mov	edx, DWORD PTR [eax]
	mov	ecx, DWORD PTR _this$[ebp]
	mov	eax, DWORD PTR [edx+156]
	call	eax
	cmp	esi, esp
	call	__RTC_CheckEsp

; 471  :         break;

	jmp	$LN2@getParamet
$LN7@getParamet:

; 472  :     case Param_damping:
; 473  :         float2string(rev_damping * 10, text, kVstMaxParamStrLen);

	mov	esi, esp
	push	8
	mov	ecx, DWORD PTR _text$[ebp]
	push	ecx
	mov	edx, DWORD PTR _this$[ebp]
	movss	xmm0, DWORD PTR [edx+208]
	mulss	xmm0, DWORD PTR __real@41200000
	push	ecx
	movss	DWORD PTR [esp], xmm0
	mov	eax, DWORD PTR _this$[ebp]
	mov	edx, DWORD PTR [eax]
	mov	ecx, DWORD PTR _this$[ebp]
	mov	eax, DWORD PTR [edx+156]
	call	eax
	cmp	esi, esp
	call	__RTC_CheckEsp

; 474  :         break;

	jmp	$LN2@getParamet
$LN8@getParamet:

; 475  :     case Param_lpfFreq:
; 476  :         float2string(rev_lpfFreq, text, kVstMaxParamStrLen);

	mov	esi, esp
	push	8
	mov	ecx, DWORD PTR _text$[ebp]
	push	ecx
	mov	edx, DWORD PTR _this$[ebp]
	push	ecx
	movss	xmm0, DWORD PTR [edx+212]
	movss	DWORD PTR [esp], xmm0
	mov	eax, DWORD PTR _this$[ebp]
	mov	edx, DWORD PTR [eax]
	mov	ecx, DWORD PTR _this$[ebp]
	mov	eax, DWORD PTR [edx+156]
	call	eax
	cmp	esi, esp
	call	__RTC_CheckEsp

; 477  :         break;

	jmp	$LN2@getParamet
$LN9@getParamet:

; 478  :     case Param_hpfFreq:
; 479  :         float2string(rev_hpfFreq, text, kVstMaxParamStrLen);

	mov	esi, esp
	push	8
	mov	ecx, DWORD PTR _text$[ebp]
	push	ecx
	mov	edx, DWORD PTR _this$[ebp]
	push	ecx
	movss	xmm0, DWORD PTR [edx+216]
	movss	DWORD PTR [esp], xmm0
	mov	eax, DWORD PTR _this$[ebp]
	mov	edx, DWORD PTR [eax]
	mov	ecx, DWORD PTR _this$[ebp]
	mov	eax, DWORD PTR [edx+156]
	call	eax
	cmp	esi, esp
	call	__RTC_CheckEsp

; 480  :         break;

	jmp	$LN2@getParamet
$LN10@getParamet:

; 481  :     case Param_preDelay:
; 482  :         float2string(rev_preDelay, text, kVstMaxParamStrLen);

	mov	esi, esp
	push	8
	mov	ecx, DWORD PTR _text$[ebp]
	push	ecx
	mov	edx, DWORD PTR _this$[ebp]
	push	ecx
	movss	xmm0, DWORD PTR [edx+220]
	movss	DWORD PTR [esp], xmm0
	mov	eax, DWORD PTR _this$[ebp]
	mov	edx, DWORD PTR [eax]
	mov	ecx, DWORD PTR _this$[ebp]
	mov	eax, DWORD PTR [edx+156]
	call	eax
	cmp	esi, esp
	call	__RTC_CheckEsp

; 483  :         break;

	jmp	$LN2@getParamet
$LN11@getParamet:

; 484  :     case Param_ModRate:
; 485  :         float2string(rev_modRate, text, kVstMaxParamStrLen);

	mov	esi, esp
	push	8
	mov	ecx, DWORD PTR _text$[ebp]
	push	ecx
	mov	edx, DWORD PTR _this$[ebp]
	push	ecx
	movss	xmm0, DWORD PTR [edx+224]
	movss	DWORD PTR [esp], xmm0
	mov	eax, DWORD PTR _this$[ebp]
	mov	edx, DWORD PTR [eax]
	mov	ecx, DWORD PTR _this$[ebp]
	mov	eax, DWORD PTR [edx+156]
	call	eax
	cmp	esi, esp
	call	__RTC_CheckEsp

; 486  :         break;

	jmp	SHORT $LN2@getParamet
$LN12@getParamet:

; 487  :     case Param_ModDepth:
; 488  :         float2string(rev_modDepth * 100, text, kVstMaxParamStrLen);

	mov	esi, esp
	push	8
	mov	ecx, DWORD PTR _text$[ebp]
	push	ecx
	mov	edx, DWORD PTR _this$[ebp]
	movss	xmm0, DWORD PTR [edx+228]
	mulss	xmm0, DWORD PTR __real@42c80000
	push	ecx
	movss	DWORD PTR [esp], xmm0
	mov	eax, DWORD PTR _this$[ebp]
	mov	edx, DWORD PTR [eax]
	mov	ecx, DWORD PTR _this$[ebp]
	mov	eax, DWORD PTR [edx+156]
	call	eax
	cmp	esi, esp
	call	__RTC_CheckEsp

; 489  :         break;

	jmp	SHORT $LN2@getParamet
$LN13@getParamet:

; 490  :     case Param_spread:
; 491  :         float2string(rev_spread * 10, text, kVstMaxParamStrLen);

	mov	esi, esp
	push	8
	mov	ecx, DWORD PTR _text$[ebp]
	push	ecx
	mov	edx, DWORD PTR _this$[ebp]
	movss	xmm0, DWORD PTR [edx+232]
	mulss	xmm0, DWORD PTR __real@41200000
	push	ecx
	movss	DWORD PTR [esp], xmm0
	mov	eax, DWORD PTR _this$[ebp]
	mov	edx, DWORD PTR [eax]
	mov	ecx, DWORD PTR _this$[ebp]
	mov	eax, DWORD PTR [edx+156]
	call	eax
	cmp	esi, esp
	call	__RTC_CheckEsp
$LN14@getParamet:
$LN2@getParamet:

; 492  :         break;
; 493  :     default:
; 494  :         break;
; 495  :     }
; 496  : }

	pop	esi
	add	esp, 8
	cmp	ebp, esp
	call	__RTC_CheckEsp
	mov	esp, ebp
	pop	ebp
	ret	8
	npad	2
$LN16@getParamet:
	DD	$LN4@getParamet
	DD	$LN5@getParamet
	DD	$LN10@getParamet
	DD	$LN7@getParamet
	DD	$LN13@getParamet
	DD	$LN6@getParamet
	DD	$LN8@getParamet
	DD	$LN9@getParamet
	DD	$LN11@getParamet
	DD	$LN12@getParamet
?getParameterDisplay@MisEfx@@UAEXHPAD@Z ENDP		; MisEfx::getParameterDisplay
_TEXT	ENDS
; Function compile flags: /Odtp /RTCsu
; File E:\FoxSuite\misefx\MisEfx\MisEfx.cpp
_TEXT	SEGMENT
tv64 = -8						; size = 4
_this$ = -4						; size = 4
_index$ = 8						; size = 4
_label$ = 12						; size = 4
?getParameterLabel@MisEfx@@UAEXHPAD@Z PROC		; MisEfx::getParameterLabel
; _this$ = ecx

; 421  : {

	push	ebp
	mov	ebp, esp
	sub	esp, 8
	mov	DWORD PTR [ebp-8], -858993460		; ccccccccH
	mov	DWORD PTR [ebp-4], -858993460		; ccccccccH
	mov	DWORD PTR _this$[ebp], ecx

; 422  :     switch (index) {

	mov	eax, DWORD PTR _index$[ebp]
	mov	DWORD PTR tv64[ebp], eax
	cmp	DWORD PTR tv64[ebp], 9
	ja	$LN1@getParamet
	mov	ecx, DWORD PTR tv64[ebp]
	jmp	DWORD PTR $LN16@getParamet[ecx*4]
$LN4@getParamet:

; 423  :     case Param_wet:
; 424  :         vst_strncpy(label, "", kVstMaxParamStrLen);

	push	8
	push	OFFSET $SG10700
	mov	edx, DWORD PTR _label$[ebp]
	push	edx
	call	?vst_strncpy@@YAPADPADPBDI@Z		; vst_strncpy
	add	esp, 12					; 0000000cH

; 425  :         break;

	jmp	$LN1@getParamet
$LN5@getParamet:

; 426  :     case Param_decay:
; 427  :         vst_strncpy(label, "s", kVstMaxParamStrLen);

	push	8
	push	OFFSET $SG10702
	mov	eax, DWORD PTR _label$[ebp]
	push	eax
	call	?vst_strncpy@@YAPADPADPBDI@Z		; vst_strncpy
	add	esp, 12					; 0000000cH
$LN6@getParamet:

; 428  :     case Param_smearing:
; 429  :         vst_strncpy(label, "dB", kVstMaxParamStrLen);

	push	8
	push	OFFSET $SG10704
	mov	ecx, DWORD PTR _label$[ebp]
	push	ecx
	call	?vst_strncpy@@YAPADPADPBDI@Z		; vst_strncpy
	add	esp, 12					; 0000000cH

; 430  :         break;

	jmp	$LN1@getParamet
$LN7@getParamet:

; 431  :     case Param_damping:
; 432  :         vst_strncpy(label, "", kVstMaxParamStrLen);

	push	8
	push	OFFSET $SG10706
	mov	edx, DWORD PTR _label$[ebp]
	push	edx
	call	?vst_strncpy@@YAPADPADPBDI@Z		; vst_strncpy
	add	esp, 12					; 0000000cH

; 433  :         break;

	jmp	SHORT $LN1@getParamet
$LN8@getParamet:

; 434  :     case Param_lpfFreq:
; 435  :         vst_strncpy(label, "Hz", kVstMaxParamStrLen);

	push	8
	push	OFFSET $SG10708
	mov	eax, DWORD PTR _label$[ebp]
	push	eax
	call	?vst_strncpy@@YAPADPADPBDI@Z		; vst_strncpy
	add	esp, 12					; 0000000cH

; 436  :         break;

	jmp	SHORT $LN1@getParamet
$LN9@getParamet:

; 437  :     case Param_hpfFreq:
; 438  :         vst_strncpy(label, "Hz", kVstMaxParamStrLen);

	push	8
	push	OFFSET $SG10710
	mov	ecx, DWORD PTR _label$[ebp]
	push	ecx
	call	?vst_strncpy@@YAPADPADPBDI@Z		; vst_strncpy
	add	esp, 12					; 0000000cH

; 439  :         break;

	jmp	SHORT $LN1@getParamet
$LN10@getParamet:

; 440  :     case Param_preDelay:
; 441  :         vst_strncpy(label, "ms", kVstMaxParamStrLen);

	push	8
	push	OFFSET $SG10712
	mov	edx, DWORD PTR _label$[ebp]
	push	edx
	call	?vst_strncpy@@YAPADPADPBDI@Z		; vst_strncpy
	add	esp, 12					; 0000000cH

; 442  :         break;

	jmp	SHORT $LN1@getParamet
$LN11@getParamet:

; 443  :     case Param_ModRate:
; 444  :         vst_strncpy(label, "Hz", kVstMaxParamStrLen);

	push	8
	push	OFFSET $SG10714
	mov	eax, DWORD PTR _label$[ebp]
	push	eax
	call	?vst_strncpy@@YAPADPADPBDI@Z		; vst_strncpy
	add	esp, 12					; 0000000cH

; 445  :         break;

	jmp	SHORT $LN1@getParamet
$LN12@getParamet:

; 446  :     case Param_ModDepth:
; 447  :         vst_strncpy(label, "%", kVstMaxParamStrLen);

	push	8
	push	OFFSET $SG10716
	mov	ecx, DWORD PTR _label$[ebp]
	push	ecx
	call	?vst_strncpy@@YAPADPADPBDI@Z		; vst_strncpy
	add	esp, 12					; 0000000cH

; 448  :         break;

	jmp	SHORT $LN1@getParamet
$LN13@getParamet:

; 449  :     case Param_spread:
; 450  :         vst_strncpy(label, "", kVstMaxParamStrLen);

	push	8
	push	OFFSET $SG10718
	mov	edx, DWORD PTR _label$[ebp]
	push	edx
	call	?vst_strncpy@@YAPADPADPBDI@Z		; vst_strncpy
	add	esp, 12					; 0000000cH
$LN1@getParamet:

; 451  :         break;
; 452  :     default:
; 453  :         break;
; 454  :     }
; 455  : }

	add	esp, 8
	cmp	ebp, esp
	call	__RTC_CheckEsp
	mov	esp, ebp
	pop	ebp
	ret	8
	npad	3
$LN16@getParamet:
	DD	$LN4@getParamet
	DD	$LN5@getParamet
	DD	$LN10@getParamet
	DD	$LN7@getParamet
	DD	$LN13@getParamet
	DD	$LN6@getParamet
	DD	$LN8@getParamet
	DD	$LN9@getParamet
	DD	$LN11@getParamet
	DD	$LN12@getParamet
?getParameterLabel@MisEfx@@UAEXHPAD@Z ENDP		; MisEfx::getParameterLabel
_TEXT	ENDS
; Function compile flags: /Odtp /RTCsu
; File E:\FoxSuite\misefx\MisEfx\MisEfx.cpp
_TEXT	SEGMENT
_this$ = -4						; size = 4
_name$ = 8						; size = 4
?getVendorString@MisEfx@@UAE_NPAD@Z PROC		; MisEfx::getVendorString
; _this$ = ecx

; 602  : {

	push	ebp
	mov	ebp, esp
	push	ecx
	mov	DWORD PTR [ebp-4], -858993460		; ccccccccH
	mov	DWORD PTR _this$[ebp], ecx

; 603  :     vst_strncpy(name, "Fox Suite", kVstMaxVendorStrLen);

	push	64					; 00000040H
	push	OFFSET $SG10791
	mov	eax, DWORD PTR _name$[ebp]
	push	eax
	call	?vst_strncpy@@YAPADPADPBDI@Z		; vst_strncpy
	add	esp, 12					; 0000000cH

; 604  :     return true;

	mov	al, 1

; 605  : }

	add	esp, 4
	cmp	ebp, esp
	call	__RTC_CheckEsp
	mov	esp, ebp
	pop	ebp
	ret	4
?getVendorString@MisEfx@@UAE_NPAD@Z ENDP		; MisEfx::getVendorString
_TEXT	ENDS
; Function compile flags: /Odtp /RTCsu
; File E:\FoxSuite\misefx\MisEfx\MisEfx.cpp
_TEXT	SEGMENT
_this$ = -4						; size = 4
_name$ = 8						; size = 4
?getEffectName@MisEfx@@UAE_NPAD@Z PROC			; MisEfx::getEffectName
; _this$ = ecx

; 594  : {

	push	ebp
	mov	ebp, esp
	push	ecx
	mov	DWORD PTR [ebp-4], -858993460		; ccccccccH
	mov	DWORD PTR _this$[ebp], ecx

; 595  :     vst_strncpy(name, "Reverb", kVstMaxEffectNameLen);

	push	32					; 00000020H
	push	OFFSET $SG10786
	mov	eax, DWORD PTR _name$[ebp]
	push	eax
	call	?vst_strncpy@@YAPADPADPBDI@Z		; vst_strncpy
	add	esp, 12					; 0000000cH

; 596  :     return true;

	mov	al, 1

; 597  : }

	add	esp, 4
	cmp	ebp, esp
	call	__RTC_CheckEsp
	mov	esp, ebp
	pop	ebp
	ret	4
?getEffectName@MisEfx@@UAE_NPAD@Z ENDP			; MisEfx::getEffectName
_TEXT	ENDS
; Function compile flags: /Odtp /RTCsu
; File E:\FoxSuite\misefx\MisEfx\MisEfx.cpp
_TEXT	SEGMENT
tv64 = -12						; size = 4
_dampingFrequency$1 = -8				; size = 4
_this$ = -4						; size = 4
_index$ = 8						; size = 4
_value$ = 12						; size = 4
?setParameter@MisEfx@@UAEXHM@Z PROC			; MisEfx::setParameter
; _this$ = ecx

; 268  : {

	push	ebp
	mov	ebp, esp
	sub	esp, 12					; 0000000cH
	mov	DWORD PTR [ebp-12], -858993460		; ccccccccH
	mov	DWORD PTR [ebp-8], -858993460		; ccccccccH
	mov	DWORD PTR [ebp-4], -858993460		; ccccccccH
	mov	DWORD PTR _this$[ebp], ecx

; 269  :     switch (index) {

	mov	eax, DWORD PTR _index$[ebp]
	mov	DWORD PTR tv64[ebp], eax
	cmp	DWORD PTR tv64[ebp], 9
	ja	$LN14@setParamet
	mov	ecx, DWORD PTR tv64[ebp]
	jmp	DWORD PTR $LN16@setParamet[ecx*4]
$LN4@setParamet:

; 270  :     case Param_wet:
; 271  :     {
; 272  :         rev_wet = value;

	mov	edx, DWORD PTR _this$[ebp]
	movss	xmm0, DWORD PTR _value$[ebp]
	movss	DWORD PTR [edx+196], xmm0

; 273  :         Reverb->setReverbWet(rev_wet);

	mov	eax, DWORD PTR _this$[ebp]
	push	ecx
	movss	xmm0, DWORD PTR [eax+196]
	movss	DWORD PTR [esp], xmm0
	mov	ecx, DWORD PTR _this$[ebp]
	mov	ecx, DWORD PTR [ecx+236]
	call	?setReverbWet@Freeverb@@QAEXM@Z		; Freeverb::setReverbWet

; 274  :         break;

	jmp	$LN2@setParamet
$LN5@setParamet:

; 275  :     }
; 276  :     case Param_decay:
; 277  :     {
; 278  :         rev_decay = value * MAX_REVERB_DECAY_IN_SECONDS;

	cvtss2sd xmm0, DWORD PTR _value$[ebp]
	mulsd	xmm0, QWORD PTR __real@4014000000000000
	cvtsd2ss xmm0, xmm0
	mov	edx, DWORD PTR _this$[ebp]
	movss	DWORD PTR [edx+204], xmm0

; 279  :         Reverb->setReverbDecayInSeconds(rev_decay);

	mov	eax, DWORD PTR _this$[ebp]
	push	ecx
	movss	xmm0, DWORD PTR [eax+204]
	movss	DWORD PTR [esp], xmm0
	mov	ecx, DWORD PTR _this$[ebp]
	mov	ecx, DWORD PTR [ecx+236]
	call	?setReverbDecayInSeconds@Freeverb@@QAEXM@Z ; Freeverb::setReverbDecayInSeconds

; 280  :         break;

	jmp	$LN2@setParamet
$LN6@setParamet:

; 281  :     }
; 282  :     case Param_smearing:
; 283  :     {
; 284  :         rev_smearing = value;

	mov	edx, DWORD PTR _this$[ebp]
	movss	xmm0, DWORD PTR _value$[ebp]
	movss	DWORD PTR [edx+200], xmm0

; 285  :         Reverb->setReverbSmearing(rev_smearing);

	mov	eax, DWORD PTR _this$[ebp]
	push	ecx
	movss	xmm0, DWORD PTR [eax+200]
	movss	DWORD PTR [esp], xmm0
	mov	ecx, DWORD PTR _this$[ebp]
	mov	ecx, DWORD PTR [ecx+236]
	call	?setReverbSmearing@Freeverb@@QAEXM@Z	; Freeverb::setReverbSmearing

; 286  :         break;

	jmp	$LN2@setParamet
$LN7@setParamet:

; 287  :     }
; 288  :     case Param_damping:
; 289  :     {
; 290  :         rev_damping = value;

	mov	edx, DWORD PTR _this$[ebp]
	movss	xmm0, DWORD PTR _value$[ebp]
	movss	DWORD PTR [edx+208], xmm0

; 291  :         float dampingFrequency = mapValueIntoRange(1.0 - rev_damping, MIN_LPF_FREQUENCY, MAX_LPF_FREQUENCY);

	push	ecx
	movss	xmm0, DWORD PTR __real@46947000
	movss	DWORD PTR [esp], xmm0
	push	ecx
	movss	xmm0, DWORD PTR __real@41a00000
	movss	DWORD PTR [esp], xmm0
	mov	eax, DWORD PTR _this$[ebp]
	cvtss2sd xmm0, DWORD PTR [eax+208]
	movsd	xmm1, QWORD PTR __real@3ff0000000000000
	subsd	xmm1, xmm0
	cvtsd2ss xmm0, xmm1
	push	ecx
	movss	DWORD PTR [esp], xmm0
	mov	ecx, DWORD PTR _this$[ebp]
	call	?mapValueIntoRange@MisEfx@@AAEMMMM@Z	; MisEfx::mapValueIntoRange
	fstp	DWORD PTR _dampingFrequency$1[ebp]

; 292  :         Reverb->setReverbDampingFrequency(dampingFrequency);

	push	ecx
	movss	xmm0, DWORD PTR _dampingFrequency$1[ebp]
	movss	DWORD PTR [esp], xmm0
	mov	ecx, DWORD PTR _this$[ebp]
	mov	ecx, DWORD PTR [ecx+236]
	call	?setReverbDampingFrequency@Freeverb@@QAEXM@Z ; Freeverb::setReverbDampingFrequency

; 293  :         break;

	jmp	$LN2@setParamet
$LN8@setParamet:

; 294  :     }
; 295  :     case Param_lpfFreq:
; 296  :     {
; 297  :         rev_lpfFreq = exp(mapValueIntoRange(value, MIN_LPF_FREQUENCY_LOG, MAX_LPF_FREQUENCY_LOG));

	mov	edx, DWORD PTR _this$[ebp]
	push	ecx
	movss	xmm0, DWORD PTR [edx+176]
	movss	DWORD PTR [esp], xmm0
	mov	eax, DWORD PTR _this$[ebp]
	push	ecx
	movss	xmm0, DWORD PTR [eax+180]
	movss	DWORD PTR [esp], xmm0
	push	ecx
	movss	xmm0, DWORD PTR _value$[ebp]
	movss	DWORD PTR [esp], xmm0
	mov	ecx, DWORD PTR _this$[ebp]
	call	?mapValueIntoRange@MisEfx@@AAEMMMM@Z	; MisEfx::mapValueIntoRange
	sub	esp, 8
	fstp	QWORD PTR [esp]
	call	_exp
	add	esp, 8
	mov	ecx, DWORD PTR _this$[ebp]
	fstp	DWORD PTR [ecx+212]

; 298  :         outputLPF->setCutoffFrequency(rev_lpfFreq);

	mov	edx, DWORD PTR _this$[ebp]
	push	ecx
	movss	xmm0, DWORD PTR [edx+212]
	movss	DWORD PTR [esp], xmm0
	mov	eax, DWORD PTR _this$[ebp]
	mov	ecx, DWORD PTR [eax+244]
	call	?setCutoffFrequency@LPFButterworth@@QAEXM@Z ; LPFButterworth::setCutoffFrequency

; 299  :         break;

	jmp	$LN2@setParamet
$LN9@setParamet:

; 300  :     }
; 301  :     case Param_hpfFreq:
; 302  :     {
; 303  :         rev_hpfFreq = exp(mapValueIntoRange(value, MIN_HPF_FREQUENCY_LOG, MAX_HPF_FREQUENCY_LOG));

	mov	ecx, DWORD PTR _this$[ebp]
	push	ecx
	movss	xmm0, DWORD PTR [ecx+184]
	movss	DWORD PTR [esp], xmm0
	mov	edx, DWORD PTR _this$[ebp]
	push	ecx
	movss	xmm0, DWORD PTR [edx+188]
	movss	DWORD PTR [esp], xmm0
	push	ecx
	movss	xmm0, DWORD PTR _value$[ebp]
	movss	DWORD PTR [esp], xmm0
	mov	ecx, DWORD PTR _this$[ebp]
	call	?mapValueIntoRange@MisEfx@@AAEMMMM@Z	; MisEfx::mapValueIntoRange
	sub	esp, 8
	fstp	QWORD PTR [esp]
	call	_exp
	add	esp, 8
	mov	eax, DWORD PTR _this$[ebp]
	fstp	DWORD PTR [eax+216]

; 304  :         outputHPF->setCutoffFrequency(rev_hpfFreq);

	mov	ecx, DWORD PTR _this$[ebp]
	push	ecx
	movss	xmm0, DWORD PTR [ecx+216]
	movss	DWORD PTR [esp], xmm0
	mov	edx, DWORD PTR _this$[ebp]
	mov	ecx, DWORD PTR [edx+248]
	call	?setCutoffFrequency@HPFButterworth@@QAEXM@Z ; HPFButterworth::setCutoffFrequency

; 305  :         break;

	jmp	$LN2@setParamet
$LN10@setParamet:

; 306  :     }
; 307  :     case Param_preDelay:
; 308  :     {
; 309  :         rev_preDelay = value * MAX_PREDELAY_VALUE_IN_MS;

	cvtss2sd xmm0, DWORD PTR _value$[ebp]
	mulsd	xmm0, QWORD PTR __real@4072c00000000000
	cvtsd2ss xmm0, xmm0
	mov	eax, DWORD PTR _this$[ebp]
	movss	DWORD PTR [eax+220], xmm0

; 310  :         Reverb->setReverbPreDelayInMilliseconds(rev_preDelay);

	mov	ecx, DWORD PTR _this$[ebp]
	push	ecx
	movss	xmm0, DWORD PTR [ecx+220]
	movss	DWORD PTR [esp], xmm0
	mov	edx, DWORD PTR _this$[ebp]
	mov	ecx, DWORD PTR [edx+236]
	call	?setReverbPreDelayInMilliseconds@Freeverb@@QAEXM@Z ; Freeverb::setReverbPreDelayInMilliseconds

; 311  :         break;

	jmp	$LN2@setParamet
$LN11@setParamet:

; 312  :     }
; 313  :     case Param_ModRate:
; 314  :     {
; 315  :         rev_modRate = mapValueIntoRange(value, MIN_MOD_RATE_IN_HZ, MAX_MOD_RATE_IN_HZ);

	push	ecx
	movss	xmm0, DWORD PTR __real@41200000
	movss	DWORD PTR [esp], xmm0
	push	ecx
	movss	xmm0, DWORD PTR __real@3dcccccd
	movss	DWORD PTR [esp], xmm0
	push	ecx
	movss	xmm0, DWORD PTR _value$[ebp]
	movss	DWORD PTR [esp], xmm0
	mov	ecx, DWORD PTR _this$[ebp]
	call	?mapValueIntoRange@MisEfx@@AAEMMMM@Z	; MisEfx::mapValueIntoRange
	mov	eax, DWORD PTR _this$[ebp]
	fstp	DWORD PTR [eax+224]

; 316  :         //chorus->setModRate(rev_modRate);
; 317  :         tremolo->setModRate(rev_modRate);

	mov	ecx, DWORD PTR _this$[ebp]
	push	ecx
	movss	xmm0, DWORD PTR [ecx+224]
	movss	DWORD PTR [esp], xmm0
	mov	edx, DWORD PTR _this$[ebp]
	mov	ecx, DWORD PTR [edx+252]
	call	?setModRate@Tremolo@@QAEXM@Z		; Tremolo::setModRate

; 318  :         /*for (int i = 0; i < NUM_ALLPASS_FILTERS_IN; i++) {
; 319  :             apFiltersL_input[i].setModRate(rev_modRate);
; 320  :             apFiltersR_input[i].setModRate(rev_modRate);
; 321  :         }*/
; 322  :         /*for (int i = 0; i < NUM_ALLPASS_FILTERS_OUT; i++) {
; 323  :             apFiltersL_output[i].setModRate(rev_modRate);
; 324  :             apFiltersR_output[i].setModRate(rev_modRate);
; 325  :         }*/
; 326  :         break;

	jmp	SHORT $LN2@setParamet
$LN12@setParamet:

; 327  :     }
; 328  :     case Param_ModDepth:
; 329  :     {
; 330  :         rev_modDepth = value;

	mov	eax, DWORD PTR _this$[ebp]
	movss	xmm0, DWORD PTR _value$[ebp]
	movss	DWORD PTR [eax+228], xmm0

; 331  :         //chorus->setModDepth(rev_modDepth);
; 332  :         tremolo->setModDepth(rev_modDepth);

	mov	ecx, DWORD PTR _this$[ebp]
	push	ecx
	movss	xmm0, DWORD PTR [ecx+228]
	movss	DWORD PTR [esp], xmm0
	mov	edx, DWORD PTR _this$[ebp]
	mov	ecx, DWORD PTR [edx+252]
	call	?setModDepth@Tremolo@@QAEXM@Z		; Tremolo::setModDepth

; 333  :         /*for (int i = 0; i < NUM_ALLPASS_FILTERS_IN; i++) {
; 334  :             apFiltersL_input[i].setModDepth(rev_modDepth);
; 335  :             apFiltersR_input[i].setModDepth(rev_modDepth);
; 336  :         }*/
; 337  :         /*for (int i = 0; i < NUM_ALLPASS_FILTERS_OUT; i++) {
; 338  :             apFiltersL_output[i].setModDepth(rev_modDepth);
; 339  :             apFiltersR_output[i].setModDepth(rev_modDepth);
; 340  :         }*/
; 341  :         break;

	jmp	SHORT $LN2@setParamet
$LN13@setParamet:

; 342  :     }
; 343  :     case Param_spread:
; 344  :     {
; 345  :         rev_spread = value;

	mov	eax, DWORD PTR _this$[ebp]
	movss	xmm0, DWORD PTR _value$[ebp]
	movss	DWORD PTR [eax+232], xmm0

; 346  :         Reverb->setReverbSpread(rev_spread);

	mov	ecx, DWORD PTR _this$[ebp]
	push	ecx
	movss	xmm0, DWORD PTR [ecx+232]
	movss	DWORD PTR [esp], xmm0
	mov	edx, DWORD PTR _this$[ebp]
	mov	ecx, DWORD PTR [edx+236]
	call	?setReverbSpread@Freeverb@@QAEXM@Z	; Freeverb::setReverbSpread
$LN14@setParamet:
$LN2@setParamet:

; 347  :         break;
; 348  :     }
; 349  :     default:
; 350  :         break;
; 351  :     }
; 352  : }

	add	esp, 12					; 0000000cH
	cmp	ebp, esp
	call	__RTC_CheckEsp
	mov	esp, ebp
	pop	ebp
	ret	8
	npad	1
$LN16@setParamet:
	DD	$LN4@setParamet
	DD	$LN5@setParamet
	DD	$LN10@setParamet
	DD	$LN7@setParamet
	DD	$LN13@setParamet
	DD	$LN6@setParamet
	DD	$LN8@setParamet
	DD	$LN9@setParamet
	DD	$LN11@setParamet
	DD	$LN12@setParamet
?setParameter@MisEfx@@UAEXHM@Z ENDP			; MisEfx::setParameter
_TEXT	ENDS
; Function compile flags: /Odtp /RTCsu
; File E:\FoxSuite\misefx\MisEfx\MisEfx.cpp
_TEXT	SEGMENT
tv170 = -20						; size = 4
tv155 = -16						; size = 4
tv64 = -12						; size = 4
_param$ = -8						; size = 4
_this$ = -4						; size = 4
_index$ = 8						; size = 4
?getParameter@MisEfx@@UAEMH@Z PROC			; MisEfx::getParameter
; _this$ = ecx

; 358  : {

	push	ebp
	mov	ebp, esp
	sub	esp, 20					; 00000014H
	mov	eax, -858993460				; ccccccccH
	mov	DWORD PTR [ebp-20], eax
	mov	DWORD PTR [ebp-16], eax
	mov	DWORD PTR [ebp-12], eax
	mov	DWORD PTR [ebp-8], eax
	mov	DWORD PTR [ebp-4], eax
	mov	DWORD PTR _this$[ebp], ecx

; 359  :     float param = 0;

	xorps	xmm0, xmm0
	movss	DWORD PTR _param$[ebp], xmm0

; 360  :     switch (index) {

	mov	eax, DWORD PTR _index$[ebp]
	mov	DWORD PTR tv64[ebp], eax
	cmp	DWORD PTR tv64[ebp], 9
	ja	$LN14@getParamet
	mov	ecx, DWORD PTR tv64[ebp]
	jmp	DWORD PTR $LN16@getParamet[ecx*4]
$LN4@getParamet:

; 361  :     case Param_wet:
; 362  :     {
; 363  :         param = rev_wet;

	mov	edx, DWORD PTR _this$[ebp]
	movss	xmm0, DWORD PTR [edx+196]
	movss	DWORD PTR _param$[ebp], xmm0

; 364  :         break;

	jmp	$LN2@getParamet
$LN5@getParamet:

; 365  :     }
; 366  :     case Param_decay:
; 367  :     {
; 368  :         param = rev_decay / MAX_REVERB_DECAY_IN_SECONDS;

	mov	eax, DWORD PTR _this$[ebp]
	cvtss2sd xmm0, DWORD PTR [eax+204]
	divsd	xmm0, QWORD PTR __real@4014000000000000
	cvtsd2ss xmm0, xmm0
	movss	DWORD PTR _param$[ebp], xmm0

; 369  :         break;

	jmp	$LN2@getParamet
$LN6@getParamet:

; 370  :     }
; 371  :     case Param_smearing:
; 372  :     {
; 373  :         param = rev_smearing;

	mov	ecx, DWORD PTR _this$[ebp]
	movss	xmm0, DWORD PTR [ecx+200]
	movss	DWORD PTR _param$[ebp], xmm0

; 374  :         break;

	jmp	$LN2@getParamet
$LN7@getParamet:

; 375  :     }
; 376  :     case Param_damping:
; 377  :     {
; 378  :         param = rev_damping;

	mov	edx, DWORD PTR _this$[ebp]
	movss	xmm0, DWORD PTR [edx+208]
	movss	DWORD PTR _param$[ebp], xmm0

; 379  :         break;

	jmp	$LN2@getParamet
$LN8@getParamet:

; 380  :     }
; 381  :     case Param_lpfFreq:
; 382  :     {
; 383  :         param = mapValueOutsideRange(log(rev_lpfFreq), MIN_LPF_FREQUENCY_LOG, MAX_LPF_FREQUENCY_LOG);

	mov	eax, DWORD PTR _this$[ebp]
	push	ecx
	movss	xmm0, DWORD PTR [eax+176]
	movss	DWORD PTR [esp], xmm0
	mov	ecx, DWORD PTR _this$[ebp]
	push	ecx
	movss	xmm0, DWORD PTR [ecx+180]
	movss	DWORD PTR [esp], xmm0
	mov	edx, DWORD PTR _this$[ebp]
	cvtss2sd xmm0, DWORD PTR [edx+212]
	sub	esp, 8
	movsd	QWORD PTR [esp], xmm0
	call	_log
	add	esp, 8
	fstp	DWORD PTR tv155[ebp]
	fld	DWORD PTR tv155[ebp]
	push	ecx
	fstp	DWORD PTR [esp]
	mov	ecx, DWORD PTR _this$[ebp]
	call	?mapValueOutsideRange@MisEfx@@AAEMMMM@Z	; MisEfx::mapValueOutsideRange
	fstp	DWORD PTR _param$[ebp]

; 384  :         break;

	jmp	$LN2@getParamet
$LN9@getParamet:

; 385  :     }
; 386  :     case Param_hpfFreq:
; 387  :     {
; 388  :         param = mapValueOutsideRange(log(rev_hpfFreq), MIN_HPF_FREQUENCY_LOG, MAX_HPF_FREQUENCY_LOG);

	mov	eax, DWORD PTR _this$[ebp]
	push	ecx
	movss	xmm0, DWORD PTR [eax+184]
	movss	DWORD PTR [esp], xmm0
	mov	ecx, DWORD PTR _this$[ebp]
	push	ecx
	movss	xmm0, DWORD PTR [ecx+188]
	movss	DWORD PTR [esp], xmm0
	mov	edx, DWORD PTR _this$[ebp]
	cvtss2sd xmm0, DWORD PTR [edx+216]
	sub	esp, 8
	movsd	QWORD PTR [esp], xmm0
	call	_log
	add	esp, 8
	fstp	DWORD PTR tv170[ebp]
	fld	DWORD PTR tv170[ebp]
	push	ecx
	fstp	DWORD PTR [esp]
	mov	ecx, DWORD PTR _this$[ebp]
	call	?mapValueOutsideRange@MisEfx@@AAEMMMM@Z	; MisEfx::mapValueOutsideRange
	fstp	DWORD PTR _param$[ebp]

; 389  :         break;

	jmp	SHORT $LN2@getParamet
$LN10@getParamet:

; 390  :     }
; 391  :     case Param_preDelay:
; 392  :     {
; 393  :         param = rev_preDelay / MAX_PREDELAY_VALUE_IN_MS;

	mov	eax, DWORD PTR _this$[ebp]
	cvtss2sd xmm0, DWORD PTR [eax+220]
	divsd	xmm0, QWORD PTR __real@4072c00000000000
	cvtsd2ss xmm0, xmm0
	movss	DWORD PTR _param$[ebp], xmm0

; 394  :         break;

	jmp	SHORT $LN2@getParamet
$LN11@getParamet:

; 395  :     }
; 396  :     case Param_ModRate:
; 397  :     {
; 398  :         param = mapValueOutsideRange(rev_modRate, MIN_MOD_RATE_IN_HZ, MAX_MOD_RATE_IN_HZ);

	push	ecx
	movss	xmm0, DWORD PTR __real@41200000
	movss	DWORD PTR [esp], xmm0
	push	ecx
	movss	xmm0, DWORD PTR __real@3dcccccd
	movss	DWORD PTR [esp], xmm0
	mov	ecx, DWORD PTR _this$[ebp]
	push	ecx
	movss	xmm0, DWORD PTR [ecx+224]
	movss	DWORD PTR [esp], xmm0
	mov	ecx, DWORD PTR _this$[ebp]
	call	?mapValueOutsideRange@MisEfx@@AAEMMMM@Z	; MisEfx::mapValueOutsideRange
	fstp	DWORD PTR _param$[ebp]

; 399  :         break;

	jmp	SHORT $LN2@getParamet
$LN12@getParamet:

; 400  :     }
; 401  :     case Param_ModDepth:
; 402  :     {
; 403  :         param = rev_modDepth;

	mov	edx, DWORD PTR _this$[ebp]
	movss	xmm0, DWORD PTR [edx+228]
	movss	DWORD PTR _param$[ebp], xmm0

; 404  :         break;

	jmp	SHORT $LN2@getParamet
$LN13@getParamet:

; 405  :     }
; 406  :     case Param_spread:
; 407  :     {
; 408  :         param = rev_spread;

	mov	eax, DWORD PTR _this$[ebp]
	movss	xmm0, DWORD PTR [eax+232]
	movss	DWORD PTR _param$[ebp], xmm0
$LN14@getParamet:
$LN2@getParamet:

; 409  :         break;
; 410  :     }
; 411  :     default:
; 412  :         break;
; 413  :     }
; 414  :     return param;

	fld	DWORD PTR _param$[ebp]

; 415  : }

	add	esp, 20					; 00000014H
	cmp	ebp, esp
	call	__RTC_CheckEsp
	mov	esp, ebp
	pop	ebp
	ret	4
	npad	1
$LN16@getParamet:
	DD	$LN4@getParamet
	DD	$LN5@getParamet
	DD	$LN10@getParamet
	DD	$LN7@getParamet
	DD	$LN13@getParamet
	DD	$LN6@getParamet
	DD	$LN8@getParamet
	DD	$LN9@getParamet
	DD	$LN11@getParamet
	DD	$LN12@getParamet
?getParameter@MisEfx@@UAEMH@Z ENDP			; MisEfx::getParameter
_TEXT	ENDS
; Function compile flags: /Odtp /RTCsu
; File E:\FoxSuite\misefx\MisEfx\MisEfx.cpp
_TEXT	SEGMENT
_outputR$1 = -64					; size = 4
_outputL$2 = -60					; size = 4
_rev_outputs$3 = -52					; size = 8
_rev_inputs$4 = -36					; size = 8
_i$5 = -24						; size = 4
_outR$ = -20						; size = 4
_outL$ = -16						; size = 4
_inR$ = -12						; size = 4
_inL$ = -8						; size = 4
_this$ = -4						; size = 4
_inputs$ = 8						; size = 4
_outputs$ = 12						; size = 4
_sampleFrames$ = 16					; size = 4
?processReplacing@MisEfx@@UAEXPAPAM0H@Z PROC		; MisEfx::processReplacing
; _this$ = ecx

; 202  : {

	push	ebp
	mov	ebp, esp
	sub	esp, 64					; 00000040H
	push	esi
	push	edi
	push	ecx
	lea	edi, DWORD PTR [ebp-64]
	mov	ecx, 16					; 00000010H
	mov	eax, -858993460				; ccccccccH
	rep stosd
	pop	ecx
	mov	DWORD PTR _this$[ebp], ecx

; 203  :     // Extract input and output buffers
; 204  :     float* inL = inputs[0]; // buffer input left

	mov	eax, 4
	imul	ecx, eax, 0
	mov	edx, DWORD PTR _inputs$[ebp]
	mov	eax, DWORD PTR [edx+ecx]
	mov	DWORD PTR _inL$[ebp], eax

; 205  :     float* inR = inputs[1]; // buffer input right

	mov	ecx, 4
	shl	ecx, 0
	mov	edx, DWORD PTR _inputs$[ebp]
	mov	eax, DWORD PTR [edx+ecx]
	mov	DWORD PTR _inR$[ebp], eax

; 206  : 
; 207  :     float* outL = outputs[0]; // buffer output left

	mov	ecx, 4
	imul	edx, ecx, 0
	mov	eax, DWORD PTR _outputs$[ebp]
	mov	ecx, DWORD PTR [eax+edx]
	mov	DWORD PTR _outL$[ebp], ecx

; 208  :     float* outR = outputs[1]; // buffer output right

	mov	edx, 4
	shl	edx, 0
	mov	eax, DWORD PTR _outputs$[ebp]
	mov	ecx, DWORD PTR [eax+edx]
	mov	DWORD PTR _outR$[ebp], ecx

; 209  : 
; 210  :     // Cycle over the sample frames number
; 211  :     for (int i = 0; i < sampleFrames; i++) {

	mov	DWORD PTR _i$5[ebp], 0
	jmp	SHORT $LN4@processRep
$LN2@processRep:
	mov	edx, DWORD PTR _i$5[ebp]
	add	edx, 1
	mov	DWORD PTR _i$5[ebp], edx
$LN4@processRep:
	mov	eax, DWORD PTR _i$5[ebp]
	cmp	eax, DWORD PTR _sampleFrames$[ebp]
	jge	$LN3@processRep

; 212  : 
; 213  :         // Create arrays for Reverb processing
; 214  :         float rev_inputs[2] = { inL[i],  inR[i] };

	mov	ecx, DWORD PTR _i$5[ebp]
	mov	edx, DWORD PTR _inL$[ebp]
	movss	xmm0, DWORD PTR [edx+ecx*4]
	movss	DWORD PTR _rev_inputs$4[ebp], xmm0
	mov	eax, DWORD PTR _i$5[ebp]
	mov	ecx, DWORD PTR _inR$[ebp]
	movss	xmm0, DWORD PTR [ecx+eax*4]
	movss	DWORD PTR _rev_inputs$4[ebp+4], xmm0

; 215  :         float rev_outputs[2] = { 0.0, 0.0 };

	xorps	xmm0, xmm0
	movss	DWORD PTR _rev_outputs$3[ebp], xmm0
	xorps	xmm0, xmm0
	movss	DWORD PTR _rev_outputs$3[ebp+4], xmm0

; 216  : 
; 217  :         // Process Reverb
; 218  :         Reverb->processAudio(rev_inputs, rev_outputs);

	lea	edx, DWORD PTR _rev_outputs$3[ebp]
	push	edx
	lea	eax, DWORD PTR _rev_inputs$4[ebp]
	push	eax
	mov	ecx, DWORD PTR _this$[ebp]
	mov	ecx, DWORD PTR [ecx+236]
	call	?processAudio@Freeverb@@QAEXPAM0@Z	; Freeverb::processAudio

; 219  : 
; 220  :         // Unpack output array
; 221  :         float outputL = rev_outputs[0];

	mov	edx, 4
	imul	eax, edx, 0
	movss	xmm0, DWORD PTR _rev_outputs$3[ebp+eax]
	movss	DWORD PTR _outputL$2[ebp], xmm0

; 222  :         float outputR = rev_outputs[1];

	mov	ecx, 4
	shl	ecx, 0
	movss	xmm0, DWORD PTR _rev_outputs$3[ebp+ecx]
	movss	DWORD PTR _outputR$1[ebp], xmm0

; 223  : 
; 224  :         // Chorus 
; 225  :         //outputL = chorus->processAudio(outputL);
; 226  :         //outputR = chorus->processAudio(outputR);        
; 227  : 
; 228  :         // Output LPF processing
; 229  :         outputL = outputLPF->processAudio(outputL);

	mov	esi, esp
	push	ecx
	movss	xmm0, DWORD PTR _outputL$2[ebp]
	movss	DWORD PTR [esp], xmm0
	mov	edx, DWORD PTR _this$[ebp]
	mov	eax, DWORD PTR [edx+244]
	mov	ecx, DWORD PTR _this$[ebp]
	mov	edx, DWORD PTR [eax]
	mov	ecx, DWORD PTR [ecx+244]
	mov	eax, DWORD PTR [edx]
	call	eax
	cmp	esi, esp
	call	__RTC_CheckEsp
	fstp	DWORD PTR _outputL$2[ebp]

; 230  :         outputR = outputLPF->processAudio(outputR);

	mov	esi, esp
	push	ecx
	movss	xmm0, DWORD PTR _outputR$1[ebp]
	movss	DWORD PTR [esp], xmm0
	mov	ecx, DWORD PTR _this$[ebp]
	mov	edx, DWORD PTR [ecx+244]
	mov	eax, DWORD PTR _this$[ebp]
	mov	edx, DWORD PTR [edx]
	mov	ecx, DWORD PTR [eax+244]
	mov	eax, DWORD PTR [edx]
	call	eax
	cmp	esi, esp
	call	__RTC_CheckEsp
	fstp	DWORD PTR _outputR$1[ebp]

; 231  : 
; 232  :         // Output HPF processing
; 233  :         outputL = outputHPF->processAudio(outputL);

	mov	esi, esp
	push	ecx
	movss	xmm0, DWORD PTR _outputL$2[ebp]
	movss	DWORD PTR [esp], xmm0
	mov	ecx, DWORD PTR _this$[ebp]
	mov	edx, DWORD PTR [ecx+248]
	mov	eax, DWORD PTR _this$[ebp]
	mov	edx, DWORD PTR [edx]
	mov	ecx, DWORD PTR [eax+248]
	mov	eax, DWORD PTR [edx]
	call	eax
	cmp	esi, esp
	call	__RTC_CheckEsp
	fstp	DWORD PTR _outputL$2[ebp]

; 234  :         outputR = outputHPF->processAudio(outputR);

	mov	esi, esp
	push	ecx
	movss	xmm0, DWORD PTR _outputR$1[ebp]
	movss	DWORD PTR [esp], xmm0
	mov	ecx, DWORD PTR _this$[ebp]
	mov	edx, DWORD PTR [ecx+248]
	mov	eax, DWORD PTR _this$[ebp]
	mov	edx, DWORD PTR [edx]
	mov	ecx, DWORD PTR [eax+248]
	mov	eax, DWORD PTR [edx]
	call	eax
	cmp	esi, esp
	call	__RTC_CheckEsp
	fstp	DWORD PTR _outputR$1[ebp]

; 235  : 
; 236  :         //// Tremolo processing
; 237  :         outputL = tremolo->processAudio(outputL);

	mov	esi, esp
	push	ecx
	movss	xmm0, DWORD PTR _outputL$2[ebp]
	movss	DWORD PTR [esp], xmm0
	mov	ecx, DWORD PTR _this$[ebp]
	mov	edx, DWORD PTR [ecx+252]
	mov	eax, DWORD PTR _this$[ebp]
	mov	edx, DWORD PTR [edx]
	mov	ecx, DWORD PTR [eax+252]
	mov	eax, DWORD PTR [edx]
	call	eax
	cmp	esi, esp
	call	__RTC_CheckEsp
	fstp	DWORD PTR _outputL$2[ebp]

; 238  :         outputR = tremolo->processAudio(outputR);

	mov	esi, esp
	push	ecx
	movss	xmm0, DWORD PTR _outputR$1[ebp]
	movss	DWORD PTR [esp], xmm0
	mov	ecx, DWORD PTR _this$[ebp]
	mov	edx, DWORD PTR [ecx+252]
	mov	eax, DWORD PTR _this$[ebp]
	mov	edx, DWORD PTR [edx]
	mov	ecx, DWORD PTR [eax+252]
	mov	eax, DWORD PTR [edx]
	call	eax
	cmp	esi, esp
	call	__RTC_CheckEsp
	fstp	DWORD PTR _outputR$1[ebp]

; 239  : 
; 240  :         // Stereo spread processing + output allocation
; 241  :         outL[i] = outputL;

	mov	ecx, DWORD PTR _i$5[ebp]
	mov	edx, DWORD PTR _outL$[ebp]
	movss	xmm0, DWORD PTR _outputL$2[ebp]
	movss	DWORD PTR [edx+ecx*4], xmm0

; 242  :         outR[i] = outputR;

	mov	eax, DWORD PTR _i$5[ebp]
	mov	ecx, DWORD PTR _outR$[ebp]
	movss	xmm0, DWORD PTR _outputR$1[ebp]
	movss	DWORD PTR [ecx+eax*4], xmm0

; 243  :     }

	jmp	$LN2@processRep
$LN3@processRep:

; 244  : }

	push	edx
	mov	ecx, ebp
	push	eax
	lea	edx, DWORD PTR $LN9@processRep
	call	@_RTC_CheckStackVars@8
	pop	eax
	pop	edx
	pop	edi
	pop	esi
	add	esp, 64					; 00000040H
	cmp	ebp, esp
	call	__RTC_CheckEsp
	mov	esp, ebp
	pop	ebp
	ret	12					; 0000000cH
$LN9@processRep:
	DD	2
	DD	$LN8@processRep
$LN8@processRep:
	DD	-36					; ffffffdcH
	DD	8
	DD	$LN6@processRep
	DD	-52					; ffffffccH
	DD	8
	DD	$LN7@processRep
$LN7@processRep:
	DB	114					; 00000072H
	DB	101					; 00000065H
	DB	118					; 00000076H
	DB	95					; 0000005fH
	DB	111					; 0000006fH
	DB	117					; 00000075H
	DB	116					; 00000074H
	DB	112					; 00000070H
	DB	117					; 00000075H
	DB	116					; 00000074H
	DB	115					; 00000073H
	DB	0
$LN6@processRep:
	DB	114					; 00000072H
	DB	101					; 00000065H
	DB	118					; 00000076H
	DB	95					; 0000005fH
	DB	105					; 00000069H
	DB	110					; 0000006eH
	DB	112					; 00000070H
	DB	117					; 00000075H
	DB	116					; 00000074H
	DB	115					; 00000073H
	DB	0
?processReplacing@MisEfx@@UAEXPAPAM0H@Z ENDP		; MisEfx::processReplacing
_TEXT	ENDS
; Function compile flags: /Odtp /RTCsu
; File E:\FoxSuite\misefx\MisEfx\MisEfx.cpp
_TEXT	SEGMENT
_this$ = -4						; size = 4
??1MisEfx@@UAE@XZ PROC					; MisEfx::~MisEfx
; _this$ = ecx

; 612  : {

	push	ebp
	mov	ebp, esp
	push	ecx
	mov	DWORD PTR [ebp-4], -858993460		; ccccccccH
	mov	DWORD PTR _this$[ebp], ecx
	mov	eax, DWORD PTR _this$[ebp]
	mov	DWORD PTR [eax], OFFSET ??_7MisEfx@@6B@

; 613  :     //Free Reverb
; 614  :     Reverb->~Freeverb();

	push	0
	mov	ecx, DWORD PTR _this$[ebp]
	mov	ecx, DWORD PTR [ecx+236]
	call	??_GFreeverb@@QAEPAXI@Z

; 615  : 
; 616  :     // destroy chorus
; 617  :     //chorus->~ModDelay();
; 618  : 
; 619  :     // destroy lpf
; 620  :     outputLPF->~LPFButterworth();

	push	0
	mov	edx, DWORD PTR _this$[ebp]
	mov	ecx, DWORD PTR [edx+244]
	call	??_GLPFButterworth@@QAEPAXI@Z

; 621  : 
; 622  :     // destroy hpf
; 623  :     outputHPF->~HPFButterworth();

	push	0
	mov	eax, DWORD PTR _this$[ebp]
	mov	ecx, DWORD PTR [eax+248]
	call	??_GHPFButterworth@@QAEPAXI@Z

; 624  : 
; 625  :     // destroy tremolo
; 626  :     tremolo->~Tremolo();

	push	0
	mov	ecx, DWORD PTR _this$[ebp]
	mov	ecx, DWORD PTR [ecx+252]
	call	??_GTremolo@@QAEPAXI@Z

; 627  : }

	mov	ecx, DWORD PTR _this$[ebp]
	call	??1AudioEffectX@@UAE@XZ
	add	esp, 4
	cmp	ebp, esp
	call	__RTC_CheckEsp
	mov	esp, ebp
	pop	ebp
	ret	0
??1MisEfx@@UAE@XZ ENDP					; MisEfx::~MisEfx
_TEXT	ENDS
; Function compile flags: /Odtp /RTCsu
; File E:\FoxSuite\misefx\MisEfx\MisEfx.cpp
; File E:\FoxSuite\misefx\MisEfx\MisEfx.h
; File E:\FoxSuite\misefx\MisEfx\MisEfx.cpp
_TEXT	SEGMENT
_this$ = -16						; size = 4
__$EHRec$ = -12						; size = 12
_audioMaster$ = 8					; size = 4
??0MisEfx@@QAE@P6AHPAUAEffect@@HHHPAXM@Z@Z PROC		; MisEfx::MisEfx
; _this$ = ecx

; 33   : {

	push	ebp
	mov	ebp, esp
	push	-1
	push	__ehhandler$??0MisEfx@@QAE@P6AHPAUAEffect@@HHHPAXM@Z@Z
	mov	eax, DWORD PTR fs:0
	push	eax
	mov	DWORD PTR fs:0, esp
	push	ecx
	mov	DWORD PTR [ebp-16], -858993460		; ccccccccH
	mov	DWORD PTR _this$[ebp], ecx

; 32   :     : AudioEffectX(audioMaster, NUM_PRESETS, Param_Count) // n program, n parameters

	push	10					; 0000000aH
	push	5
	mov	eax, DWORD PTR _audioMaster$[ebp]
	push	eax
	mov	ecx, DWORD PTR _this$[ebp]
	call	??0AudioEffectX@@QAE@P6AHPAUAEffect@@HHHPAXM@ZHH@Z ; AudioEffectX::AudioEffectX
	mov	DWORD PTR __$EHRec$[ebp+8], 0

; 33   : {

	mov	ecx, DWORD PTR _this$[ebp]
	mov	DWORD PTR [ecx], OFFSET ??_7MisEfx@@6B@
; File E:\FoxSuite\misefx\MisEfx\MisEfx.h

; 61   : 	const float MAX_LPF_FREQUENCY_LOG = log(MAX_LPF_FREQUENCY);

	sub	esp, 8
	movsd	xmm0, QWORD PTR __real@40d28e0000000000
	movsd	QWORD PTR [esp], xmm0
	call	_log
	add	esp, 8
	mov	edx, DWORD PTR _this$[ebp]
	fstp	DWORD PTR [edx+176]

; 62   : 	const float MIN_LPF_FREQUENCY_LOG = log(MIN_LPF_FREQUENCY);

	sub	esp, 8
	movsd	xmm0, QWORD PTR __real@4034000000000000
	movsd	QWORD PTR [esp], xmm0
	call	_log
	add	esp, 8
	mov	eax, DWORD PTR _this$[ebp]
	fstp	DWORD PTR [eax+180]

; 63   : 	const float MAX_HPF_FREQUENCY_LOG = log(MAX_HPF_FREQUENCY);

	sub	esp, 8
	movsd	xmm0, QWORD PTR __real@40d09a0000000000
	movsd	QWORD PTR [esp], xmm0
	call	_log
	add	esp, 8
	mov	ecx, DWORD PTR _this$[ebp]
	fstp	DWORD PTR [ecx+184]

; 64   : 	const float MIN_HPF_FREQUENCY_LOG = log(MIN_HPF_FREQUENCY);

	sub	esp, 8
	movsd	xmm0, QWORD PTR __real@4024000000000000
	movsd	QWORD PTR [esp], xmm0
	call	_log
	add	esp, 8
	mov	edx, DWORD PTR _this$[ebp]
	fstp	DWORD PTR [edx+188]
; File E:\FoxSuite\misefx\MisEfx\MisEfx.cpp

; 34   :     setNumInputs(2);		// stereo in

	push	2
	mov	ecx, DWORD PTR _this$[ebp]
	call	?setNumInputs@AudioEffect@@UAEXH@Z	; AudioEffect::setNumInputs

; 35   :     setNumOutputs(2);		// stereo out

	push	2
	mov	ecx, DWORD PTR _this$[ebp]
	call	?setNumOutputs@AudioEffect@@UAEXH@Z	; AudioEffect::setNumOutputs

; 36   :     setUniqueID('vMis');	// identify    

	push	1984784755				; 764d6973H
	mov	ecx, DWORD PTR _this$[ebp]
	call	?setUniqueID@AudioEffect@@UAEXH@Z	; AudioEffect::setUniqueID

; 37   :     InitPlugin();

	mov	ecx, DWORD PTR _this$[ebp]
	call	?InitPlugin@MisEfx@@AAEXXZ		; MisEfx::InitPlugin

; 38   : }

	mov	DWORD PTR __$EHRec$[ebp+8], -1
	mov	eax, DWORD PTR _this$[ebp]
	mov	ecx, DWORD PTR __$EHRec$[ebp]
	mov	DWORD PTR fs:0, ecx
	add	esp, 16					; 00000010H
	cmp	ebp, esp
	call	__RTC_CheckEsp
	mov	esp, ebp
	pop	ebp
	ret	4
_TEXT	ENDS
text$x	SEGMENT
__unwindfunclet$??0MisEfx@@QAE@P6AHPAUAEffect@@HHHPAXM@Z@Z$0:
	mov	ecx, DWORD PTR _this$[ebp]
	jmp	??1AudioEffectX@@UAE@XZ
	int	3
	int	3
	int	3
	int	3
	int	3
__ehhandler$??0MisEfx@@QAE@P6AHPAUAEffect@@HHHPAXM@Z@Z:
	npad	1
	npad	1
	mov	eax, OFFSET __ehfuncinfo$??0MisEfx@@QAE@P6AHPAUAEffect@@HHHPAXM@Z@Z
	jmp	___CxxFrameHandler3
text$x	ENDS
??0MisEfx@@QAE@P6AHPAUAEffect@@HHHPAXM@Z@Z ENDP		; MisEfx::MisEfx
; Function compile flags: /Odtp /RTCsu
; File E:\FoxSuite\misefx\MisEfx\MisEfx.cpp
_TEXT	SEGMENT
$T1 = -12						; size = 4
_initIdx$ = -8						; size = 4
_this$ = -4						; size = 4
?InitPresets@MisEfx@@AAEXXZ PROC			; MisEfx::InitPresets
; _this$ = ecx

; 108  : {

	push	ebp
	mov	ebp, esp
	sub	esp, 12					; 0000000cH
	mov	DWORD PTR [ebp-12], -858993460		; ccccccccH
	mov	DWORD PTR [ebp-8], -858993460		; ccccccccH
	mov	DWORD PTR [ebp-4], -858993460		; ccccccccH
	mov	DWORD PTR _this$[ebp], ecx

; 109  :     rev_presets = new ReverbPresets[NUM_PRESETS];

	push	320					; 00000140H
	call	??_U@YAPAXI@Z				; operator new[]
	add	esp, 4
	mov	DWORD PTR $T1[ebp], eax
	mov	eax, DWORD PTR _this$[ebp]
	mov	ecx, DWORD PTR $T1[ebp]
	mov	DWORD PTR [eax+192], ecx

; 110  : 
; 111  :     /*----------------------------------------------------*/
; 112  :     // "Default" preset
; 113  :     strcpy(rev_presets[0].name, "Default");

	push	OFFSET $SG10620
	mov	edx, 64					; 00000040H
	imul	eax, edx, 0
	mov	ecx, DWORD PTR _this$[ebp]
	mov	edx, DWORD PTR [ecx+192]
	lea	eax, DWORD PTR [edx+eax+40]
	push	eax
	call	_strcpy
	add	esp, 8

; 114  :     rev_presets[0].rev_wet = 0.2;                        // given as a number between 0 and 1

	mov	ecx, 64					; 00000040H
	imul	edx, ecx, 0
	mov	eax, DWORD PTR _this$[ebp]
	mov	ecx, DWORD PTR [eax+192]
	movss	xmm0, DWORD PTR __real@3e4ccccd
	movss	DWORD PTR [ecx+edx], xmm0

; 115  :     rev_presets[0].rev_decay = 1.0;                      // given in seconds

	mov	edx, 64					; 00000040H
	imul	eax, edx, 0
	mov	ecx, DWORD PTR _this$[ebp]
	mov	edx, DWORD PTR [ecx+192]
	movss	xmm0, DWORD PTR __real@3f800000
	movss	DWORD PTR [edx+eax+8], xmm0

; 116  :     rev_presets[0].rev_smearing = 0.7;                   // given as a number between 0 and 1

	mov	eax, 64					; 00000040H
	imul	ecx, eax, 0
	mov	edx, DWORD PTR _this$[ebp]
	mov	eax, DWORD PTR [edx+192]
	movss	xmm0, DWORD PTR __real@3f333333
	movss	DWORD PTR [eax+ecx+4], xmm0

; 117  :     rev_presets[0].rev_damping = 0.5;                    // given as a number between 0 and 1

	mov	ecx, 64					; 00000040H
	imul	edx, ecx, 0
	mov	eax, DWORD PTR _this$[ebp]
	mov	ecx, DWORD PTR [eax+192]
	movss	xmm0, DWORD PTR __real@3f000000
	movss	DWORD PTR [ecx+edx+12], xmm0

; 118  :     rev_presets[0].rev_lpfFreq = MAX_LPF_FREQUENCY;      // given as a frequency

	mov	edx, 64					; 00000040H
	imul	eax, edx, 0
	mov	ecx, DWORD PTR _this$[ebp]
	mov	edx, DWORD PTR [ecx+192]
	movss	xmm0, DWORD PTR __real@46947000
	movss	DWORD PTR [edx+eax+16], xmm0

; 119  :     rev_presets[0].rev_hpfFreq = MIN_HPF_FREQUENCY;      // given as a frequency

	mov	eax, 64					; 00000040H
	imul	ecx, eax, 0
	mov	edx, DWORD PTR _this$[ebp]
	mov	eax, DWORD PTR [edx+192]
	movss	xmm0, DWORD PTR __real@41200000
	movss	DWORD PTR [eax+ecx+20], xmm0

; 120  :     rev_presets[0].rev_preDelay = 10;                    // given in milliseconds

	mov	ecx, 64					; 00000040H
	imul	edx, ecx, 0
	mov	eax, DWORD PTR _this$[ebp]
	mov	ecx, DWORD PTR [eax+192]
	movss	xmm0, DWORD PTR __real@41200000
	movss	DWORD PTR [ecx+edx+24], xmm0

; 121  :     rev_presets[0].rev_modRate = 1.0;                    // given in hz

	mov	edx, 64					; 00000040H
	imul	eax, edx, 0
	mov	ecx, DWORD PTR _this$[ebp]
	mov	edx, DWORD PTR [ecx+192]
	movss	xmm0, DWORD PTR __real@3f800000
	movss	DWORD PTR [edx+eax+28], xmm0

; 122  :     rev_presets[0].rev_modDepth = 0.3;                   // given as a number between 0 and 1

	mov	eax, 64					; 00000040H
	imul	ecx, eax, 0
	mov	edx, DWORD PTR _this$[ebp]
	mov	eax, DWORD PTR [edx+192]
	movss	xmm0, DWORD PTR __real@3e99999a
	movss	DWORD PTR [eax+ecx+32], xmm0

; 123  :     rev_presets[0].rev_spread = 0.3;                     // given as a number between 0 and 1

	mov	ecx, 64					; 00000040H
	imul	edx, ecx, 0
	mov	eax, DWORD PTR _this$[ebp]
	mov	ecx, DWORD PTR [eax+192]
	movss	xmm0, DWORD PTR __real@3e99999a
	movss	DWORD PTR [ecx+edx+36], xmm0

; 124  : 
; 125  :     /*----------------------------------------------------*/
; 126  :     // "Dreamy" preset
; 127  :     strcpy(rev_presets[1].name, "Dreamy");

	push	OFFSET $SG10621
	mov	edx, 64					; 00000040H
	shl	edx, 0
	mov	eax, DWORD PTR _this$[ebp]
	mov	ecx, DWORD PTR [eax+192]
	lea	edx, DWORD PTR [ecx+edx+40]
	push	edx
	call	_strcpy
	add	esp, 8

; 128  :     rev_presets[1].rev_wet = 0.5;

	mov	eax, 64					; 00000040H
	shl	eax, 0
	mov	ecx, DWORD PTR _this$[ebp]
	mov	edx, DWORD PTR [ecx+192]
	movss	xmm0, DWORD PTR __real@3f000000
	movss	DWORD PTR [edx+eax], xmm0

; 129  :     rev_presets[1].rev_decay = 3.3;

	mov	eax, 64					; 00000040H
	shl	eax, 0
	mov	ecx, DWORD PTR _this$[ebp]
	mov	edx, DWORD PTR [ecx+192]
	movss	xmm0, DWORD PTR __real@40533333
	movss	DWORD PTR [edx+eax+8], xmm0

; 130  :     rev_presets[1].rev_smearing = 0.8;

	mov	eax, 64					; 00000040H
	shl	eax, 0
	mov	ecx, DWORD PTR _this$[ebp]
	mov	edx, DWORD PTR [ecx+192]
	movss	xmm0, DWORD PTR __real@3f4ccccd
	movss	DWORD PTR [edx+eax+4], xmm0

; 131  :     rev_presets[1].rev_damping = 0.6;

	mov	eax, 64					; 00000040H
	shl	eax, 0
	mov	ecx, DWORD PTR _this$[ebp]
	mov	edx, DWORD PTR [ecx+192]
	movss	xmm0, DWORD PTR __real@3f19999a
	movss	DWORD PTR [edx+eax+12], xmm0

; 132  :     rev_presets[1].rev_lpfFreq = 17000.0;

	mov	eax, 64					; 00000040H
	shl	eax, 0
	mov	ecx, DWORD PTR _this$[ebp]
	mov	edx, DWORD PTR [ecx+192]
	movss	xmm0, DWORD PTR __real@4684d000
	movss	DWORD PTR [edx+eax+16], xmm0

; 133  :     rev_presets[1].rev_hpfFreq = 200.0;

	mov	eax, 64					; 00000040H
	shl	eax, 0
	mov	ecx, DWORD PTR _this$[ebp]
	mov	edx, DWORD PTR [ecx+192]
	movss	xmm0, DWORD PTR __real@43480000
	movss	DWORD PTR [edx+eax+20], xmm0

; 134  :     rev_presets[1].rev_preDelay = 80;

	mov	eax, 64					; 00000040H
	shl	eax, 0
	mov	ecx, DWORD PTR _this$[ebp]
	mov	edx, DWORD PTR [ecx+192]
	movss	xmm0, DWORD PTR __real@42a00000
	movss	DWORD PTR [edx+eax+24], xmm0

; 135  :     rev_presets[1].rev_modRate = 1.0;

	mov	eax, 64					; 00000040H
	shl	eax, 0
	mov	ecx, DWORD PTR _this$[ebp]
	mov	edx, DWORD PTR [ecx+192]
	movss	xmm0, DWORD PTR __real@3f800000
	movss	DWORD PTR [edx+eax+28], xmm0

; 136  :     rev_presets[1].rev_modDepth = 0.6;

	mov	eax, 64					; 00000040H
	shl	eax, 0
	mov	ecx, DWORD PTR _this$[ebp]
	mov	edx, DWORD PTR [ecx+192]
	movss	xmm0, DWORD PTR __real@3f19999a
	movss	DWORD PTR [edx+eax+32], xmm0

; 137  :     rev_presets[1].rev_spread = 1.0;

	mov	eax, 64					; 00000040H
	shl	eax, 0
	mov	ecx, DWORD PTR _this$[ebp]
	mov	edx, DWORD PTR [ecx+192]
	movss	xmm0, DWORD PTR __real@3f800000
	movss	DWORD PTR [edx+eax+36], xmm0

; 138  : 
; 139  :     /*----------------------------------------------------*/
; 140  :     // "Short" preset
; 141  :     strcpy(rev_presets[2].name, "Short");

	push	OFFSET $SG10622
	mov	eax, 64					; 00000040H
	shl	eax, 1
	mov	ecx, DWORD PTR _this$[ebp]
	mov	edx, DWORD PTR [ecx+192]
	lea	eax, DWORD PTR [edx+eax+40]
	push	eax
	call	_strcpy
	add	esp, 8

; 142  :     rev_presets[2].rev_wet = 0.2;

	mov	ecx, 64					; 00000040H
	shl	ecx, 1
	mov	edx, DWORD PTR _this$[ebp]
	mov	eax, DWORD PTR [edx+192]
	movss	xmm0, DWORD PTR __real@3e4ccccd
	movss	DWORD PTR [eax+ecx], xmm0

; 143  :     rev_presets[2].rev_decay = 2;

	mov	ecx, 64					; 00000040H
	shl	ecx, 1
	mov	edx, DWORD PTR _this$[ebp]
	mov	eax, DWORD PTR [edx+192]
	movss	xmm0, DWORD PTR __real@40000000
	movss	DWORD PTR [eax+ecx+8], xmm0

; 144  :     rev_presets[2].rev_smearing = 0.5;

	mov	ecx, 64					; 00000040H
	shl	ecx, 1
	mov	edx, DWORD PTR _this$[ebp]
	mov	eax, DWORD PTR [edx+192]
	movss	xmm0, DWORD PTR __real@3f000000
	movss	DWORD PTR [eax+ecx+4], xmm0

; 145  :     rev_presets[2].rev_damping = 0.4;

	mov	ecx, 64					; 00000040H
	shl	ecx, 1
	mov	edx, DWORD PTR _this$[ebp]
	mov	eax, DWORD PTR [edx+192]
	movss	xmm0, DWORD PTR __real@3ecccccd
	movss	DWORD PTR [eax+ecx+12], xmm0

; 146  :     rev_presets[2].rev_lpfFreq = MAX_LPF_FREQUENCY;

	mov	ecx, 64					; 00000040H
	shl	ecx, 1
	mov	edx, DWORD PTR _this$[ebp]
	mov	eax, DWORD PTR [edx+192]
	movss	xmm0, DWORD PTR __real@46947000
	movss	DWORD PTR [eax+ecx+16], xmm0

; 147  :     rev_presets[2].rev_hpfFreq = MIN_HPF_FREQUENCY;

	mov	ecx, 64					; 00000040H
	shl	ecx, 1
	mov	edx, DWORD PTR _this$[ebp]
	mov	eax, DWORD PTR [edx+192]
	movss	xmm0, DWORD PTR __real@41200000
	movss	DWORD PTR [eax+ecx+20], xmm0

; 148  :     rev_presets[2].rev_preDelay = 20;

	mov	ecx, 64					; 00000040H
	shl	ecx, 1
	mov	edx, DWORD PTR _this$[ebp]
	mov	eax, DWORD PTR [edx+192]
	movss	xmm0, DWORD PTR __real@41a00000
	movss	DWORD PTR [eax+ecx+24], xmm0

; 149  :     rev_presets[2].rev_modRate = 1.0;

	mov	ecx, 64					; 00000040H
	shl	ecx, 1
	mov	edx, DWORD PTR _this$[ebp]
	mov	eax, DWORD PTR [edx+192]
	movss	xmm0, DWORD PTR __real@3f800000
	movss	DWORD PTR [eax+ecx+28], xmm0

; 150  :     rev_presets[2].rev_modDepth = 0.1;

	mov	ecx, 64					; 00000040H
	shl	ecx, 1
	mov	edx, DWORD PTR _this$[ebp]
	mov	eax, DWORD PTR [edx+192]
	movss	xmm0, DWORD PTR __real@3dcccccd
	movss	DWORD PTR [eax+ecx+32], xmm0

; 151  :     rev_presets[2].rev_spread = 0.2;

	mov	ecx, 64					; 00000040H
	shl	ecx, 1
	mov	edx, DWORD PTR _this$[ebp]
	mov	eax, DWORD PTR [edx+192]
	movss	xmm0, DWORD PTR __real@3e4ccccd
	movss	DWORD PTR [eax+ecx+36], xmm0

; 152  : 
; 153  :     /*----------------------------------------------------*/
; 154  :     // "Metallic" preset
; 155  :     strcpy(rev_presets[3].name, "Metallic");

	push	OFFSET $SG10623
	mov	ecx, 64					; 00000040H
	imul	edx, ecx, 3
	mov	eax, DWORD PTR _this$[ebp]
	mov	ecx, DWORD PTR [eax+192]
	lea	edx, DWORD PTR [ecx+edx+40]
	push	edx
	call	_strcpy
	add	esp, 8

; 156  :     rev_presets[3].rev_wet = 0.5;

	mov	eax, 64					; 00000040H
	imul	ecx, eax, 3
	mov	edx, DWORD PTR _this$[ebp]
	mov	eax, DWORD PTR [edx+192]
	movss	xmm0, DWORD PTR __real@3f000000
	movss	DWORD PTR [eax+ecx], xmm0

; 157  :     rev_presets[3].rev_decay = 2.2;

	mov	ecx, 64					; 00000040H
	imul	edx, ecx, 3
	mov	eax, DWORD PTR _this$[ebp]
	mov	ecx, DWORD PTR [eax+192]
	movss	xmm0, DWORD PTR __real@400ccccd
	movss	DWORD PTR [ecx+edx+8], xmm0

; 158  :     rev_presets[3].rev_smearing = 0.0;

	mov	edx, 64					; 00000040H
	imul	eax, edx, 3
	mov	ecx, DWORD PTR _this$[ebp]
	mov	edx, DWORD PTR [ecx+192]
	xorps	xmm0, xmm0
	movss	DWORD PTR [edx+eax+4], xmm0

; 159  :     rev_presets[3].rev_damping = 0.0;

	mov	eax, 64					; 00000040H
	imul	ecx, eax, 3
	mov	edx, DWORD PTR _this$[ebp]
	mov	eax, DWORD PTR [edx+192]
	xorps	xmm0, xmm0
	movss	DWORD PTR [eax+ecx+12], xmm0

; 160  :     rev_presets[3].rev_lpfFreq = MAX_LPF_FREQUENCY;

	mov	ecx, 64					; 00000040H
	imul	edx, ecx, 3
	mov	eax, DWORD PTR _this$[ebp]
	mov	ecx, DWORD PTR [eax+192]
	movss	xmm0, DWORD PTR __real@46947000
	movss	DWORD PTR [ecx+edx+16], xmm0

; 161  :     rev_presets[3].rev_hpfFreq = 650.0;

	mov	edx, 64					; 00000040H
	imul	eax, edx, 3
	mov	ecx, DWORD PTR _this$[ebp]
	mov	edx, DWORD PTR [ecx+192]
	movss	xmm0, DWORD PTR __real@44228000
	movss	DWORD PTR [edx+eax+20], xmm0

; 162  :     rev_presets[3].rev_preDelay = 20;

	mov	eax, 64					; 00000040H
	imul	ecx, eax, 3
	mov	edx, DWORD PTR _this$[ebp]
	mov	eax, DWORD PTR [edx+192]
	movss	xmm0, DWORD PTR __real@41a00000
	movss	DWORD PTR [eax+ecx+24], xmm0

; 163  :     rev_presets[3].rev_modRate = 0.1;

	mov	ecx, 64					; 00000040H
	imul	edx, ecx, 3
	mov	eax, DWORD PTR _this$[ebp]
	mov	ecx, DWORD PTR [eax+192]
	movss	xmm0, DWORD PTR __real@3dcccccd
	movss	DWORD PTR [ecx+edx+28], xmm0

; 164  :     rev_presets[3].rev_modDepth = 0.0;

	mov	edx, 64					; 00000040H
	imul	eax, edx, 3
	mov	ecx, DWORD PTR _this$[ebp]
	mov	edx, DWORD PTR [ecx+192]
	xorps	xmm0, xmm0
	movss	DWORD PTR [edx+eax+32], xmm0

; 165  :     rev_presets[3].rev_spread = 1.0;

	mov	eax, 64					; 00000040H
	imul	ecx, eax, 3
	mov	edx, DWORD PTR _this$[ebp]
	mov	eax, DWORD PTR [edx+192]
	movss	xmm0, DWORD PTR __real@3f800000
	movss	DWORD PTR [eax+ecx+36], xmm0

; 166  : 
; 167  :     /*----------------------------------------------------*/
; 168  :     // "Wobbly" preset
; 169  :     strcpy(rev_presets[4].name, "Wobbly");

	push	OFFSET $SG10624
	mov	ecx, 64					; 00000040H
	shl	ecx, 2
	mov	edx, DWORD PTR _this$[ebp]
	mov	eax, DWORD PTR [edx+192]
	lea	ecx, DWORD PTR [eax+ecx+40]
	push	ecx
	call	_strcpy
	add	esp, 8

; 170  :     rev_presets[4].rev_wet = 0.65;

	mov	edx, 64					; 00000040H
	shl	edx, 2
	mov	eax, DWORD PTR _this$[ebp]
	mov	ecx, DWORD PTR [eax+192]
	movss	xmm0, DWORD PTR __real@3f266666
	movss	DWORD PTR [ecx+edx], xmm0

; 171  :     rev_presets[4].rev_decay = 2.0;

	mov	edx, 64					; 00000040H
	shl	edx, 2
	mov	eax, DWORD PTR _this$[ebp]
	mov	ecx, DWORD PTR [eax+192]
	movss	xmm0, DWORD PTR __real@40000000
	movss	DWORD PTR [ecx+edx+8], xmm0

; 172  :     rev_presets[4].rev_smearing = 0.7;

	mov	edx, 64					; 00000040H
	shl	edx, 2
	mov	eax, DWORD PTR _this$[ebp]
	mov	ecx, DWORD PTR [eax+192]
	movss	xmm0, DWORD PTR __real@3f333333
	movss	DWORD PTR [ecx+edx+4], xmm0

; 173  :     rev_presets[4].rev_damping = 0.3;

	mov	edx, 64					; 00000040H
	shl	edx, 2
	mov	eax, DWORD PTR _this$[ebp]
	mov	ecx, DWORD PTR [eax+192]
	movss	xmm0, DWORD PTR __real@3e99999a
	movss	DWORD PTR [ecx+edx+12], xmm0

; 174  :     rev_presets[4].rev_lpfFreq = 15000.0;

	mov	edx, 64					; 00000040H
	shl	edx, 2
	mov	eax, DWORD PTR _this$[ebp]
	mov	ecx, DWORD PTR [eax+192]
	movss	xmm0, DWORD PTR __real@466a6000
	movss	DWORD PTR [ecx+edx+16], xmm0

; 175  :     rev_presets[4].rev_hpfFreq = 500.0;

	mov	edx, 64					; 00000040H
	shl	edx, 2
	mov	eax, DWORD PTR _this$[ebp]
	mov	ecx, DWORD PTR [eax+192]
	movss	xmm0, DWORD PTR __real@43fa0000
	movss	DWORD PTR [ecx+edx+20], xmm0

; 176  :     rev_presets[4].rev_preDelay = 20;

	mov	edx, 64					; 00000040H
	shl	edx, 2
	mov	eax, DWORD PTR _this$[ebp]
	mov	ecx, DWORD PTR [eax+192]
	movss	xmm0, DWORD PTR __real@41a00000
	movss	DWORD PTR [ecx+edx+24], xmm0

; 177  :     rev_presets[4].rev_modRate = 3.0;

	mov	edx, 64					; 00000040H
	shl	edx, 2
	mov	eax, DWORD PTR _this$[ebp]
	mov	ecx, DWORD PTR [eax+192]
	movss	xmm0, DWORD PTR __real@40400000
	movss	DWORD PTR [ecx+edx+28], xmm0

; 178  :     rev_presets[4].rev_modDepth = 1.0;

	mov	edx, 64					; 00000040H
	shl	edx, 2
	mov	eax, DWORD PTR _this$[ebp]
	mov	ecx, DWORD PTR [eax+192]
	movss	xmm0, DWORD PTR __real@3f800000
	movss	DWORD PTR [ecx+edx+32], xmm0

; 179  :     rev_presets[4].rev_spread = 0.3;

	mov	edx, 64					; 00000040H
	shl	edx, 2
	mov	eax, DWORD PTR _this$[ebp]
	mov	ecx, DWORD PTR [eax+192]
	movss	xmm0, DWORD PTR __real@3e99999a
	movss	DWORD PTR [ecx+edx+36], xmm0

; 180  : 
; 181  :     // Set the program when creating a new plugin instance
; 182  :     int initIdx = 0;

	mov	DWORD PTR _initIdx$[ebp], 0

; 183  :     AudioEffect::setProgram(initIdx);

	mov	edx, DWORD PTR _initIdx$[ebp]
	push	edx
	mov	ecx, DWORD PTR _this$[ebp]
	call	?setProgram@AudioEffect@@UAEXH@Z	; AudioEffect::setProgram

; 184  :     rev_wet = rev_presets[initIdx].rev_wet;

	mov	eax, DWORD PTR _initIdx$[ebp]
	shl	eax, 6
	mov	ecx, DWORD PTR _this$[ebp]
	mov	edx, DWORD PTR [ecx+192]
	mov	ecx, DWORD PTR _this$[ebp]
	mov	edx, DWORD PTR [edx+eax]
	mov	DWORD PTR [ecx+196], edx

; 185  :     rev_decay = rev_presets[initIdx].rev_decay;

	mov	eax, DWORD PTR _initIdx$[ebp]
	shl	eax, 6
	mov	ecx, DWORD PTR _this$[ebp]
	mov	edx, DWORD PTR [ecx+192]
	mov	ecx, DWORD PTR _this$[ebp]
	mov	edx, DWORD PTR [edx+eax+8]
	mov	DWORD PTR [ecx+204], edx

; 186  :     rev_smearing = rev_presets[initIdx].rev_smearing;

	mov	eax, DWORD PTR _initIdx$[ebp]
	shl	eax, 6
	mov	ecx, DWORD PTR _this$[ebp]
	mov	edx, DWORD PTR [ecx+192]
	mov	ecx, DWORD PTR _this$[ebp]
	mov	edx, DWORD PTR [edx+eax+4]
	mov	DWORD PTR [ecx+200], edx

; 187  :     rev_damping = rev_presets[initIdx].rev_damping;

	mov	eax, DWORD PTR _initIdx$[ebp]
	shl	eax, 6
	mov	ecx, DWORD PTR _this$[ebp]
	mov	edx, DWORD PTR [ecx+192]
	mov	ecx, DWORD PTR _this$[ebp]
	mov	edx, DWORD PTR [edx+eax+12]
	mov	DWORD PTR [ecx+208], edx

; 188  :     rev_lpfFreq = rev_presets[initIdx].rev_lpfFreq;

	mov	eax, DWORD PTR _initIdx$[ebp]
	shl	eax, 6
	mov	ecx, DWORD PTR _this$[ebp]
	mov	edx, DWORD PTR [ecx+192]
	mov	ecx, DWORD PTR _this$[ebp]
	mov	edx, DWORD PTR [edx+eax+16]
	mov	DWORD PTR [ecx+212], edx

; 189  :     rev_hpfFreq = rev_presets[initIdx].rev_hpfFreq;

	mov	eax, DWORD PTR _initIdx$[ebp]
	shl	eax, 6
	mov	ecx, DWORD PTR _this$[ebp]
	mov	edx, DWORD PTR [ecx+192]
	mov	ecx, DWORD PTR _this$[ebp]
	mov	edx, DWORD PTR [edx+eax+20]
	mov	DWORD PTR [ecx+216], edx

; 190  :     rev_preDelay = rev_presets[initIdx].rev_preDelay;

	mov	eax, DWORD PTR _initIdx$[ebp]
	shl	eax, 6
	mov	ecx, DWORD PTR _this$[ebp]
	mov	edx, DWORD PTR [ecx+192]
	mov	ecx, DWORD PTR _this$[ebp]
	mov	edx, DWORD PTR [edx+eax+24]
	mov	DWORD PTR [ecx+220], edx

; 191  :     rev_modRate = rev_presets[initIdx].rev_modRate;

	mov	eax, DWORD PTR _initIdx$[ebp]
	shl	eax, 6
	mov	ecx, DWORD PTR _this$[ebp]
	mov	edx, DWORD PTR [ecx+192]
	mov	ecx, DWORD PTR _this$[ebp]
	mov	edx, DWORD PTR [edx+eax+28]
	mov	DWORD PTR [ecx+224], edx

; 192  :     rev_modDepth = rev_presets[initIdx].rev_modDepth;

	mov	eax, DWORD PTR _initIdx$[ebp]
	shl	eax, 6
	mov	ecx, DWORD PTR _this$[ebp]
	mov	edx, DWORD PTR [ecx+192]
	mov	ecx, DWORD PTR _this$[ebp]
	mov	edx, DWORD PTR [edx+eax+32]
	mov	DWORD PTR [ecx+228], edx

; 193  :     rev_spread = rev_presets[initIdx].rev_spread;

	mov	eax, DWORD PTR _initIdx$[ebp]
	shl	eax, 6
	mov	ecx, DWORD PTR _this$[ebp]
	mov	edx, DWORD PTR [ecx+192]
	mov	ecx, DWORD PTR _this$[ebp]
	mov	edx, DWORD PTR [edx+eax+36]
	mov	DWORD PTR [ecx+232], edx

; 194  : 
; 195  : }

	add	esp, 12					; 0000000cH
	cmp	ebp, esp
	call	__RTC_CheckEsp
	mov	esp, ebp
	pop	ebp
	ret	0
?InitPresets@MisEfx@@AAEXXZ ENDP			; MisEfx::InitPresets
_TEXT	ENDS
; Function compile flags: /Odtp /RTCsu
; File E:\FoxSuite\misefx\MisEfx\MisEfx.cpp
_TEXT	SEGMENT
tv70 = -8						; size = 4
_this$ = -4						; size = 4
_value$ = 8						; size = 4
_minValue$ = 12						; size = 4
_maxValue$ = 16						; size = 4
?mapValueOutsideRange@MisEfx@@AAEMMMM@Z PROC		; MisEfx::mapValueOutsideRange
; _this$ = ecx

; 258  : {

	push	ebp
	mov	ebp, esp
	sub	esp, 8
	mov	DWORD PTR _this$[ebp], ecx

; 259  :     return (value - minValue) / (maxValue - minValue);

	movss	xmm0, DWORD PTR _value$[ebp]
	subss	xmm0, DWORD PTR _minValue$[ebp]
	movss	xmm1, DWORD PTR _maxValue$[ebp]
	subss	xmm1, DWORD PTR _minValue$[ebp]
	divss	xmm0, xmm1
	movss	DWORD PTR tv70[ebp], xmm0
	fld	DWORD PTR tv70[ebp]

; 260  : }

	mov	esp, ebp
	pop	ebp
	ret	12					; 0000000cH
?mapValueOutsideRange@MisEfx@@AAEMMMM@Z ENDP		; MisEfx::mapValueOutsideRange
_TEXT	ENDS
; Function compile flags: /Odtp /RTCsu
; File E:\FoxSuite\misefx\MisEfx\MisEfx.cpp
_TEXT	SEGMENT
tv71 = -8						; size = 4
_this$ = -4						; size = 4
_value$ = 8						; size = 4
_minvalue$ = 12						; size = 4
_maxValue$ = 16						; size = 4
?mapValueIntoRange@MisEfx@@AAEMMMM@Z PROC		; MisEfx::mapValueIntoRange
; _this$ = ecx

; 250  : {

	push	ebp
	mov	ebp, esp
	sub	esp, 8
	mov	DWORD PTR _this$[ebp], ecx

; 251  :     return minvalue + value * (maxValue - minvalue);

	movss	xmm0, DWORD PTR _maxValue$[ebp]
	subss	xmm0, DWORD PTR _minvalue$[ebp]
	mulss	xmm0, DWORD PTR _value$[ebp]
	addss	xmm0, DWORD PTR _minvalue$[ebp]
	movss	DWORD PTR tv71[ebp], xmm0
	fld	DWORD PTR tv71[ebp]

; 252  : }

	mov	esp, ebp
	pop	ebp
	ret	12					; 0000000cH
?mapValueIntoRange@MisEfx@@AAEMMMM@Z ENDP		; MisEfx::mapValueIntoRange
_TEXT	ENDS
; Function compile flags: /Odtp /RTCsu
; File E:\FoxSuite\misefx\MisEfx\MisEfx.cpp
_TEXT	SEGMENT
tv183 = -68						; size = 4
tv164 = -64						; size = 4
tv145 = -60						; size = 4
tv86 = -56						; size = 4
$T2 = -52						; size = 4
$T3 = -48						; size = 4
$T4 = -44						; size = 4
$T5 = -40						; size = 4
$T6 = -36						; size = 4
$T7 = -32						; size = 4
$T8 = -28						; size = 4
$T9 = -24						; size = 4
_currSampleRate$ = -20					; size = 4
_this$ = -16						; size = 4
__$EHRec$ = -12						; size = 12
?InitPlugin@MisEfx@@AAEXXZ PROC				; MisEfx::InitPlugin
; _this$ = ecx

; 51   : {

	push	ebp
	mov	ebp, esp
	push	-1
	push	__ehhandler$?InitPlugin@MisEfx@@AAEXXZ
	mov	eax, DWORD PTR fs:0
	push	eax
	mov	DWORD PTR fs:0, esp
	sub	esp, 56					; 00000038H
	push	esi
	push	edi
	push	ecx
	lea	edi, DWORD PTR [ebp-68]
	mov	ecx, 14					; 0000000eH
	mov	eax, -858993460				; ccccccccH
	rep stosd
	pop	ecx
	mov	DWORD PTR _this$[ebp], ecx

; 52   :     /*.......................................*/
; 53   :     // initialize reverb plug-in parameters
; 54   :     InitPresets();

	mov	ecx, DWORD PTR _this$[ebp]
	call	?InitPresets@MisEfx@@AAEXXZ		; MisEfx::InitPresets

; 55   : 
; 56   :     // get current sample rate
; 57   :     int currSampleRate = getSampleRate();

	mov	eax, DWORD PTR _this$[ebp]
	mov	edx, DWORD PTR [eax]
	mov	esi, esp
	mov	ecx, DWORD PTR _this$[ebp]
	mov	eax, DWORD PTR [edx+124]
	call	eax
	cmp	esi, esp
	call	__RTC_CheckEsp
	call	__ftol2_sse
	mov	DWORD PTR _currSampleRate$[ebp], eax

; 58   : 
; 59   :     /*.......................................*/
; 60   :     // init Reverb
; 61   :     Reverb = new Freeverb();

	push	176					; 000000b0H
	call	??2@YAPAXI@Z				; operator new
	add	esp, 4
	mov	DWORD PTR $T8[ebp], eax
	mov	DWORD PTR __$EHRec$[ebp+8], 0
	cmp	DWORD PTR $T8[ebp], 0
	je	SHORT $LN3@InitPlugin
	mov	ecx, DWORD PTR $T8[ebp]
	call	??0Freeverb@@QAE@XZ			; Freeverb::Freeverb
	mov	DWORD PTR tv86[ebp], eax
	jmp	SHORT $LN4@InitPlugin
$LN3@InitPlugin:
	mov	DWORD PTR tv86[ebp], 0
$LN4@InitPlugin:
	mov	ecx, DWORD PTR tv86[ebp]
	mov	DWORD PTR $T9[ebp], ecx
	mov	DWORD PTR __$EHRec$[ebp+8], -1
	mov	edx, DWORD PTR _this$[ebp]
	mov	eax, DWORD PTR $T9[ebp]
	mov	DWORD PTR [edx+236], eax

; 62   :     Reverb->init(currSampleRate, rev_wet, rev_decay, rev_damping, rev_smearing, rev_spread, rev_preDelay);

	mov	ecx, DWORD PTR _this$[ebp]
	push	ecx
	movss	xmm0, DWORD PTR [ecx+220]
	movss	DWORD PTR [esp], xmm0
	mov	edx, DWORD PTR _this$[ebp]
	push	ecx
	movss	xmm0, DWORD PTR [edx+232]
	movss	DWORD PTR [esp], xmm0
	mov	eax, DWORD PTR _this$[ebp]
	push	ecx
	movss	xmm0, DWORD PTR [eax+200]
	movss	DWORD PTR [esp], xmm0
	mov	ecx, DWORD PTR _this$[ebp]
	push	ecx
	movss	xmm0, DWORD PTR [ecx+208]
	movss	DWORD PTR [esp], xmm0
	mov	edx, DWORD PTR _this$[ebp]
	push	ecx
	movss	xmm0, DWORD PTR [edx+204]
	movss	DWORD PTR [esp], xmm0
	mov	eax, DWORD PTR _this$[ebp]
	push	ecx
	movss	xmm0, DWORD PTR [eax+196]
	movss	DWORD PTR [esp], xmm0
	mov	ecx, DWORD PTR _currSampleRate$[ebp]
	push	ecx
	mov	edx, DWORD PTR _this$[ebp]
	mov	ecx, DWORD PTR [edx+236]
	call	?init@Freeverb@@QAEXHMMMMMM@Z		; Freeverb::init

; 63   : 
; 64   :     /*.......................................*/
; 65   :     // init Output LPF filter
; 66   :     outputLPF = new LPFButterworth;

	push	48					; 00000030H
	call	??2@YAPAXI@Z				; operator new
	add	esp, 4
	mov	DWORD PTR $T6[ebp], eax
	mov	DWORD PTR __$EHRec$[ebp+8], 1
	cmp	DWORD PTR $T6[ebp], 0
	je	SHORT $LN5@InitPlugin
	mov	ecx, DWORD PTR $T6[ebp]
	call	??0LPFButterworth@@QAE@XZ		; LPFButterworth::LPFButterworth
	mov	DWORD PTR tv145[ebp], eax
	jmp	SHORT $LN6@InitPlugin
$LN5@InitPlugin:
	mov	DWORD PTR tv145[ebp], 0
$LN6@InitPlugin:
	mov	eax, DWORD PTR tv145[ebp]
	mov	DWORD PTR $T7[ebp], eax
	mov	DWORD PTR __$EHRec$[ebp+8], -1
	mov	ecx, DWORD PTR _this$[ebp]
	mov	edx, DWORD PTR $T7[ebp]
	mov	DWORD PTR [ecx+244], edx

; 67   :     outputLPF->init(currSampleRate);

	mov	eax, DWORD PTR _currSampleRate$[ebp]
	push	eax
	mov	ecx, DWORD PTR _this$[ebp]
	mov	ecx, DWORD PTR [ecx+244]
	call	?init@LPFButterworth@@QAEXH@Z		; LPFButterworth::init

; 68   :     outputLPF->setCutoffFrequency(rev_lpfFreq);

	mov	edx, DWORD PTR _this$[ebp]
	push	ecx
	movss	xmm0, DWORD PTR [edx+212]
	movss	DWORD PTR [esp], xmm0
	mov	eax, DWORD PTR _this$[ebp]
	mov	ecx, DWORD PTR [eax+244]
	call	?setCutoffFrequency@LPFButterworth@@QAEXM@Z ; LPFButterworth::setCutoffFrequency

; 69   : 
; 70   :     /*.......................................*/
; 71   :     // init Output HPF filter
; 72   :     outputHPF = new HPFButterworth;

	push	48					; 00000030H
	call	??2@YAPAXI@Z				; operator new
	add	esp, 4
	mov	DWORD PTR $T4[ebp], eax
	mov	DWORD PTR __$EHRec$[ebp+8], 2
	cmp	DWORD PTR $T4[ebp], 0
	je	SHORT $LN7@InitPlugin
	mov	ecx, DWORD PTR $T4[ebp]
	call	??0HPFButterworth@@QAE@XZ		; HPFButterworth::HPFButterworth
	mov	DWORD PTR tv164[ebp], eax
	jmp	SHORT $LN8@InitPlugin
$LN7@InitPlugin:
	mov	DWORD PTR tv164[ebp], 0
$LN8@InitPlugin:
	mov	ecx, DWORD PTR tv164[ebp]
	mov	DWORD PTR $T5[ebp], ecx
	mov	DWORD PTR __$EHRec$[ebp+8], -1
	mov	edx, DWORD PTR _this$[ebp]
	mov	eax, DWORD PTR $T5[ebp]
	mov	DWORD PTR [edx+248], eax

; 73   :     outputHPF->init(currSampleRate);

	mov	ecx, DWORD PTR _currSampleRate$[ebp]
	push	ecx
	mov	edx, DWORD PTR _this$[ebp]
	mov	ecx, DWORD PTR [edx+248]
	call	?init@HPFButterworth@@QAEXH@Z		; HPFButterworth::init

; 74   :     outputHPF->setCutoffFrequency(rev_hpfFreq);

	mov	eax, DWORD PTR _this$[ebp]
	push	ecx
	movss	xmm0, DWORD PTR [eax+216]
	movss	DWORD PTR [esp], xmm0
	mov	ecx, DWORD PTR _this$[ebp]
	mov	ecx, DWORD PTR [ecx+248]
	call	?setCutoffFrequency@HPFButterworth@@QAEXM@Z ; HPFButterworth::setCutoffFrequency

; 75   : 
; 76   :     /*.......................................*/
; 77   :     // init Chorus
; 78   :    /* chorus = new ModDelay;
; 79   :     ModulationType modType = ModulationType::Chorus;
; 80   :     chorus->init(currSampleRate, modType, rev_modRate, rev_modDepth);*/
; 81   : 
; 82   :     /*.......................................*/
; 83   :     // init tremolo
; 84   :     tremolo = new Tremolo;

	push	20					; 00000014H
	call	??2@YAPAXI@Z				; operator new
	add	esp, 4
	mov	DWORD PTR $T2[ebp], eax
	mov	DWORD PTR __$EHRec$[ebp+8], 3
	cmp	DWORD PTR $T2[ebp], 0
	je	SHORT $LN9@InitPlugin
	mov	ecx, DWORD PTR $T2[ebp]
	call	??0Tremolo@@QAE@XZ			; Tremolo::Tremolo
	mov	DWORD PTR tv183[ebp], eax
	jmp	SHORT $LN10@InitPlugin
$LN9@InitPlugin:
	mov	DWORD PTR tv183[ebp], 0
$LN10@InitPlugin:
	mov	edx, DWORD PTR tv183[ebp]
	mov	DWORD PTR $T3[ebp], edx
	mov	DWORD PTR __$EHRec$[ebp+8], -1
	mov	eax, DWORD PTR _this$[ebp]
	mov	ecx, DWORD PTR $T3[ebp]
	mov	DWORD PTR [eax+252], ecx

; 85   :     modWaveform = OscillatorType::Sine;

	mov	edx, DWORD PTR _this$[ebp]
	mov	DWORD PTR [edx+240], 1

; 86   :     tremolo->init(currSampleRate, modWaveform, rev_modRate, rev_modDepth);

	mov	eax, DWORD PTR _this$[ebp]
	push	ecx
	movss	xmm0, DWORD PTR [eax+228]
	movss	DWORD PTR [esp], xmm0
	mov	ecx, DWORD PTR _this$[ebp]
	push	ecx
	movss	xmm0, DWORD PTR [ecx+224]
	movss	DWORD PTR [esp], xmm0
	mov	edx, DWORD PTR _this$[ebp]
	mov	eax, DWORD PTR [edx+240]
	push	eax
	mov	ecx, DWORD PTR _currSampleRate$[ebp]
	push	ecx
	mov	edx, DWORD PTR _this$[ebp]
	mov	ecx, DWORD PTR [edx+252]
	call	?init@Tremolo@@QAEXHW4OscillatorType@@MM@Z ; Tremolo::init

; 87   : }

	mov	ecx, DWORD PTR __$EHRec$[ebp]
	mov	DWORD PTR fs:0, ecx
	pop	edi
	pop	esi
	add	esp, 68					; 00000044H
	cmp	ebp, esp
	call	__RTC_CheckEsp
	mov	esp, ebp
	pop	ebp
	ret	0
_TEXT	ENDS
text$x	SEGMENT
__unwindfunclet$?InitPlugin@MisEfx@@AAEXXZ$0:
	push	176					; 000000b0H
	mov	eax, DWORD PTR $T8[ebp]
	push	eax
	call	??3@YAXPAXI@Z				; operator delete
	add	esp, 8
	ret	0
__unwindfunclet$?InitPlugin@MisEfx@@AAEXXZ$1:
	push	48					; 00000030H
	mov	eax, DWORD PTR $T6[ebp]
	push	eax
	call	??3@YAXPAXI@Z				; operator delete
	add	esp, 8
	ret	0
__unwindfunclet$?InitPlugin@MisEfx@@AAEXXZ$2:
	push	48					; 00000030H
	mov	eax, DWORD PTR $T4[ebp]
	push	eax
	call	??3@YAXPAXI@Z				; operator delete
	add	esp, 8
	ret	0
__unwindfunclet$?InitPlugin@MisEfx@@AAEXXZ$3:
	push	20					; 00000014H
	mov	eax, DWORD PTR $T2[ebp]
	push	eax
	call	??3@YAXPAXI@Z				; operator delete
	add	esp, 8
	ret	0
	int	3
	int	3
	int	3
	int	3
	int	3
__ehhandler$?InitPlugin@MisEfx@@AAEXXZ:
	npad	1
	npad	1
	mov	eax, OFFSET __ehfuncinfo$?InitPlugin@MisEfx@@AAEXXZ
	jmp	___CxxFrameHandler3
text$x	ENDS
?InitPlugin@MisEfx@@AAEXXZ ENDP				; MisEfx::InitPlugin
; Function compile flags: /Odtp /RTCsu
;	COMDAT ??1AudioEffectX@@UAE@XZ
_TEXT	SEGMENT
_this$ = -4						; size = 4
??1AudioEffectX@@UAE@XZ PROC				; AudioEffectX::~AudioEffectX, COMDAT
; _this$ = ecx
	push	ebp
	mov	ebp, esp
	push	ecx
	mov	DWORD PTR [ebp-4], -858993460		; ccccccccH
	mov	DWORD PTR _this$[ebp], ecx
	mov	ecx, DWORD PTR _this$[ebp]
	call	??1AudioEffect@@UAE@XZ			; AudioEffect::~AudioEffect
	add	esp, 4
	cmp	ebp, esp
	call	__RTC_CheckEsp
	mov	esp, ebp
	pop	ebp
	ret	0
??1AudioEffectX@@UAE@XZ ENDP				; AudioEffectX::~AudioEffectX
_TEXT	ENDS
; Function compile flags: /Odtp /RTCsu
; File E:\FoxSuite\vst-2.4-sdk\vstsdk2.4\public.sdk\source\vst2.x\audioeffectx.h
;	COMDAT ?__keysRequiredDeprecated@AudioEffectX@@UAE_NXZ
_TEXT	SEGMENT
_this$ = -4						; size = 4
?__keysRequiredDeprecated@AudioEffectX@@UAE_NXZ PROC	; AudioEffectX::__keysRequiredDeprecated, COMDAT
; _this$ = ecx

; 243  : 	virtual bool DECLARE_VST_DEPRECATED (keysRequired) () { return false; }

	push	ebp
	mov	ebp, esp
	push	ecx
	mov	DWORD PTR _this$[ebp], ecx
	xor	al, al
	mov	esp, ebp
	pop	ebp
	ret	0
?__keysRequiredDeprecated@AudioEffectX@@UAE_NXZ ENDP	; AudioEffectX::__keysRequiredDeprecated
_TEXT	ENDS
; Function compile flags: /Odtp /RTCsu
; File E:\FoxSuite\vst-2.4-sdk\vstsdk2.4\public.sdk\source\vst2.x\audioeffectx.h
;	COMDAT ?__fxIdleDeprecated@AudioEffectX@@UAEHXZ
_TEXT	SEGMENT
_this$ = -4						; size = 4
?__fxIdleDeprecated@AudioEffectX@@UAEHXZ PROC		; AudioEffectX::__fxIdleDeprecated, COMDAT
; _this$ = ecx

; 242  : 	virtual VstInt32 DECLARE_VST_DEPRECATED (fxIdle) () { return 0; }

	push	ebp
	mov	ebp, esp
	push	ecx
	mov	DWORD PTR _this$[ebp], ecx
	xor	eax, eax
	mov	esp, ebp
	pop	ebp
	ret	0
?__fxIdleDeprecated@AudioEffectX@@UAEHXZ ENDP		; AudioEffectX::__fxIdleDeprecated
_TEXT	ENDS
; Function compile flags: /Odtp /RTCsu
; File E:\FoxSuite\vst-2.4-sdk\vstsdk2.4\public.sdk\source\vst2.x\audioeffectx.h
;	COMDAT ?__setViewPositionDeprecated@AudioEffectX@@UAE_NHH@Z
_TEXT	SEGMENT
_this$ = -4						; size = 4
_x$ = 8							; size = 4
_y$ = 12						; size = 4
?__setViewPositionDeprecated@AudioEffectX@@UAE_NHH@Z PROC ; AudioEffectX::__setViewPositionDeprecated, COMDAT
; _this$ = ecx

; 241  : 	virtual bool DECLARE_VST_DEPRECATED (setViewPosition) (VstInt32 x, VstInt32 y) { return false; }

	push	ebp
	mov	ebp, esp
	push	ecx
	mov	DWORD PTR _this$[ebp], ecx
	xor	al, al
	mov	esp, ebp
	pop	ebp
	ret	8
?__setViewPositionDeprecated@AudioEffectX@@UAE_NHH@Z ENDP ; AudioEffectX::__setViewPositionDeprecated
_TEXT	ENDS
; Function compile flags: /Odtp /RTCsu
; File E:\FoxSuite\vst-2.4-sdk\vstsdk2.4\public.sdk\source\vst2.x\audioeffectx.h
;	COMDAT ?__getIconDeprecated@AudioEffectX@@UAEPAXXZ
_TEXT	SEGMENT
_this$ = -4						; size = 4
?__getIconDeprecated@AudioEffectX@@UAEPAXXZ PROC	; AudioEffectX::__getIconDeprecated, COMDAT
; _this$ = ecx

; 240  : 	virtual void* DECLARE_VST_DEPRECATED (getIcon) () { return 0; }

	push	ebp
	mov	ebp, esp
	push	ecx
	mov	DWORD PTR _this$[ebp], ecx
	xor	eax, eax
	mov	esp, ebp
	pop	ebp
	ret	0
?__getIconDeprecated@AudioEffectX@@UAEPAXXZ ENDP	; AudioEffectX::__getIconDeprecated
_TEXT	ENDS
; Function compile flags: /Odtp /RTCsu
; File E:\FoxSuite\vst-2.4-sdk\vstsdk2.4\public.sdk\source\vst2.x\audioeffectx.h
;	COMDAT ?__getErrorTextDeprecated@AudioEffectX@@UAE_NPAD@Z
_TEXT	SEGMENT
_this$ = -4						; size = 4
_text$ = 8						; size = 4
?__getErrorTextDeprecated@AudioEffectX@@UAE_NPAD@Z PROC	; AudioEffectX::__getErrorTextDeprecated, COMDAT
; _this$ = ecx

; 239  : 	virtual bool DECLARE_VST_DEPRECATED (getErrorText) (char* text) { return false; }

	push	ebp
	mov	ebp, esp
	push	ecx
	mov	DWORD PTR _this$[ebp], ecx
	xor	al, al
	mov	esp, ebp
	pop	ebp
	ret	4
?__getErrorTextDeprecated@AudioEffectX@@UAE_NPAD@Z ENDP	; AudioEffectX::__getErrorTextDeprecated
_TEXT	ENDS
; Function compile flags: /Odtp /RTCsu
; File E:\FoxSuite\vst-2.4-sdk\vstsdk2.4\public.sdk\source\vst2.x\audioeffectx.h
;	COMDAT ?__setBlockSizeAndSampleRateDeprecated@AudioEffectX@@UAEXHM@Z
_TEXT	SEGMENT
_this$ = -4						; size = 4
__blockSize$ = 8					; size = 4
__sampleRate$ = 12					; size = 4
?__setBlockSizeAndSampleRateDeprecated@AudioEffectX@@UAEXHM@Z PROC ; AudioEffectX::__setBlockSizeAndSampleRateDeprecated, COMDAT
; _this$ = ecx

; 238  : 	virtual void DECLARE_VST_DEPRECATED (setBlockSizeAndSampleRate) (VstInt32 _blockSize, float _sampleRate) { blockSize = _blockSize; sampleRate = _sampleRate; }

	push	ebp
	mov	ebp, esp
	push	ecx
	mov	DWORD PTR _this$[ebp], ecx
	mov	eax, DWORD PTR _this$[ebp]
	mov	ecx, DWORD PTR __blockSize$[ebp]
	mov	DWORD PTR [eax+16], ecx
	mov	edx, DWORD PTR _this$[ebp]
	movss	xmm0, DWORD PTR __sampleRate$[ebp]
	movss	DWORD PTR [edx+12], xmm0
	mov	esp, ebp
	pop	ebp
	ret	8
?__setBlockSizeAndSampleRateDeprecated@AudioEffectX@@UAEXHM@Z ENDP ; AudioEffectX::__setBlockSizeAndSampleRateDeprecated
_TEXT	ENDS
; Function compile flags: /Odtp /RTCsu
; File E:\FoxSuite\vst-2.4-sdk\vstsdk2.4\public.sdk\source\vst2.x\audioeffectx.h
;	COMDAT ?__reportDestinationBufferDeprecated@AudioEffectX@@UAEPAMXZ
_TEXT	SEGMENT
_this$ = -4						; size = 4
?__reportDestinationBufferDeprecated@AudioEffectX@@UAEPAMXZ PROC ; AudioEffectX::__reportDestinationBufferDeprecated, COMDAT
; _this$ = ecx

; 232  : 	virtual float* DECLARE_VST_DEPRECATED (reportDestinationBuffer) () { return 0; }

	push	ebp
	mov	ebp, esp
	push	ecx
	mov	DWORD PTR _this$[ebp], ecx
	xor	eax, eax
	mov	esp, ebp
	pop	ebp
	ret	0
?__reportDestinationBufferDeprecated@AudioEffectX@@UAEPAMXZ ENDP ; AudioEffectX::__reportDestinationBufferDeprecated
_TEXT	ENDS
; Function compile flags: /Odtp /RTCsu
; File E:\FoxSuite\vst-2.4-sdk\vstsdk2.4\public.sdk\source\vst2.x\audioeffectx.h
;	COMDAT ?__reportCurrentPositionDeprecated@AudioEffectX@@UAEHXZ
_TEXT	SEGMENT
_this$ = -4						; size = 4
?__reportCurrentPositionDeprecated@AudioEffectX@@UAEHXZ PROC ; AudioEffectX::__reportCurrentPositionDeprecated, COMDAT
; _this$ = ecx

; 231  : 	virtual VstInt32 DECLARE_VST_DEPRECATED (reportCurrentPosition) () { return 0; }

	push	ebp
	mov	ebp, esp
	push	ecx
	mov	DWORD PTR _this$[ebp], ecx
	xor	eax, eax
	mov	esp, ebp
	pop	ebp
	ret	0
?__reportCurrentPositionDeprecated@AudioEffectX@@UAEHXZ ENDP ; AudioEffectX::__reportCurrentPositionDeprecated
_TEXT	ENDS
; Function compile flags: /Odtp /RTCsu
; File E:\FoxSuite\vst-2.4-sdk\vstsdk2.4\public.sdk\source\vst2.x\audioeffectx.h
;	COMDAT ?__outputConnectedDeprecated@AudioEffectX@@UAEXH_N@Z
_TEXT	SEGMENT
_this$ = -4						; size = 4
_index$ = 8						; size = 4
_state$ = 12						; size = 1
?__outputConnectedDeprecated@AudioEffectX@@UAEXH_N@Z PROC ; AudioEffectX::__outputConnectedDeprecated, COMDAT
; _this$ = ecx

; 227  : 	virtual void DECLARE_VST_DEPRECATED (outputConnected) (VstInt32 index, bool state) {}

	push	ebp
	mov	ebp, esp
	push	ecx
	mov	DWORD PTR _this$[ebp], ecx
	mov	esp, ebp
	pop	ebp
	ret	8
?__outputConnectedDeprecated@AudioEffectX@@UAEXH_N@Z ENDP ; AudioEffectX::__outputConnectedDeprecated
_TEXT	ENDS
; Function compile flags: /Odtp /RTCsu
; File E:\FoxSuite\vst-2.4-sdk\vstsdk2.4\public.sdk\source\vst2.x\audioeffectx.h
;	COMDAT ?__inputConnectedDeprecated@AudioEffectX@@UAEXH_N@Z
_TEXT	SEGMENT
_this$ = -4						; size = 4
_index$ = 8						; size = 4
_state$ = 12						; size = 1
?__inputConnectedDeprecated@AudioEffectX@@UAEXH_N@Z PROC ; AudioEffectX::__inputConnectedDeprecated, COMDAT
; _this$ = ecx

; 226  : 	virtual void DECLARE_VST_DEPRECATED (inputConnected) (VstInt32 index, bool state) {}

	push	ebp
	mov	ebp, esp
	push	ecx
	mov	DWORD PTR _this$[ebp], ecx
	mov	esp, ebp
	pop	ebp
	ret	8
?__inputConnectedDeprecated@AudioEffectX@@UAEXH_N@Z ENDP ; AudioEffectX::__inputConnectedDeprecated
_TEXT	ENDS
; Function compile flags: /Odtp /RTCsu
; File E:\FoxSuite\vst-2.4-sdk\vstsdk2.4\public.sdk\source\vst2.x\audioeffectx.h
;	COMDAT ?__copyProgramDeprecated@AudioEffectX@@UAE_NH@Z
_TEXT	SEGMENT
_this$ = -4						; size = 4
_destination$ = 8					; size = 4
?__copyProgramDeprecated@AudioEffectX@@UAE_NH@Z PROC	; AudioEffectX::__copyProgramDeprecated, COMDAT
; _this$ = ecx

; 222  : 	virtual bool DECLARE_VST_DEPRECATED (copyProgram) (VstInt32 destination) { return false; }

	push	ebp
	mov	ebp, esp
	push	ecx
	mov	DWORD PTR _this$[ebp], ecx
	xor	al, al
	mov	esp, ebp
	pop	ebp
	ret	4
?__copyProgramDeprecated@AudioEffectX@@UAE_NH@Z ENDP	; AudioEffectX::__copyProgramDeprecated
_TEXT	ENDS
; Function compile flags: /Odtp /RTCsu
; File E:\FoxSuite\vst-2.4-sdk\vstsdk2.4\public.sdk\source\vst2.x\audioeffectx.h
;	COMDAT ?__getNumCategoriesDeprecated@AudioEffectX@@UAEHXZ
_TEXT	SEGMENT
_this$ = -4						; size = 4
?__getNumCategoriesDeprecated@AudioEffectX@@UAEHXZ PROC	; AudioEffectX::__getNumCategoriesDeprecated, COMDAT
; _this$ = ecx

; 221  : 	virtual VstInt32 DECLARE_VST_DEPRECATED (getNumCategories) () { return 1L; }

	push	ebp
	mov	ebp, esp
	push	ecx
	mov	DWORD PTR _this$[ebp], ecx
	mov	eax, 1
	mov	esp, ebp
	pop	ebp
	ret	0
?__getNumCategoriesDeprecated@AudioEffectX@@UAEHXZ ENDP	; AudioEffectX::__getNumCategoriesDeprecated
_TEXT	ENDS
; Function compile flags: /Odtp /RTCsu
; File E:\FoxSuite\vst-2.4-sdk\vstsdk2.4\public.sdk\source\vst2.x\audioeffectx.h
;	COMDAT ?offlineGetNumMetaPasses@AudioEffectX@@UAEHXZ
_TEXT	SEGMENT
_this$ = -4						; size = 4
?offlineGetNumMetaPasses@AudioEffectX@@UAEHXZ PROC	; AudioEffectX::offlineGetNumMetaPasses, COMDAT
; _this$ = ecx

; 206  : 	virtual VstInt32 offlineGetNumMetaPasses () { return 0; }

	push	ebp
	mov	ebp, esp
	push	ecx
	mov	DWORD PTR _this$[ebp], ecx
	xor	eax, eax
	mov	esp, ebp
	pop	ebp
	ret	0
?offlineGetNumMetaPasses@AudioEffectX@@UAEHXZ ENDP	; AudioEffectX::offlineGetNumMetaPasses
_TEXT	ENDS
; Function compile flags: /Odtp /RTCsu
; File E:\FoxSuite\vst-2.4-sdk\vstsdk2.4\public.sdk\source\vst2.x\audioeffectx.h
;	COMDAT ?offlineGetNumPasses@AudioEffectX@@UAEHXZ
_TEXT	SEGMENT
_this$ = -4						; size = 4
?offlineGetNumPasses@AudioEffectX@@UAEHXZ PROC		; AudioEffectX::offlineGetNumPasses, COMDAT
; _this$ = ecx

; 205  : 	virtual VstInt32 offlineGetNumPasses () { return 0; }

	push	ebp
	mov	ebp, esp
	push	ecx
	mov	DWORD PTR _this$[ebp], ecx
	xor	eax, eax
	mov	esp, ebp
	pop	ebp
	ret	0
?offlineGetNumPasses@AudioEffectX@@UAEHXZ ENDP		; AudioEffectX::offlineGetNumPasses
_TEXT	ENDS
; Function compile flags: /Odtp /RTCsu
; File E:\FoxSuite\vst-2.4-sdk\vstsdk2.4\public.sdk\source\vst2.x\audioeffectx.h
;	COMDAT ?offlineRun@AudioEffectX@@UAE_NPAUVstOfflineTask@@H@Z
_TEXT	SEGMENT
_this$ = -4						; size = 4
_offline$ = 8						; size = 4
_count$ = 12						; size = 4
?offlineRun@AudioEffectX@@UAE_NPAUVstOfflineTask@@H@Z PROC ; AudioEffectX::offlineRun, COMDAT
; _this$ = ecx

; 204  : 	virtual bool offlineRun (VstOfflineTask* offline, VstInt32 count) { return false; }

	push	ebp
	mov	ebp, esp
	push	ecx
	mov	DWORD PTR _this$[ebp], ecx
	xor	al, al
	mov	esp, ebp
	pop	ebp
	ret	8
?offlineRun@AudioEffectX@@UAE_NPAUVstOfflineTask@@H@Z ENDP ; AudioEffectX::offlineRun
_TEXT	ENDS
; Function compile flags: /Odtp /RTCsu
; File E:\FoxSuite\vst-2.4-sdk\vstsdk2.4\public.sdk\source\vst2.x\audioeffectx.h
;	COMDAT ?offlinePrepare@AudioEffectX@@UAE_NPAUVstOfflineTask@@H@Z
_TEXT	SEGMENT
_this$ = -4						; size = 4
_offline$ = 8						; size = 4
_count$ = 12						; size = 4
?offlinePrepare@AudioEffectX@@UAE_NPAUVstOfflineTask@@H@Z PROC ; AudioEffectX::offlinePrepare, COMDAT
; _this$ = ecx

; 203  : 	virtual bool offlinePrepare (VstOfflineTask* offline, VstInt32 count) { return false; }

	push	ebp
	mov	ebp, esp
	push	ecx
	mov	DWORD PTR _this$[ebp], ecx
	xor	al, al
	mov	esp, ebp
	pop	ebp
	ret	8
?offlinePrepare@AudioEffectX@@UAE_NPAUVstOfflineTask@@H@Z ENDP ; AudioEffectX::offlinePrepare
_TEXT	ENDS
; Function compile flags: /Odtp /RTCsu
; File E:\FoxSuite\vst-2.4-sdk\vstsdk2.4\public.sdk\source\vst2.x\audioeffectx.h
;	COMDAT ?offlineNotify@AudioEffectX@@UAE_NPAUVstAudioFile@@H_N@Z
_TEXT	SEGMENT
_this$ = -4						; size = 4
_ptr$ = 8						; size = 4
_numAudioFiles$ = 12					; size = 4
_start$ = 16						; size = 1
?offlineNotify@AudioEffectX@@UAE_NPAUVstAudioFile@@H_N@Z PROC ; AudioEffectX::offlineNotify, COMDAT
; _this$ = ecx

; 202  : 	virtual bool offlineNotify (VstAudioFile* ptr, VstInt32 numAudioFiles, bool start) { return false; }

	push	ebp
	mov	ebp, esp
	push	ecx
	mov	DWORD PTR _this$[ebp], ecx
	xor	al, al
	mov	esp, ebp
	pop	ebp
	ret	12					; 0000000cH
?offlineNotify@AudioEffectX@@UAE_NPAUVstAudioFile@@H_N@Z ENDP ; AudioEffectX::offlineNotify
_TEXT	ENDS
; Function compile flags: /Odtp /RTCsu
; File E:\FoxSuite\vst-2.4-sdk\vstsdk2.4\public.sdk\source\vst2.x\audioeffectx.h
;	COMDAT ?getNextShellPlugin@AudioEffectX@@UAEHPAD@Z
_TEXT	SEGMENT
_this$ = -4						; size = 4
_name$ = 8						; size = 4
?getNextShellPlugin@AudioEffectX@@UAEHPAD@Z PROC	; AudioEffectX::getNextShellPlugin, COMDAT
; _this$ = ecx

; 177  : 	virtual VstInt32 getNextShellPlugin (char* name) { return 0; }	 ///< This opcode is only called, if the plug-in is of type #kPlugCategShell, in order to extract all included sub-plugins names.

	push	ebp
	mov	ebp, esp
	push	ecx
	mov	DWORD PTR _this$[ebp], ecx
	xor	eax, eax
	mov	esp, ebp
	pop	ebp
	ret	4
?getNextShellPlugin@AudioEffectX@@UAEHPAD@Z ENDP	; AudioEffectX::getNextShellPlugin
_TEXT	ENDS
; Function compile flags: /Odtp /RTCsu
; File E:\FoxSuite\vst-2.4-sdk\vstsdk2.4\public.sdk\source\vst2.x\audioeffectx.h
;	COMDAT ?getMidiKeyName@AudioEffectX@@UAE_NHPAUMidiKeyName@@@Z
_TEXT	SEGMENT
_this$ = -4						; size = 4
_channel$ = 8						; size = 4
_keyName$ = 12						; size = 4
?getMidiKeyName@AudioEffectX@@UAE_NHPAUMidiKeyName@@@Z PROC ; AudioEffectX::getMidiKeyName, COMDAT
; _this$ = ecx

; 157  : 	virtual bool getMidiKeyName (VstInt32 channel, MidiKeyName* keyName) { return false; } ///< Fill \e keyName with information for 'thisProgramIndex' and 'thisKeyNumber'

	push	ebp
	mov	ebp, esp
	push	ecx
	mov	DWORD PTR _this$[ebp], ecx
	xor	al, al
	mov	esp, ebp
	pop	ebp
	ret	8
?getMidiKeyName@AudioEffectX@@UAE_NHPAUMidiKeyName@@@Z ENDP ; AudioEffectX::getMidiKeyName
_TEXT	ENDS
; Function compile flags: /Odtp /RTCsu
; File E:\FoxSuite\vst-2.4-sdk\vstsdk2.4\public.sdk\source\vst2.x\audioeffectx.h
;	COMDAT ?hasMidiProgramsChanged@AudioEffectX@@UAE_NH@Z
_TEXT	SEGMENT
_this$ = -4						; size = 4
_channel$ = 8						; size = 4
?hasMidiProgramsChanged@AudioEffectX@@UAE_NH@Z PROC	; AudioEffectX::hasMidiProgramsChanged, COMDAT
; _this$ = ecx

; 156  : 	virtual bool hasMidiProgramsChanged (VstInt32 channel) { return false; } ///< Return true if the #MidiProgramNames, #MidiKeyNames or #MidiControllerNames had changed on this MIDI channel.

	push	ebp
	mov	ebp, esp
	push	ecx
	mov	DWORD PTR _this$[ebp], ecx
	xor	al, al
	mov	esp, ebp
	pop	ebp
	ret	4
?hasMidiProgramsChanged@AudioEffectX@@UAE_NH@Z ENDP	; AudioEffectX::hasMidiProgramsChanged
_TEXT	ENDS
; Function compile flags: /Odtp /RTCsu
; File E:\FoxSuite\vst-2.4-sdk\vstsdk2.4\public.sdk\source\vst2.x\audioeffectx.h
;	COMDAT ?getMidiProgramCategory@AudioEffectX@@UAEHHPAUMidiProgramCategory@@@Z
_TEXT	SEGMENT
_this$ = -4						; size = 4
_channel$ = 8						; size = 4
_category$ = 12						; size = 4
?getMidiProgramCategory@AudioEffectX@@UAEHHPAUMidiProgramCategory@@@Z PROC ; AudioEffectX::getMidiProgramCategory, COMDAT
; _this$ = ecx

; 155  : 	virtual VstInt32 getMidiProgramCategory (VstInt32 channel, MidiProgramCategory* category) { return 0; }		///< Fill \e category with information for 'thisCategoryIndex'.

	push	ebp
	mov	ebp, esp
	push	ecx
	mov	DWORD PTR _this$[ebp], ecx
	xor	eax, eax
	mov	esp, ebp
	pop	ebp
	ret	8
?getMidiProgramCategory@AudioEffectX@@UAEHHPAUMidiProgramCategory@@@Z ENDP ; AudioEffectX::getMidiProgramCategory
_TEXT	ENDS
; Function compile flags: /Odtp /RTCsu
; File E:\FoxSuite\vst-2.4-sdk\vstsdk2.4\public.sdk\source\vst2.x\audioeffectx.h
;	COMDAT ?getCurrentMidiProgram@AudioEffectX@@UAEHHPAUMidiProgramName@@@Z
_TEXT	SEGMENT
_this$ = -4						; size = 4
_channel$ = 8						; size = 4
_currentProgram$ = 12					; size = 4
?getCurrentMidiProgram@AudioEffectX@@UAEHHPAUMidiProgramName@@@Z PROC ; AudioEffectX::getCurrentMidiProgram, COMDAT
; _this$ = ecx

; 154  : 	virtual VstInt32 getCurrentMidiProgram (VstInt32 channel, MidiProgramName* currentProgram) { return -1; }	///< Fill \e currentProgram with information for the current MIDI program.

	push	ebp
	mov	ebp, esp
	push	ecx
	mov	DWORD PTR _this$[ebp], ecx
	or	eax, -1
	mov	esp, ebp
	pop	ebp
	ret	8
?getCurrentMidiProgram@AudioEffectX@@UAEHHPAUMidiProgramName@@@Z ENDP ; AudioEffectX::getCurrentMidiProgram
_TEXT	ENDS
; Function compile flags: /Odtp /RTCsu
; File E:\FoxSuite\vst-2.4-sdk\vstsdk2.4\public.sdk\source\vst2.x\audioeffectx.h
;	COMDAT ?getMidiProgramName@AudioEffectX@@UAEHHPAUMidiProgramName@@@Z
_TEXT	SEGMENT
_this$ = -4						; size = 4
_channel$ = 8						; size = 4
_midiProgramName$ = 12					; size = 4
?getMidiProgramName@AudioEffectX@@UAEHHPAUMidiProgramName@@@Z PROC ; AudioEffectX::getMidiProgramName, COMDAT
; _this$ = ecx

; 153  : 	virtual VstInt32 getMidiProgramName (VstInt32 channel, MidiProgramName* midiProgramName) { return 0; }		///< Fill \e midiProgramName with information for 'thisProgramIndex'.

	push	ebp
	mov	ebp, esp
	push	ecx
	mov	DWORD PTR _this$[ebp], ecx
	xor	eax, eax
	mov	esp, ebp
	pop	ebp
	ret	8
?getMidiProgramName@AudioEffectX@@UAEHHPAUMidiProgramName@@@Z ENDP ; AudioEffectX::getMidiProgramName
_TEXT	ENDS
; Function compile flags: /Odtp /RTCsu
; File E:\FoxSuite\vst-2.4-sdk\vstsdk2.4\public.sdk\source\vst2.x\audioeffectx.h
;	COMDAT ?getVstVersion@AudioEffectX@@UAEHXZ
_TEXT	SEGMENT
_this$ = -4						; size = 4
?getVstVersion@AudioEffectX@@UAEHXZ PROC		; AudioEffectX::getVstVersion, COMDAT
; _this$ = ecx

; 144  : 	virtual VstInt32 getVstVersion () { return kVstVersion; }	///< Returns the current VST Version (#kVstVersion)

	push	ebp
	mov	ebp, esp
	push	ecx
	mov	DWORD PTR _this$[ebp], ecx
	mov	eax, 2400				; 00000960H
	mov	esp, ebp
	pop	ebp
	ret	0
?getVstVersion@AudioEffectX@@UAEHXZ ENDP		; AudioEffectX::getVstVersion
_TEXT	ENDS
; Function compile flags: /Odtp /RTCsu
; File E:\FoxSuite\vst-2.4-sdk\vstsdk2.4\public.sdk\source\vst2.x\audioeffectx.h
;	COMDAT ?canDo@AudioEffectX@@UAEHPAD@Z
_TEXT	SEGMENT
_this$ = -4						; size = 4
_text$ = 8						; size = 4
?canDo@AudioEffectX@@UAEHPAD@Z PROC			; AudioEffectX::canDo, COMDAT
; _this$ = ecx

; 143  : 	virtual VstInt32 canDo (char* text) { return 0; }			///< Reports what the plug-in is able to do (#plugCanDos in audioeffectx.cpp)

	push	ebp
	mov	ebp, esp
	push	ecx
	mov	DWORD PTR _this$[ebp], ecx
	xor	eax, eax
	mov	esp, ebp
	pop	ebp
	ret	4
?canDo@AudioEffectX@@UAEHPAD@Z ENDP			; AudioEffectX::canDo
_TEXT	ENDS
; Function compile flags: /Odtp /RTCsu
; File E:\FoxSuite\vst-2.4-sdk\vstsdk2.4\public.sdk\source\vst2.x\audioeffectx.h
;	COMDAT ?vendorSpecific@AudioEffectX@@UAEHHHPAXM@Z
_TEXT	SEGMENT
_this$ = -4						; size = 4
_lArg$ = 8						; size = 4
_lArg2$ = 12						; size = 4
_ptrArg$ = 16						; size = 4
_floatArg$ = 20						; size = 4
?vendorSpecific@AudioEffectX@@UAEHHHPAXM@Z PROC		; AudioEffectX::vendorSpecific, COMDAT
; _this$ = ecx

; 142  : 	virtual VstIntPtr vendorSpecific (VstInt32 lArg, VstIntPtr lArg2, void* ptrArg, float floatArg) { return 0; } ///< No definition, vendor specific handling

	push	ebp
	mov	ebp, esp
	push	ecx
	mov	DWORD PTR _this$[ebp], ecx
	xor	eax, eax
	mov	esp, ebp
	pop	ebp
	ret	16					; 00000010H
?vendorSpecific@AudioEffectX@@UAEHHHPAXM@Z ENDP		; AudioEffectX::vendorSpecific
_TEXT	ENDS
; Function compile flags: /Odtp /RTCsu
; File E:\FoxSuite\vst-2.4-sdk\vstsdk2.4\public.sdk\source\vst2.x\audioeffectx.h
;	COMDAT ?getVendorVersion@AudioEffectX@@UAEHXZ
_TEXT	SEGMENT
_this$ = -4						; size = 4
?getVendorVersion@AudioEffectX@@UAEHXZ PROC		; AudioEffectX::getVendorVersion, COMDAT
; _this$ = ecx

; 141  : 	virtual VstInt32 getVendorVersion () { return 0; }			///< Return vendor-specific version

	push	ebp
	mov	ebp, esp
	push	ecx
	mov	DWORD PTR _this$[ebp], ecx
	xor	eax, eax
	mov	esp, ebp
	pop	ebp
	ret	0
?getVendorVersion@AudioEffectX@@UAEHXZ ENDP		; AudioEffectX::getVendorVersion
_TEXT	ENDS
; Function compile flags: /Odtp /RTCsu
; File E:\FoxSuite\vst-2.4-sdk\vstsdk2.4\public.sdk\source\vst2.x\audioeffectx.h
;	COMDAT ?getProductString@AudioEffectX@@UAE_NPAD@Z
_TEXT	SEGMENT
_this$ = -4						; size = 4
_text$ = 8						; size = 4
?getProductString@AudioEffectX@@UAE_NPAD@Z PROC		; AudioEffectX::getProductString, COMDAT
; _this$ = ecx

; 140  : 	virtual bool getProductString (char* text) { return false; }///< Fill \e text with a string identifying the product name

	push	ebp
	mov	ebp, esp
	push	ecx
	mov	DWORD PTR _this$[ebp], ecx
	xor	al, al
	mov	esp, ebp
	pop	ebp
	ret	4
?getProductString@AudioEffectX@@UAE_NPAD@Z ENDP		; AudioEffectX::getProductString
_TEXT	ENDS
; Function compile flags: /Odtp /RTCsu
; File E:\FoxSuite\vst-2.4-sdk\vstsdk2.4\public.sdk\source\vst2.x\audioeffectx.h
;	COMDAT ?getGetTailSize@AudioEffectX@@UAEHXZ
_TEXT	SEGMENT
_this$ = -4						; size = 4
?getGetTailSize@AudioEffectX@@UAEHXZ PROC		; AudioEffectX::getGetTailSize, COMDAT
; _this$ = ecx

; 136  : 	virtual VstInt32 getGetTailSize () { return 0; }///< Returns tail size; 0 is default (return 1 for 'no tail'), used in offline processing too

	push	ebp
	mov	ebp, esp
	push	ecx
	mov	DWORD PTR _this$[ebp], ecx
	xor	eax, eax
	mov	esp, ebp
	pop	ebp
	ret	0
?getGetTailSize@AudioEffectX@@UAEHXZ ENDP		; AudioEffectX::getGetTailSize
_TEXT	ENDS
; Function compile flags: /Odtp /RTCsu
; File E:\FoxSuite\vst-2.4-sdk\vstsdk2.4\public.sdk\source\vst2.x\audioeffectx.h
;	COMDAT ?setTotalSampleToProcess@AudioEffectX@@UAEHH@Z
_TEXT	SEGMENT
_this$ = -4						; size = 4
_value$ = 8						; size = 4
?setTotalSampleToProcess@AudioEffectX@@UAEHH@Z PROC	; AudioEffectX::setTotalSampleToProcess, COMDAT
; _this$ = ecx

; 114  : 	virtual VstInt32 setTotalSampleToProcess (VstInt32 value) {	return value; }	///< Called in offline mode before process() or processVariableIo ()

	push	ebp
	mov	ebp, esp
	push	ecx
	mov	DWORD PTR _this$[ebp], ecx
	mov	eax, DWORD PTR _value$[ebp]
	mov	esp, ebp
	pop	ebp
	ret	4
?setTotalSampleToProcess@AudioEffectX@@UAEHH@Z ENDP	; AudioEffectX::setTotalSampleToProcess
_TEXT	ENDS
; Function compile flags: /Odtp /RTCsu
; File E:\FoxSuite\vst-2.4-sdk\vstsdk2.4\public.sdk\source\vst2.x\audioeffectx.h
;	COMDAT ?processVariableIo@AudioEffectX@@UAE_NPAUVstVariableIo@@@Z
_TEXT	SEGMENT
_this$ = -4						; size = 4
_varIo$ = 8						; size = 4
?processVariableIo@AudioEffectX@@UAE_NPAUVstVariableIo@@@Z PROC ; AudioEffectX::processVariableIo, COMDAT
; _this$ = ecx

; 111  : 	virtual bool processVariableIo (VstVariableIo* varIo) { return false; }		///< Used for variable I/O processing (offline processing like timestreching)

	push	ebp
	mov	ebp, esp
	push	ecx
	mov	DWORD PTR _this$[ebp], ecx
	xor	al, al
	mov	esp, ebp
	pop	ebp
	ret	4
?processVariableIo@AudioEffectX@@UAE_NPAUVstVariableIo@@@Z ENDP ; AudioEffectX::processVariableIo
_TEXT	ENDS
; Function compile flags: /Odtp /RTCsu
; File E:\FoxSuite\vst-2.4-sdk\vstsdk2.4\public.sdk\source\vst2.x\audioeffectx.h
;	COMDAT ?stopProcess@AudioEffectX@@UAEHXZ
_TEXT	SEGMENT
_this$ = -4						; size = 4
?stopProcess@AudioEffectX@@UAEHXZ PROC			; AudioEffectX::stopProcess, COMDAT
; _this$ = ecx

; 103  : 	virtual VstInt32 stopProcess () { return 0;}		///< Called after the stop of process call

	push	ebp
	mov	ebp, esp
	push	ecx
	mov	DWORD PTR _this$[ebp], ecx
	xor	eax, eax
	mov	esp, ebp
	pop	ebp
	ret	0
?stopProcess@AudioEffectX@@UAEHXZ ENDP			; AudioEffectX::stopProcess
_TEXT	ENDS
; Function compile flags: /Odtp /RTCsu
; File E:\FoxSuite\vst-2.4-sdk\vstsdk2.4\public.sdk\source\vst2.x\audioeffectx.h
;	COMDAT ?startProcess@AudioEffectX@@UAEHXZ
_TEXT	SEGMENT
_this$ = -4						; size = 4
?startProcess@AudioEffectX@@UAEHXZ PROC			; AudioEffectX::startProcess, COMDAT
; _this$ = ecx

; 102  : 	virtual VstInt32 startProcess () { return 0; }		///< Called one time before the start of process call. This indicates that the process call will be interrupted (due to Host reconfiguration or bypass state when the plug-in doesn't support softBypass)

	push	ebp
	mov	ebp, esp
	push	ecx
	mov	DWORD PTR _this$[ebp], ecx
	xor	eax, eax
	mov	esp, ebp
	pop	ebp
	ret	0
?startProcess@AudioEffectX@@UAEHXZ ENDP			; AudioEffectX::startProcess
_TEXT	ENDS
; Function compile flags: /Odtp /RTCsu
; File E:\FoxSuite\vst-2.4-sdk\vstsdk2.4\public.sdk\source\vst2.x\audioeffectx.h
;	COMDAT ?processEvents@AudioEffectX@@UAEHPAUVstEvents@@@Z
_TEXT	SEGMENT
_this$ = -4						; size = 4
_events$ = 8						; size = 4
?processEvents@AudioEffectX@@UAEHPAUVstEvents@@@Z PROC	; AudioEffectX::processEvents, COMDAT
; _this$ = ecx

; 98   : 	virtual VstInt32 processEvents (VstEvents* events) { return 0; }	///< Called when new MIDI events come in

	push	ebp
	mov	ebp, esp
	push	ecx
	mov	DWORD PTR _this$[ebp], ecx
	xor	eax, eax
	mov	esp, ebp
	pop	ebp
	ret	4
?processEvents@AudioEffectX@@UAEHPAUVstEvents@@@Z ENDP	; AudioEffectX::processEvents
_TEXT	ENDS
; Function compile flags: /Odtp /RTCsu
; File E:\FoxSuite\vst-2.4-sdk\vstsdk2.4\public.sdk\source\vst2.x\audioeffectx.h
;	COMDAT ?getNumMidiOutputChannels@AudioEffectX@@UAEHXZ
_TEXT	SEGMENT
_this$ = -4						; size = 4
?getNumMidiOutputChannels@AudioEffectX@@UAEHXZ PROC	; AudioEffectX::getNumMidiOutputChannels, COMDAT
; _this$ = ecx

; 86   : 	virtual VstInt32 getNumMidiOutputChannels () { return 0; }				///< Returns number of MIDI output channels used [0, 16]

	push	ebp
	mov	ebp, esp
	push	ecx
	mov	DWORD PTR _this$[ebp], ecx
	xor	eax, eax
	mov	esp, ebp
	pop	ebp
	ret	0
?getNumMidiOutputChannels@AudioEffectX@@UAEHXZ ENDP	; AudioEffectX::getNumMidiOutputChannels
_TEXT	ENDS
; Function compile flags: /Odtp /RTCsu
; File E:\FoxSuite\vst-2.4-sdk\vstsdk2.4\public.sdk\source\vst2.x\audioeffectx.h
;	COMDAT ?getNumMidiInputChannels@AudioEffectX@@UAEHXZ
_TEXT	SEGMENT
_this$ = -4						; size = 4
?getNumMidiInputChannels@AudioEffectX@@UAEHXZ PROC	; AudioEffectX::getNumMidiInputChannels, COMDAT
; _this$ = ecx

; 85   : 	virtual VstInt32 getNumMidiInputChannels ()  { return 0; }				///< Returns number of MIDI input channels used [0, 16]

	push	ebp
	mov	ebp, esp
	push	ecx
	mov	DWORD PTR _this$[ebp], ecx
	xor	eax, eax
	mov	esp, ebp
	pop	ebp
	ret	0
?getNumMidiInputChannels@AudioEffectX@@UAEHXZ ENDP	; AudioEffectX::getNumMidiInputChannels
_TEXT	ENDS
; Function compile flags: /Odtp /RTCsu
; File E:\FoxSuite\vst-2.4-sdk\vstsdk2.4\public.sdk\source\vst2.x\audioeffectx.h
;	COMDAT ?setProcessPrecision@AudioEffectX@@UAE_NH@Z
_TEXT	SEGMENT
_this$ = -4						; size = 4
_precision$ = 8						; size = 4
?setProcessPrecision@AudioEffectX@@UAE_NH@Z PROC	; AudioEffectX::setProcessPrecision, COMDAT
; _this$ = ecx

; 83   : 	virtual bool setProcessPrecision (VstInt32 precision) { return false; }	///< Set floating-point precision used for processing (32 or 64 bit)

	push	ebp
	mov	ebp, esp
	push	ecx
	mov	DWORD PTR _this$[ebp], ecx
	xor	al, al
	mov	esp, ebp
	pop	ebp
	ret	4
?setProcessPrecision@AudioEffectX@@UAE_NH@Z ENDP	; AudioEffectX::setProcessPrecision
_TEXT	ENDS
; Function compile flags: /Odtp /RTCsu
; File E:\FoxSuite\vst-2.4-sdk\vstsdk2.4\public.sdk\source\vst2.x\audioeffectx.h
;	COMDAT ?setPanLaw@AudioEffectX@@UAE_NHM@Z
_TEXT	SEGMENT
_this$ = -4						; size = 4
_type$ = 8						; size = 4
_val$ = 12						; size = 4
?setPanLaw@AudioEffectX@@UAE_NHM@Z PROC			; AudioEffectX::setPanLaw, COMDAT
; _this$ = ecx

; 79   : 	virtual bool setPanLaw (VstInt32 type, float val) { return false; }	///< Set the Panning Law used by the Host @see VstPanLawType.

	push	ebp
	mov	ebp, esp
	push	ecx
	mov	DWORD PTR _this$[ebp], ecx
	xor	al, al
	mov	esp, ebp
	pop	ebp
	ret	8
?setPanLaw@AudioEffectX@@UAE_NHM@Z ENDP			; AudioEffectX::setPanLaw
_TEXT	ENDS
; Function compile flags: /Odtp /RTCsu
; File E:\FoxSuite\vst-2.4-sdk\vstsdk2.4\public.sdk\source\vst2.x\audioeffectx.h
;	COMDAT ?setBypass@AudioEffectX@@UAE_N_N@Z
_TEXT	SEGMENT
_this$ = -4						; size = 4
_onOff$ = 8						; size = 1
?setBypass@AudioEffectX@@UAE_N_N@Z PROC			; AudioEffectX::setBypass, COMDAT
; _this$ = ecx

; 76   : 	virtual bool setBypass (bool onOff) { return false; }				///< For 'soft-bypass' (this could be automated (in Audio Thread) that why you could NOT call iochanged (if needed) in this function, do it in fxidle).

	push	ebp
	mov	ebp, esp
	push	ecx
	mov	DWORD PTR _this$[ebp], ecx
	xor	al, al
	mov	esp, ebp
	pop	ebp
	ret	4
?setBypass@AudioEffectX@@UAE_N_N@Z ENDP			; AudioEffectX::setBypass
_TEXT	ENDS
; Function compile flags: /Odtp /RTCsu
; File E:\FoxSuite\vst-2.4-sdk\vstsdk2.4\public.sdk\source\vst2.x\audioeffectx.h
;	COMDAT ?getSpeakerArrangement@AudioEffectX@@UAE_NPAPAUVstSpeakerArrangement@@0@Z
_TEXT	SEGMENT
_this$ = -4						; size = 4
_pluginInput$ = 8					; size = 4
_pluginOutput$ = 12					; size = 4
?getSpeakerArrangement@AudioEffectX@@UAE_NPAPAUVstSpeakerArrangement@@0@Z PROC ; AudioEffectX::getSpeakerArrangement, COMDAT
; _this$ = ecx

; 75   : 	virtual bool getSpeakerArrangement (VstSpeakerArrangement** pluginInput, VstSpeakerArrangement** pluginOutput) { *pluginInput = 0; *pluginOutput = 0; return false; } ///< Return the plug-in's speaker arrangements

	push	ebp
	mov	ebp, esp
	push	ecx
	mov	DWORD PTR _this$[ebp], ecx
	mov	eax, DWORD PTR _pluginInput$[ebp]
	mov	DWORD PTR [eax], 0
	mov	ecx, DWORD PTR _pluginOutput$[ebp]
	mov	DWORD PTR [ecx], 0
	xor	al, al
	mov	esp, ebp
	pop	ebp
	ret	8
?getSpeakerArrangement@AudioEffectX@@UAE_NPAPAUVstSpeakerArrangement@@0@Z ENDP ; AudioEffectX::getSpeakerArrangement
_TEXT	ENDS
; Function compile flags: /Odtp /RTCsu
; File E:\FoxSuite\vst-2.4-sdk\vstsdk2.4\public.sdk\source\vst2.x\audioeffectx.h
;	COMDAT ?setSpeakerArrangement@AudioEffectX@@UAE_NPAUVstSpeakerArrangement@@0@Z
_TEXT	SEGMENT
_this$ = -4						; size = 4
_pluginInput$ = 8					; size = 4
_pluginOutput$ = 12					; size = 4
?setSpeakerArrangement@AudioEffectX@@UAE_NPAUVstSpeakerArrangement@@0@Z PROC ; AudioEffectX::setSpeakerArrangement, COMDAT
; _this$ = ecx

; 74   : 	virtual bool setSpeakerArrangement (VstSpeakerArrangement* pluginInput, VstSpeakerArrangement* pluginOutput) { return false; } ///< Set the plug-in's speaker arrangements

	push	ebp
	mov	ebp, esp
	push	ecx
	mov	DWORD PTR _this$[ebp], ecx
	xor	al, al
	mov	esp, ebp
	pop	ebp
	ret	8
?setSpeakerArrangement@AudioEffectX@@UAE_NPAUVstSpeakerArrangement@@0@Z ENDP ; AudioEffectX::setSpeakerArrangement
_TEXT	ENDS
; Function compile flags: /Odtp /RTCsu
; File E:\FoxSuite\vst-2.4-sdk\vstsdk2.4\public.sdk\source\vst2.x\audioeffectx.h
;	COMDAT ?getOutputProperties@AudioEffectX@@UAE_NHPAUVstPinProperties@@@Z
_TEXT	SEGMENT
_this$ = -4						; size = 4
_index$ = 8						; size = 4
_properties$ = 12					; size = 4
?getOutputProperties@AudioEffectX@@UAE_NHPAUVstPinProperties@@@Z PROC ; AudioEffectX::getOutputProperties, COMDAT
; _this$ = ecx

; 72   : 	virtual bool getOutputProperties (VstInt32 index, VstPinProperties* properties) { return false; }///< Return the \e properties of input \e index

	push	ebp
	mov	ebp, esp
	push	ecx
	mov	DWORD PTR _this$[ebp], ecx
	xor	al, al
	mov	esp, ebp
	pop	ebp
	ret	8
?getOutputProperties@AudioEffectX@@UAE_NHPAUVstPinProperties@@@Z ENDP ; AudioEffectX::getOutputProperties
_TEXT	ENDS
; Function compile flags: /Odtp /RTCsu
; File E:\FoxSuite\vst-2.4-sdk\vstsdk2.4\public.sdk\source\vst2.x\audioeffectx.h
;	COMDAT ?getInputProperties@AudioEffectX@@UAE_NHPAUVstPinProperties@@@Z
_TEXT	SEGMENT
_this$ = -4						; size = 4
_index$ = 8						; size = 4
_properties$ = 12					; size = 4
?getInputProperties@AudioEffectX@@UAE_NHPAUVstPinProperties@@@Z PROC ; AudioEffectX::getInputProperties, COMDAT
; _this$ = ecx

; 71   : 	virtual bool getInputProperties (VstInt32 index, VstPinProperties* properties) { return false; } ///< Return the \e properties of output \e index

	push	ebp
	mov	ebp, esp
	push	ecx
	mov	DWORD PTR _this$[ebp], ecx
	xor	al, al
	mov	esp, ebp
	pop	ebp
	ret	8
?getInputProperties@AudioEffectX@@UAE_NHPAUVstPinProperties@@@Z ENDP ; AudioEffectX::getInputProperties
_TEXT	ENDS
; Function compile flags: /Odtp /RTCsu
; File E:\FoxSuite\vst-2.4-sdk\vstsdk2.4\public.sdk\source\vst2.x\audioeffectx.h
;	COMDAT ?beginLoadProgram@AudioEffectX@@UAEHPAUVstPatchChunkInfo@@@Z
_TEXT	SEGMENT
_this$ = -4						; size = 4
_ptr$ = 8						; size = 4
?beginLoadProgram@AudioEffectX@@UAEHPAUVstPatchChunkInfo@@@Z PROC ; AudioEffectX::beginLoadProgram, COMDAT
; _this$ = ecx

; 56   : 	virtual VstInt32 beginLoadProgram (VstPatchChunkInfo* ptr) { return 0; }	///< Called before a Program is loaded. (called before #beginSetProgram).

	push	ebp
	mov	ebp, esp
	push	ecx
	mov	DWORD PTR _this$[ebp], ecx
	xor	eax, eax
	mov	esp, ebp
	pop	ebp
	ret	4
?beginLoadProgram@AudioEffectX@@UAEHPAUVstPatchChunkInfo@@@Z ENDP ; AudioEffectX::beginLoadProgram
_TEXT	ENDS
; Function compile flags: /Odtp /RTCsu
; File E:\FoxSuite\vst-2.4-sdk\vstsdk2.4\public.sdk\source\vst2.x\audioeffectx.h
;	COMDAT ?beginLoadBank@AudioEffectX@@UAEHPAUVstPatchChunkInfo@@@Z
_TEXT	SEGMENT
_this$ = -4						; size = 4
_ptr$ = 8						; size = 4
?beginLoadBank@AudioEffectX@@UAEHPAUVstPatchChunkInfo@@@Z PROC ; AudioEffectX::beginLoadBank, COMDAT
; _this$ = ecx

; 55   : 	virtual VstInt32 beginLoadBank (VstPatchChunkInfo* ptr) { return 0; }		///< Called before a Bank is loaded.

	push	ebp
	mov	ebp, esp
	push	ecx
	mov	DWORD PTR _this$[ebp], ecx
	xor	eax, eax
	mov	esp, ebp
	pop	ebp
	ret	4
?beginLoadBank@AudioEffectX@@UAEHPAUVstPatchChunkInfo@@@Z ENDP ; AudioEffectX::beginLoadBank
_TEXT	ENDS
; Function compile flags: /Odtp /RTCsu
; File E:\FoxSuite\vst-2.4-sdk\vstsdk2.4\public.sdk\source\vst2.x\audioeffectx.h
;	COMDAT ?endSetProgram@AudioEffectX@@UAE_NXZ
_TEXT	SEGMENT
_this$ = -4						; size = 4
?endSetProgram@AudioEffectX@@UAE_NXZ PROC		; AudioEffectX::endSetProgram, COMDAT
; _this$ = ecx

; 51   : 	virtual bool endSetProgram () { return false; }		///< Called after a program was loaded

	push	ebp
	mov	ebp, esp
	push	ecx
	mov	DWORD PTR _this$[ebp], ecx
	xor	al, al
	mov	esp, ebp
	pop	ebp
	ret	0
?endSetProgram@AudioEffectX@@UAE_NXZ ENDP		; AudioEffectX::endSetProgram
_TEXT	ENDS
; Function compile flags: /Odtp /RTCsu
; File E:\FoxSuite\vst-2.4-sdk\vstsdk2.4\public.sdk\source\vst2.x\audioeffectx.h
;	COMDAT ?beginSetProgram@AudioEffectX@@UAE_NXZ
_TEXT	SEGMENT
_this$ = -4						; size = 4
?beginSetProgram@AudioEffectX@@UAE_NXZ PROC		; AudioEffectX::beginSetProgram, COMDAT
; _this$ = ecx

; 50   : 	virtual bool beginSetProgram () { return false; }	///< Called before a program is loaded

	push	ebp
	mov	ebp, esp
	push	ecx
	mov	DWORD PTR _this$[ebp], ecx
	xor	al, al
	mov	esp, ebp
	pop	ebp
	ret	0
?beginSetProgram@AudioEffectX@@UAE_NXZ ENDP		; AudioEffectX::beginSetProgram
_TEXT	ENDS
; Function compile flags: /Odtp /RTCsu
; File E:\FoxSuite\vst-2.4-sdk\vstsdk2.4\public.sdk\source\vst2.x\audioeffectx.h
;	COMDAT ?getParameterProperties@AudioEffectX@@UAE_NHPAUVstParameterProperties@@@Z
_TEXT	SEGMENT
_this$ = -4						; size = 4
_index$ = 8						; size = 4
_p$ = 12						; size = 4
?getParameterProperties@AudioEffectX@@UAE_NHPAUVstParameterProperties@@@Z PROC ; AudioEffectX::getParameterProperties, COMDAT
; _this$ = ecx

; 35   : 	virtual bool getParameterProperties (VstInt32 index, VstParameterProperties* p) { return false; } ///< Return parameter properties

	push	ebp
	mov	ebp, esp
	push	ecx
	mov	DWORD PTR _this$[ebp], ecx
	xor	al, al
	mov	esp, ebp
	pop	ebp
	ret	8
?getParameterProperties@AudioEffectX@@UAE_NHPAUVstParameterProperties@@@Z ENDP ; AudioEffectX::getParameterProperties
_TEXT	ENDS
; Function compile flags: /Odtp /RTCsu
; File E:\FoxSuite\vst-2.4-sdk\vstsdk2.4\public.sdk\source\vst2.x\audioeffectx.h
;	COMDAT ?string2parameter@AudioEffectX@@UAE_NHPAD@Z
_TEXT	SEGMENT
_this$ = -4						; size = 4
_index$ = 8						; size = 4
_text$ = 12						; size = 4
?string2parameter@AudioEffectX@@UAE_NHPAD@Z PROC	; AudioEffectX::string2parameter, COMDAT
; _this$ = ecx

; 34   : 	virtual bool string2parameter (VstInt32 index, char* text) { return false; }	///< Convert a string representation to a parameter value

	push	ebp
	mov	ebp, esp
	push	ecx
	mov	DWORD PTR _this$[ebp], ecx
	xor	al, al
	mov	esp, ebp
	pop	ebp
	ret	8
?string2parameter@AudioEffectX@@UAE_NHPAD@Z ENDP	; AudioEffectX::string2parameter
_TEXT	ENDS
; Function compile flags: /Odtp /RTCsu
; File E:\FoxSuite\vst-2.4-sdk\vstsdk2.4\public.sdk\source\vst2.x\audioeffectx.h
;	COMDAT ?canParameterBeAutomated@AudioEffectX@@UAE_NH@Z
_TEXT	SEGMENT
_this$ = -4						; size = 4
_index$ = 8						; size = 4
?canParameterBeAutomated@AudioEffectX@@UAE_NH@Z PROC	; AudioEffectX::canParameterBeAutomated, COMDAT
; _this$ = ecx

; 33   : 	virtual bool canParameterBeAutomated (VstInt32 index) { return true; }			///< Indicates if a parameter can be automated

	push	ebp
	mov	ebp, esp
	push	ecx
	mov	DWORD PTR _this$[ebp], ecx
	mov	al, 1
	mov	esp, ebp
	pop	ebp
	ret	4
?canParameterBeAutomated@AudioEffectX@@UAE_NH@Z ENDP	; AudioEffectX::canParameterBeAutomated
_TEXT	ENDS
; Function compile flags: /Odtp /RTCsu
; File E:\FoxSuite\vst-2.4-sdk\vstsdk2.4\public.sdk\source\vst2.x\audioeffect.h
;	COMDAT ?__getVuDeprecated@AudioEffect@@UAEMXZ
_TEXT	SEGMENT
_this$ = -4						; size = 4
?__getVuDeprecated@AudioEffect@@UAEMXZ PROC		; AudioEffect::__getVuDeprecated, COMDAT
; _this$ = ecx

; 143  : 	virtual float DECLARE_VST_DEPRECATED (getVu) () { return 0; }

	push	ebp
	mov	ebp, esp
	push	ecx
	mov	DWORD PTR _this$[ebp], ecx
	fldz
	mov	esp, ebp
	pop	ebp
	ret	0
?__getVuDeprecated@AudioEffect@@UAEMXZ ENDP		; AudioEffect::__getVuDeprecated
_TEXT	ENDS
; Function compile flags: /Odtp /RTCsu
; File E:\FoxSuite\vst-2.4-sdk\vstsdk2.4\public.sdk\source\vst2.x\audioeffect.h
;	COMDAT ?__processDeprecated@AudioEffect@@UAEXPAPAM0H@Z
_TEXT	SEGMENT
_this$ = -4						; size = 4
_inputs$ = 8						; size = 4
_outputs$ = 12						; size = 4
_sampleFrames$ = 16					; size = 4
?__processDeprecated@AudioEffect@@UAEXPAPAM0H@Z PROC	; AudioEffect::__processDeprecated, COMDAT
; _this$ = ecx

; 142  : 	virtual void DECLARE_VST_DEPRECATED (process) (float** inputs, float** outputs, VstInt32 sampleFrames) {}

	push	ebp
	mov	ebp, esp
	push	ecx
	mov	DWORD PTR _this$[ebp], ecx
	mov	esp, ebp
	pop	ebp
	ret	12					; 0000000cH
?__processDeprecated@AudioEffect@@UAEXPAPAM0H@Z ENDP	; AudioEffect::__processDeprecated
_TEXT	ENDS
; Function compile flags: /Odtp /RTCsu
; File E:\FoxSuite\vst-2.4-sdk\vstsdk2.4\public.sdk\source\vst2.x\audioeffect.h
;	COMDAT ?getBlockSize@AudioEffect@@UAEHXZ
_TEXT	SEGMENT
_this$ = -4						; size = 4
?getBlockSize@AudioEffect@@UAEHXZ PROC			; AudioEffect::getBlockSize, COMDAT
; _this$ = ecx

; 115  : 	virtual VstInt32 getBlockSize () { return blockSize; }		///< Returns the current Maximum block size

	push	ebp
	mov	ebp, esp
	push	ecx
	mov	DWORD PTR _this$[ebp], ecx
	mov	eax, DWORD PTR _this$[ebp]
	mov	eax, DWORD PTR [eax+16]
	mov	esp, ebp
	pop	ebp
	ret	0
?getBlockSize@AudioEffect@@UAEHXZ ENDP			; AudioEffect::getBlockSize
_TEXT	ENDS
; Function compile flags: /Odtp /RTCsu
; File E:\FoxSuite\vst-2.4-sdk\vstsdk2.4\public.sdk\source\vst2.x\audioeffect.h
;	COMDAT ?getSampleRate@AudioEffect@@UAEMXZ
_TEXT	SEGMENT
_this$ = -4						; size = 4
?getSampleRate@AudioEffect@@UAEMXZ PROC			; AudioEffect::getSampleRate, COMDAT
; _this$ = ecx

; 114  : 	virtual float getSampleRate ()   { return sampleRate; }		///< Returns the current sample rate

	push	ebp
	mov	ebp, esp
	push	ecx
	mov	DWORD PTR _this$[ebp], ecx
	mov	eax, DWORD PTR _this$[ebp]
	fld	DWORD PTR [eax+12]
	mov	esp, ebp
	pop	ebp
	ret	0
?getSampleRate@AudioEffect@@UAEMXZ ENDP			; AudioEffect::getSampleRate
_TEXT	ENDS
; Function compile flags: /Odtp /RTCsu
; File E:\FoxSuite\vst-2.4-sdk\vstsdk2.4\public.sdk\source\vst2.x\audioeffect.h
;	COMDAT ?getAeffect@AudioEffect@@UAEPAUAEffect@@XZ
_TEXT	SEGMENT
_this$ = -4						; size = 4
?getAeffect@AudioEffect@@UAEPAUAEffect@@XZ PROC		; AudioEffect::getAeffect, COMDAT
; _this$ = ecx

; 113  : 	virtual AEffect* getAeffect ()   { return &cEffect; }		///< Returns the #AEffect structure

	push	ebp
	mov	ebp, esp
	push	ecx
	mov	DWORD PTR _this$[ebp], ecx
	mov	eax, DWORD PTR _this$[ebp]
	add	eax, 32					; 00000020H
	mov	esp, ebp
	pop	ebp
	ret	0
?getAeffect@AudioEffect@@UAEPAUAEffect@@XZ ENDP		; AudioEffect::getAeffect
_TEXT	ENDS
; Function compile flags: /Odtp /RTCsu
; File E:\FoxSuite\vst-2.4-sdk\vstsdk2.4\public.sdk\source\vst2.x\audioeffect.h
;	COMDAT ?getEditor@AudioEffect@@UAEPAVAEffEditor@@XZ
_TEXT	SEGMENT
_this$ = -4						; size = 4
?getEditor@AudioEffect@@UAEPAVAEffEditor@@XZ PROC	; AudioEffect::getEditor, COMDAT
; _this$ = ecx

; 106  : 	virtual AEffEditor* getEditor () { return editor; }	///< Returns the attached editor

	push	ebp
	mov	ebp, esp
	push	ecx
	mov	DWORD PTR _this$[ebp], ecx
	mov	eax, DWORD PTR _this$[ebp]
	mov	eax, DWORD PTR [eax+8]
	mov	esp, ebp
	pop	ebp
	ret	0
?getEditor@AudioEffect@@UAEPAVAEffEditor@@XZ ENDP	; AudioEffect::getEditor
_TEXT	ENDS
; Function compile flags: /Odtp /RTCsu
; File E:\FoxSuite\vst-2.4-sdk\vstsdk2.4\public.sdk\source\vst2.x\audioeffect.h
;	COMDAT ?setNumOutputs@AudioEffect@@UAEXH@Z
_TEXT	SEGMENT
_this$ = -4						; size = 4
_outputs$ = 8						; size = 4
?setNumOutputs@AudioEffect@@UAEXH@Z PROC		; AudioEffect::setNumOutputs, COMDAT
; _this$ = ecx

; 89   : 	virtual void setNumOutputs (VstInt32 outputs) { cEffect.numOutputs = outputs; }	///< Set the number of outputs the plug-in will handle. For a plug-in which could change its IO configuration, this number is the maximun available ouputs.

	push	ebp
	mov	ebp, esp
	push	ecx
	mov	DWORD PTR _this$[ebp], ecx
	mov	eax, DWORD PTR _this$[ebp]
	mov	ecx, DWORD PTR _outputs$[ebp]
	mov	DWORD PTR [eax+64], ecx
	mov	esp, ebp
	pop	ebp
	ret	4
?setNumOutputs@AudioEffect@@UAEXH@Z ENDP		; AudioEffect::setNumOutputs
_TEXT	ENDS
; Function compile flags: /Odtp /RTCsu
; File E:\FoxSuite\vst-2.4-sdk\vstsdk2.4\public.sdk\source\vst2.x\audioeffect.h
;	COMDAT ?setNumInputs@AudioEffect@@UAEXH@Z
_TEXT	SEGMENT
_this$ = -4						; size = 4
_inputs$ = 8						; size = 4
?setNumInputs@AudioEffect@@UAEXH@Z PROC			; AudioEffect::setNumInputs, COMDAT
; _this$ = ecx

; 88   : 	virtual void setNumInputs (VstInt32 inputs)   { cEffect.numInputs = inputs; }	///< Set the number of inputs the plug-in will handle. For a plug-in which could change its IO configuration, this number is the maximun available inputs.

	push	ebp
	mov	ebp, esp
	push	ecx
	mov	DWORD PTR _this$[ebp], ecx
	mov	eax, DWORD PTR _this$[ebp]
	mov	ecx, DWORD PTR _inputs$[ebp]
	mov	DWORD PTR [eax+60], ecx
	mov	esp, ebp
	pop	ebp
	ret	4
?setNumInputs@AudioEffect@@UAEXH@Z ENDP			; AudioEffect::setNumInputs
_TEXT	ENDS
; Function compile flags: /Odtp /RTCsu
; File E:\FoxSuite\vst-2.4-sdk\vstsdk2.4\public.sdk\source\vst2.x\audioeffect.h
;	COMDAT ?setUniqueID@AudioEffect@@UAEXH@Z
_TEXT	SEGMENT
_this$ = -4						; size = 4
_iD$ = 8						; size = 4
?setUniqueID@AudioEffect@@UAEXH@Z PROC			; AudioEffect::setUniqueID, COMDAT
; _this$ = ecx

; 87   : 	virtual void setUniqueID (VstInt32 iD)        { cEffect.uniqueID = iD; }		///< Must be called to set the plug-ins unique ID!

	push	ebp
	mov	ebp, esp
	push	ecx
	mov	DWORD PTR _this$[ebp], ecx
	mov	eax, DWORD PTR _this$[ebp]
	mov	ecx, DWORD PTR _iD$[ebp]
	mov	DWORD PTR [eax+104], ecx
	mov	esp, ebp
	pop	ebp
	ret	4
?setUniqueID@AudioEffect@@UAEXH@Z ENDP			; AudioEffect::setUniqueID
_TEXT	ENDS
; Function compile flags: /Odtp /RTCsu
; File E:\FoxSuite\vst-2.4-sdk\vstsdk2.4\public.sdk\source\vst2.x\audioeffect.h
;	COMDAT ?setChunk@AudioEffect@@UAEHPAXH_N@Z
_TEXT	SEGMENT
_this$ = -4						; size = 4
_data$ = 8						; size = 4
_byteSize$ = 12						; size = 4
_isPreset$ = 16						; size = 1
?setChunk@AudioEffect@@UAEHPAXH_N@Z PROC		; AudioEffect::setChunk, COMDAT
; _this$ = ecx

; 80   : 	virtual VstInt32 setChunk (void* data, VstInt32 byteSize, bool isPreset = false) { return 0; }	///< Host restores plug-in state

	push	ebp
	mov	ebp, esp
	push	ecx
	mov	DWORD PTR _this$[ebp], ecx
	xor	eax, eax
	mov	esp, ebp
	pop	ebp
	ret	12					; 0000000cH
?setChunk@AudioEffect@@UAEHPAXH_N@Z ENDP		; AudioEffect::setChunk
_TEXT	ENDS
; Function compile flags: /Odtp /RTCsu
; File E:\FoxSuite\vst-2.4-sdk\vstsdk2.4\public.sdk\source\vst2.x\audioeffect.h
;	COMDAT ?getChunk@AudioEffect@@UAEHPAPAX_N@Z
_TEXT	SEGMENT
_this$ = -4						; size = 4
_data$ = 8						; size = 4
_isPreset$ = 12						; size = 1
?getChunk@AudioEffect@@UAEHPAPAX_N@Z PROC		; AudioEffect::getChunk, COMDAT
; _this$ = ecx

; 79   : 	virtual VstInt32 getChunk (void** data, bool isPreset = false) { return 0; } ///< Host stores plug-in state. Returns the size in bytes of the chunk (plug-in allocates the data array)

	push	ebp
	mov	ebp, esp
	push	ecx
	mov	DWORD PTR _this$[ebp], ecx
	xor	eax, eax
	mov	esp, ebp
	pop	ebp
	ret	8
?getChunk@AudioEffect@@UAEHPAPAX_N@Z ENDP		; AudioEffect::getChunk
_TEXT	ENDS
; Function compile flags: /Odtp /RTCsu
; File E:\FoxSuite\vst-2.4-sdk\vstsdk2.4\public.sdk\source\vst2.x\audioeffect.h
;	COMDAT ?setProgramName@AudioEffect@@UAEXPAD@Z
_TEXT	SEGMENT
_this$ = -4						; size = 4
_name$ = 8						; size = 4
?setProgramName@AudioEffect@@UAEXPAD@Z PROC		; AudioEffect::setProgramName, COMDAT
; _this$ = ecx

; 72   : 	virtual void setProgramName (char* name) {}				///< Stuff the name field of the current program with \e name. Limited to #kVstMaxProgNameLen.

	push	ebp
	mov	ebp, esp
	push	ecx
	mov	DWORD PTR _this$[ebp], ecx
	mov	esp, ebp
	pop	ebp
	ret	4
?setProgramName@AudioEffect@@UAEXPAD@Z ENDP		; AudioEffect::setProgramName
_TEXT	ENDS
; Function compile flags: /Odtp /RTCsu
; File E:\FoxSuite\vst-2.4-sdk\vstsdk2.4\public.sdk\source\vst2.x\audioeffect.h
;	COMDAT ?setProgram@AudioEffect@@UAEXH@Z
_TEXT	SEGMENT
_this$ = -4						; size = 4
_program$ = 8						; size = 4
?setProgram@AudioEffect@@UAEXH@Z PROC			; AudioEffect::setProgram, COMDAT
; _this$ = ecx

; 70   : 	virtual void setProgram (VstInt32 program) { curProgram = program; }	///< Set the current program to \e program

	push	ebp
	mov	ebp, esp
	push	ecx
	mov	DWORD PTR _this$[ebp], ecx
	mov	eax, DWORD PTR _this$[ebp]
	mov	ecx, DWORD PTR _program$[ebp]
	mov	DWORD PTR [eax+28], ecx
	mov	esp, ebp
	pop	ebp
	ret	4
?setProgram@AudioEffect@@UAEXH@Z ENDP			; AudioEffect::setProgram
_TEXT	ENDS
; Function compile flags: /Odtp /RTCsu
; File E:\FoxSuite\vst-2.4-sdk\vstsdk2.4\public.sdk\source\vst2.x\audioeffect.h
;	COMDAT ?getProgram@AudioEffect@@UAEHXZ
_TEXT	SEGMENT
_this$ = -4						; size = 4
?getProgram@AudioEffect@@UAEHXZ PROC			; AudioEffect::getProgram, COMDAT
; _this$ = ecx

; 69   : 	virtual VstInt32 getProgram () { return curProgram; }					///< Return the index to the current program

	push	ebp
	mov	ebp, esp
	push	ecx
	mov	DWORD PTR _this$[ebp], ecx
	mov	eax, DWORD PTR _this$[ebp]
	mov	eax, DWORD PTR [eax+28]
	mov	esp, ebp
	pop	ebp
	ret	0
?getProgram@AudioEffect@@UAEHXZ ENDP			; AudioEffect::getProgram
_TEXT	ENDS
; Function compile flags: /Odtp /RTCsu
; File E:\FoxSuite\vst-2.4-sdk\vstsdk2.4\public.sdk\source\vst2.x\audioeffect.h
;	COMDAT ?processDoubleReplacing@AudioEffect@@UAEXPAPAN0H@Z
_TEXT	SEGMENT
_this$ = -4						; size = 4
_inputs$ = 8						; size = 4
_outputs$ = 12						; size = 4
_sampleFrames$ = 16					; size = 4
?processDoubleReplacing@AudioEffect@@UAEXPAPAN0H@Z PROC	; AudioEffect::processDoubleReplacing, COMDAT
; _this$ = ecx

; 52   : 	virtual void processDoubleReplacing (double** inputs, double** outputs, VstInt32 sampleFrames) {} ///< Process 64 bit (double precision) floats (always in a resume state) \sa processReplacing

	push	ebp
	mov	ebp, esp
	push	ecx
	mov	DWORD PTR _this$[ebp], ecx
	mov	esp, ebp
	pop	ebp
	ret	12					; 0000000cH
?processDoubleReplacing@AudioEffect@@UAEXPAPAN0H@Z ENDP	; AudioEffect::processDoubleReplacing
_TEXT	ENDS
; Function compile flags: /Odtp /RTCsu
; File E:\FoxSuite\vst-2.4-sdk\vstsdk2.4\public.sdk\source\vst2.x\audioeffect.h
;	COMDAT ?setBlockSize@AudioEffect@@UAEXH@Z
_TEXT	SEGMENT
_this$ = -4						; size = 4
_blockSize$ = 8						; size = 4
?setBlockSize@AudioEffect@@UAEXH@Z PROC			; AudioEffect::setBlockSize, COMDAT
; _this$ = ecx

; 47   : 	virtual void setBlockSize (VstInt32 blockSize) { this->blockSize = blockSize; }		///< Called when the Maximun block size changes (always in a suspend state). Note that the sampleFrames in Process Calls could be smaller than this block size, but NOT bigger.

	push	ebp
	mov	ebp, esp
	push	ecx
	mov	DWORD PTR _this$[ebp], ecx
	mov	eax, DWORD PTR _this$[ebp]
	mov	ecx, DWORD PTR _blockSize$[ebp]
	mov	DWORD PTR [eax+16], ecx
	mov	esp, ebp
	pop	ebp
	ret	4
?setBlockSize@AudioEffect@@UAEXH@Z ENDP			; AudioEffect::setBlockSize
_TEXT	ENDS
; Function compile flags: /Odtp /RTCsu
; File E:\FoxSuite\vst-2.4-sdk\vstsdk2.4\public.sdk\source\vst2.x\audioeffect.h
;	COMDAT ?setSampleRate@AudioEffect@@UAEXM@Z
_TEXT	SEGMENT
_this$ = -4						; size = 4
_sampleRate$ = 8					; size = 4
?setSampleRate@AudioEffect@@UAEXM@Z PROC		; AudioEffect::setSampleRate, COMDAT
; _this$ = ecx

; 46   : 	virtual void setSampleRate (float sampleRate)  { this->sampleRate = sampleRate; }	///< Called when the sample rate changes (always in a suspend state)

	push	ebp
	mov	ebp, esp
	push	ecx
	mov	DWORD PTR _this$[ebp], ecx
	mov	eax, DWORD PTR _this$[ebp]
	movss	xmm0, DWORD PTR _sampleRate$[ebp]
	movss	DWORD PTR [eax+12], xmm0
	mov	esp, ebp
	pop	ebp
	ret	4
?setSampleRate@AudioEffect@@UAEXM@Z ENDP		; AudioEffect::setSampleRate
_TEXT	ENDS
; Function compile flags: /Odtp /RTCsu
; File E:\FoxSuite\vst-2.4-sdk\vstsdk2.4\public.sdk\source\vst2.x\audioeffect.h
;	COMDAT ?suspend@AudioEffect@@UAEXXZ
_TEXT	SEGMENT
_this$ = -4						; size = 4
?suspend@AudioEffect@@UAEXXZ PROC			; AudioEffect::suspend, COMDAT
; _this$ = ecx

; 38   : 	virtual void suspend () {}	///< Called when plug-in is switched to off

	push	ebp
	mov	ebp, esp
	push	ecx
	mov	DWORD PTR _this$[ebp], ecx
	mov	esp, ebp
	pop	ebp
	ret	0
?suspend@AudioEffect@@UAEXXZ ENDP			; AudioEffect::suspend
_TEXT	ENDS
; Function compile flags: /Odtp /RTCsu
; File E:\FoxSuite\vst-2.4-sdk\vstsdk2.4\public.sdk\source\vst2.x\audioeffect.h
;	COMDAT ?close@AudioEffect@@UAEXXZ
_TEXT	SEGMENT
_this$ = -4						; size = 4
?close@AudioEffect@@UAEXXZ PROC				; AudioEffect::close, COMDAT
; _this$ = ecx

; 37   : 	virtual void close () {}	///< Called when plug-in will be released

	push	ebp
	mov	ebp, esp
	push	ecx
	mov	DWORD PTR _this$[ebp], ecx
	mov	esp, ebp
	pop	ebp
	ret	0
?close@AudioEffect@@UAEXXZ ENDP				; AudioEffect::close
_TEXT	ENDS
; Function compile flags: /Odtp /RTCsu
; File E:\FoxSuite\vst-2.4-sdk\vstsdk2.4\public.sdk\source\vst2.x\audioeffect.h
;	COMDAT ?open@AudioEffect@@UAEXXZ
_TEXT	SEGMENT
_this$ = -4						; size = 4
?open@AudioEffect@@UAEXXZ PROC				; AudioEffect::open, COMDAT
; _this$ = ecx

; 36   : 	virtual void open () {}		///< Called when plug-in is initialized

	push	ebp
	mov	ebp, esp
	push	ecx
	mov	DWORD PTR _this$[ebp], ecx
	mov	esp, ebp
	pop	ebp
	ret	0
?open@AudioEffect@@UAEXXZ ENDP				; AudioEffect::open
_TEXT	ENDS
; Function compile flags: /Odtp /RTCsu
; File E:\FoxSuite\vst-2.4-sdk\vstsdk2.4\pluginterfaces\vst2.x\aeffect.h
;	COMDAT ?vst_strncpy@@YAPADPADPBDI@Z
_TEXT	SEGMENT
_result$ = -4						; size = 4
_dst$ = 8						; size = 4
_src$ = 12						; size = 4
_maxLen$ = 16						; size = 4
?vst_strncpy@@YAPADPADPBDI@Z PROC			; vst_strncpy, COMDAT

; 295  : {

	push	ebp
	mov	ebp, esp
	push	ecx
	push	esi
	mov	DWORD PTR [ebp-4], -858993460		; ccccccccH

; 296  : 	char* result = strncpy (dst, src, maxLen);

	mov	esi, esp
	mov	eax, DWORD PTR _maxLen$[ebp]
	push	eax
	mov	ecx, DWORD PTR _src$[ebp]
	push	ecx
	mov	edx, DWORD PTR _dst$[ebp]
	push	edx
	call	DWORD PTR __imp__strncpy
	add	esp, 12					; 0000000cH
	cmp	esi, esp
	call	__RTC_CheckEsp
	mov	DWORD PTR _result$[ebp], eax

; 297  : 	dst[maxLen] = 0;

	mov	eax, DWORD PTR _dst$[ebp]
	add	eax, DWORD PTR _maxLen$[ebp]
	mov	BYTE PTR [eax], 0

; 298  : 	return result;

	mov	eax, DWORD PTR _result$[ebp]

; 299  : }

	pop	esi
	add	esp, 4
	cmp	ebp, esp
	call	__RTC_CheckEsp
	mov	esp, ebp
	pop	ebp
	ret	0
?vst_strncpy@@YAPADPADPBDI@Z ENDP			; vst_strncpy
_TEXT	ENDS
; Function compile flags: /Odtp /RTCsu
;	COMDAT ??_GFreeverb@@QAEPAXI@Z
_TEXT	SEGMENT
_this$ = -4						; size = 4
___flags$ = 8						; size = 4
??_GFreeverb@@QAEPAXI@Z PROC				; Freeverb::`scalar deleting destructor', COMDAT
; _this$ = ecx
	push	ebp
	mov	ebp, esp
	push	ecx
	mov	DWORD PTR [ebp-4], -858993460		; ccccccccH
	mov	DWORD PTR _this$[ebp], ecx
	mov	ecx, DWORD PTR _this$[ebp]
	call	??1Freeverb@@QAE@XZ			; Freeverb::~Freeverb
	mov	eax, DWORD PTR ___flags$[ebp]
	and	eax, 1
	je	SHORT $LN2@scalar
	push	176					; 000000b0H
	mov	ecx, DWORD PTR _this$[ebp]
	push	ecx
	call	??3@YAXPAXI@Z				; operator delete
	add	esp, 8
$LN2@scalar:
	mov	eax, DWORD PTR _this$[ebp]
	add	esp, 4
	cmp	ebp, esp
	call	__RTC_CheckEsp
	mov	esp, ebp
	pop	ebp
	ret	4
??_GFreeverb@@QAEPAXI@Z ENDP				; Freeverb::`scalar deleting destructor'
_TEXT	ENDS
; Function compile flags: /Odtp /RTCsu
;	COMDAT ??_GTremolo@@QAEPAXI@Z
_TEXT	SEGMENT
_this$ = -4						; size = 4
___flags$ = 8						; size = 4
??_GTremolo@@QAEPAXI@Z PROC				; Tremolo::`scalar deleting destructor', COMDAT
; _this$ = ecx
	push	ebp
	mov	ebp, esp
	push	ecx
	mov	DWORD PTR [ebp-4], -858993460		; ccccccccH
	mov	DWORD PTR _this$[ebp], ecx
	mov	ecx, DWORD PTR _this$[ebp]
	call	??1Tremolo@@QAE@XZ			; Tremolo::~Tremolo
	mov	eax, DWORD PTR ___flags$[ebp]
	and	eax, 1
	je	SHORT $LN2@scalar
	push	20					; 00000014H
	mov	ecx, DWORD PTR _this$[ebp]
	push	ecx
	call	??3@YAXPAXI@Z				; operator delete
	add	esp, 8
$LN2@scalar:
	mov	eax, DWORD PTR _this$[ebp]
	add	esp, 4
	cmp	ebp, esp
	call	__RTC_CheckEsp
	mov	esp, ebp
	pop	ebp
	ret	4
??_GTremolo@@QAEPAXI@Z ENDP				; Tremolo::`scalar deleting destructor'
_TEXT	ENDS
; Function compile flags: /Odtp /RTCsu
;	COMDAT ??_GHPFButterworth@@QAEPAXI@Z
_TEXT	SEGMENT
_this$ = -4						; size = 4
___flags$ = 8						; size = 4
??_GHPFButterworth@@QAEPAXI@Z PROC			; HPFButterworth::`scalar deleting destructor', COMDAT
; _this$ = ecx
	push	ebp
	mov	ebp, esp
	push	ecx
	mov	DWORD PTR [ebp-4], -858993460		; ccccccccH
	mov	DWORD PTR _this$[ebp], ecx
	mov	ecx, DWORD PTR _this$[ebp]
	call	??1HPFButterworth@@QAE@XZ		; HPFButterworth::~HPFButterworth
	mov	eax, DWORD PTR ___flags$[ebp]
	and	eax, 1
	je	SHORT $LN2@scalar
	push	48					; 00000030H
	mov	ecx, DWORD PTR _this$[ebp]
	push	ecx
	call	??3@YAXPAXI@Z				; operator delete
	add	esp, 8
$LN2@scalar:
	mov	eax, DWORD PTR _this$[ebp]
	add	esp, 4
	cmp	ebp, esp
	call	__RTC_CheckEsp
	mov	esp, ebp
	pop	ebp
	ret	4
??_GHPFButterworth@@QAEPAXI@Z ENDP			; HPFButterworth::`scalar deleting destructor'
_TEXT	ENDS
; Function compile flags: /Odtp /RTCsu
;	COMDAT ??_GLPFButterworth@@QAEPAXI@Z
_TEXT	SEGMENT
_this$ = -4						; size = 4
___flags$ = 8						; size = 4
??_GLPFButterworth@@QAEPAXI@Z PROC			; LPFButterworth::`scalar deleting destructor', COMDAT
; _this$ = ecx
	push	ebp
	mov	ebp, esp
	push	ecx
	mov	DWORD PTR [ebp-4], -858993460		; ccccccccH
	mov	DWORD PTR _this$[ebp], ecx
	mov	ecx, DWORD PTR _this$[ebp]
	call	??1LPFButterworth@@QAE@XZ		; LPFButterworth::~LPFButterworth
	mov	eax, DWORD PTR ___flags$[ebp]
	and	eax, 1
	je	SHORT $LN2@scalar
	push	48					; 00000030H
	mov	ecx, DWORD PTR _this$[ebp]
	push	ecx
	call	??3@YAXPAXI@Z				; operator delete
	add	esp, 8
$LN2@scalar:
	mov	eax, DWORD PTR _this$[ebp]
	add	esp, 4
	cmp	ebp, esp
	call	__RTC_CheckEsp
	mov	esp, ebp
	pop	ebp
	ret	4
??_GLPFButterworth@@QAEPAXI@Z ENDP			; LPFButterworth::`scalar deleting destructor'
_TEXT	ENDS
END
